
emu_rom.bin:     file format binary
emu_rom.bin

Disassembly of section .data:

0000000000000000 <.data>:
       0:	00 00       	nop	
       2:	4f 96       	ble	.-106 (0xffffff9a)
	...
      1c:	00 00       	nop	
      1e:	0b 4c       	.word	H'b,H'4c
	...
      40:	00 00       	nop	
      42:	0b c0       	.word	H'b,H'c0
      44:	00 00       	nop	
      46:	0b da       	inc.w	#2,e2
      48:	00 00       	nop	
      4a:	0b f4       	inc.l	#2,er4
      4c:	00 00       	nop	
      4e:	0c 0e       	mov.b	r0h,r6l
      50:	00 00       	nop	
      52:	0c 28       	mov.b	r2h,r0l
      54:	00 00       	nop	
      56:	0c 42       	mov.b	r4h,r2h
      58:	00 00       	nop	
      5a:	0c 5c       	mov.b	r5h,r4l
      5c:	00 00       	nop	
      5e:	0c 76       	mov.b	r7h,r6h
      60:	00 00       	nop	
      62:	0c 90       	mov.b	r1l,r0h
      64:	00 00       	nop	
      66:	0c aa       	mov.b	r2l,r2l
      68:	00 00       	nop	
      6a:	0c c4       	mov.b	r4l,r4h
      6c:	00 00       	nop	
      6e:	00 00       	nop	
      70:	00 00       	nop	
      72:	0c de       	mov.b	r5l,r6l
	...
      80:	00 00       	nop	
      82:	0c f8       	mov.b	r7l,r0l
      84:	00 00       	nop	
      86:	0d 12       	mov.w	r1,r2
      88:	00 00       	nop	
      8a:	0d 2c       	mov.w	r2,e4
      8c:	00 00       	nop	
      8e:	0d 46       	mov.w	r4,r6
      90:	00 00       	nop	
      92:	0d 60       	mov.w	r6,r0
	...
      a0:	00 00       	nop	
      a2:	0d 7a       	mov.w	r7,e2
      a4:	00 00       	nop	
      a6:	0d 94       	mov.w	e1,r4
      a8:	00 00       	nop	
      aa:	0d ae       	mov.w	e2,e6
      ac:	00 00       	nop	
      ae:	0d c8       	mov.w	e4,e0
      b0:	00 00       	nop	
      b2:	0d e2       	mov.w	e6,r2
      b4:	00 00       	nop	
      b6:	0d fc       	mov.w	e7,e4
      b8:	00 00       	nop	
      ba:	0e 16       	addx	r1h,r6h
      bc:	00 00       	nop	
      be:	0e 30       	addx	r3h,r0h
      c0:	00 00       	nop	
      c2:	0e 4a       	addx	r4h,r2l
      c4:	00 00       	nop	
      c6:	0e 64       	addx	r6h,r4h
      c8:	00 00       	nop	
      ca:	0e 7e       	addx	r7h,r6l
      cc:	00 00       	nop	
      ce:	0e 98       	addx	r1l,r0l
      d0:	00 00       	nop	
      d2:	0e b2       	addx	r3l,r2h
	...
      e0:	00 00       	nop	
      e2:	0e cc       	addx	r4l,r4l
      e4:	00 00       	nop	
      e6:	0e e6       	addx	r6l,r6h
      e8:	00 00       	nop	
      ea:	0f 00       	daa	r0h
      ec:	00 00       	nop	
      ee:	0f 1a       	mov.w	#0x1,e2
      f0:	00 00       	nop	
      f2:	0f 34       	mov.w	#0x3,r4
      f4:	00 00       	nop	
      f6:	0f 4e       	mov.w	#0x4,e6
      f8:	00 00       	nop	
      fa:	0f 68       	mov.w	#0x6,e0
      fc:	00 00       	nop	
      fe:	0f 82       	mov.l	er0,er2
     100:	00 00       	nop	
     102:	0f 9c       	mov.l	#0x1,er4
     104:	00 00       	nop	
     106:	0f b6       	mov.l	er3,er6
     108:	00 00       	nop	
     10a:	0f d0       	mov.l	er5,er0
     10c:	00 00       	nop	
     10e:	00 00       	nop	
     110:	00 00       	nop	
     112:	0f ea       	mov.l	#0x6,er2
     114:	00 00       	nop	
     116:	10 04       	shll.b	r4h
     118:	00 00       	nop	
     11a:	10 1e       	shll.w	e6
     11c:	00 00       	nop	
     11e:	00 00       	nop	
     120:	00 00       	nop	
     122:	10 38       	shll.l	#4,er0
     124:	00 00       	nop	
     126:	10 52       	shll.w	#2,r2
     128:	00 00       	nop	
     12a:	10 6c       	shll.w	#8,e4
     12c:	00 00       	nop	
     12e:	10 86       	shal.b	r6h
	...
     140:	00 00       	nop	
     142:	10 a0       	shll.b	#4,r0h
     144:	00 00       	nop	
     146:	10 ba       	.word	H'10,H'ba
     148:	00 00       	nop	
     14a:	10 d4       	shal.w	#2,r4
     14c:	00 00       	nop	
     14e:	10 ee       	.word	H'10,H'ee
     150:	00 00       	nop	
     152:	11 08       	shlr.b	r0l
     154:	00 00       	nop	
     156:	11 22       	shlr.w	#4,r2
     158:	00 00       	nop	
     15a:	11 3c       	shlr.l	#4,er4
     15c:	00 00       	nop	
     15e:	11 56       	shlr.w	#2,r6
     160:	00 00       	nop	
     162:	11 70       	shlr.l	#2,er0
     164:	00 00       	nop	
     166:	11 8a       	shar.b	r2l
     168:	00 00       	nop	
     16a:	11 a4       	shlr.b	#4,r4h
     16c:	00 00       	nop	
     16e:	11 be       	.word	H'11,H'be
     170:	01 02       	.word	H'1,H'2
     172:	04 08       	orc	#0x8,ccr
     174:	10 20       	shll.w	#4,r0
     176:	40 80       	bra	.-128 (0xf8)
     178:	1d 3a       	cmp.w	r3,e2
     17a:	74 e8       	bior	#0x6,r0l
     17c:	cd 87       	or.b	#0x87,r5l
     17e:	13 26       	.word	H'13,H'26
     180:	4c 98       	bge	.-104 (0x11a)
     182:	2d 5a       	mov.b	@0x5a:8,r5l
     184:	b4 75       	subx	#0x75,r4h
     186:	ea c9       	and.b	#0xc9,r2l
     188:	8f 03       	add.b	#0x3,r7l
     18a:	06 0c       	andc	#0xc,ccr
     18c:	18 30       	sub.b	r3h,r0h
     18e:	60 c0       	bset	r4l,r0h
     190:	9d 27       	addx	#0x27,r5l
     192:	4e 9c       	bgt	.-100 (0x130)
     194:	25 4a       	mov.b	@0x4a:8,r5h
     196:	94 35       	addx	#0x35,r4h
     198:	6a d4 b5 77 	mov.b	#0x4,@0xb577:16
     19c:	ee c1       	and.b	#0xc1,r6l
     19e:	9f 23       	addx	#0x23,r7l
     1a0:	46 8c       	bne	.-116 (0x12e)
     1a2:	05 0a       	xorc	#0xa,ccr
     1a4:	14 28       	or.b	r2h,r0l
     1a6:	50 a0       	mulxu.b	r2l,r0
     1a8:	5d ba       	jsr	@@744 (0x2e8)
     1aa:	69 d2       	mov.w	r2,@r5
     1ac:	b9 6f       	subx	#0x6f,r1l
     1ae:	de a1       	xor.b	#0xa1,r6l
     1b0:	5f be       	jsr	@@190 (0xbe)
     1b2:	61 c2       	bnot	r4l,r2h
     1b4:	99 2f       	addx	#0x2f,r1l
     1b6:	5e bc 65 ca 	jsr	@0xbc65ca:24
     1ba:	89 0f       	add.b	#0xf,r1l
     1bc:	1e 3c       	subx	r3h,r4l
     1be:	78 f0       	.word	H'78,H'f0
     1c0:	fd e7       	mov.b	#0xe7,r5l
     1c2:	d3 bb       	xor.b	#0xbb,r3h
     1c4:	6b d6 b1 7f 	mov.w	#0x6,@0xb17f:16
     1c8:	fe e1       	mov.b	#0xe1,r6l
     1ca:	df a3       	xor.b	#0xa3,r7l
     1cc:	5b b6       	jmp	@@182 (0xb6)
     1ce:	71 e2       	.word	H'71,H'e2
     1d0:	d9 af       	xor.b	#0xaf,r1l
     1d2:	43 86       	bls	.-122 (0x15a)
     1d4:	11 22       	shlr.w	#4,r2
     1d6:	44 88       	bcc	.-120 (0x160)
     1d8:	0d 1a       	mov.w	r1,e2
     1da:	34 68       	mov.b	r4h,@0x68:8
     1dc:	d0 bd       	xor.b	#0xbd,r0h
     1de:	67 ce       	bist	#0x4,r6l
     1e0:	81 1f       	add.b	#0x1f,r1h
     1e2:	3e 7c       	mov.b	r6l,@0x7c:8
     1e4:	f8 ed       	mov.b	#0xed,r0l
     1e6:	c7 93       	or.b	#0x93,r7h
     1e8:	3b 76       	mov.b	r3l,@0x76:8
     1ea:	ec c5       	and.b	#0xc5,r4l
     1ec:	97 33       	addx	#0x33,r7h
     1ee:	66 cc       	and.w	e4,e4
     1f0:	85 17       	add.b	#0x17,r5h
     1f2:	2e 5c       	mov.b	@0x5c:8,r6l
     1f4:	b8 6d       	subx	#0x6d,r0l
     1f6:	da a9       	xor.b	#0xa9,r2l
     1f8:	4f 9e       	ble	.-98 (0x198)
     1fa:	21 42       	mov.b	@0x42:8,r1h
     1fc:	84 15       	add.b	#0x15,r4h
     1fe:	2a 54       	mov.b	@0x54:8,r2l
     200:	a8 4d       	cmp.b	#0x4d,r0l
     202:	9a 29       	addx	#0x29,r2l
     204:	52 a4       	mulxu.w	e2,er4
     206:	55 aa       	bsr	.-86 (0x1b2)
     208:	49 92       	bvs	.-110 (0x19c)
     20a:	39 72       	mov.b	r1l,@0x72:8
     20c:	e4 d5       	and.b	#0xd5,r4h
     20e:	b7 73       	subx	#0x73,r7h
     210:	e6 d1       	and.b	#0xd1,r6h
     212:	bf 63       	subx	#0x63,r7l
     214:	c6 91       	or.b	#0x91,r6h
     216:	3f 7e       	mov.b	r7l,@0x7e:8
     218:	fc e5       	mov.b	#0xe5,r4l
     21a:	d7 b3       	xor.b	#0xb3,r7h
     21c:	7b f6       	.word	H'7b,H'f6
     21e:	f1 ff       	mov.b	#0xff,r1h
     220:	e3 db       	and.b	#0xdb,r3h
     222:	ab 4b       	cmp.b	#0x4b,r3l
     224:	96 31       	addx	#0x31,r6h
     226:	62 c4       	bclr	r4l,r4h
     228:	95 37       	addx	#0x37,r5h
     22a:	6e dc a5 57 	mov.b	r4l,@(0xa557:16,r5)
     22e:	ae 41       	cmp.b	#0x41,r6l
     230:	82 19       	add.b	#0x19,r2h
     232:	32 64       	mov.b	r2h,@0x64:8
     234:	c8 8d       	or.b	#0x8d,r0l
     236:	07 0e       	ldc	#0xe,ccr
     238:	1c 38       	cmp.b	r3h,r0l
     23a:	70 e0       	.word	H'70,H'e0
     23c:	dd a7       	xor.b	#0xa7,r5l
     23e:	53 a6       	divxu.w	e2,er6
     240:	51 a2       	divxu.b	r2l,r2
     242:	59 b2       	jmp	@@712 (0x2c8)
     244:	79 f2       	.word	H'79,H'f2
     246:	f9 ef       	mov.b	#0xef,r1l
     248:	c3 9b       	or.b	#0x9b,r3h
     24a:	2b 56       	mov.b	@0x56:8,r3l
     24c:	ac 45       	cmp.b	#0x45,r4l
     24e:	8a 09       	add.b	#0x9,r2l
     250:	12 24       	.word	H'12,H'24
     252:	48 90       	bvc	.-112 (0x1e4)
     254:	3d 7a       	mov.b	r5l,@0x7a:8
     256:	f4 f5       	mov.b	#0xf5,r4h
     258:	f7 f3       	mov.b	#0xf3,r7h
     25a:	fb eb       	mov.b	#0xeb,r3l
     25c:	cb 8b       	or.b	#0x8b,r3l
     25e:	0b 16       	.word	H'b,H'16
     260:	2c 58       	mov.b	@0x58:8,r4l
     262:	b0 7d       	subx	#0x7d,r0h
     264:	fa e9       	mov.b	#0xe9,r2l
     266:	cf 83       	or.b	#0x83,r7l
     268:	1b 36       	.word	H'1b,H'36
     26a:	6c d8       	mov.b	r0l,@-r5
     26c:	ad 47       	cmp.b	#0x47,r5l
     26e:	8e 00       	add.b	#0x0,r6l
     270:	ff 00       	mov.b	#0x0,r7l
     272:	01 19       	.word	H'1,H'19
     274:	02 32       	stmac	macl,er2
     276:	1a c6       	sub.l	er4,er6
     278:	03 df       	.word	H'3,H'df
     27a:	33 ee       	mov.b	r3h,@0xee:8
     27c:	1b 68       	.word	H'1b,H'68
     27e:	c7 4b       	or.b	#0x4b,r7h
     280:	04 64       	orc	#0x64,ccr
     282:	e0 0e       	and.b	#0xe,r0h
     284:	34 8d       	mov.b	r4h,@0x8d:8
     286:	ef 81       	and.b	#0x81,r7l
     288:	1c c1       	cmp.b	r4l,r1h
     28a:	69 f8       	mov.w	e0,@r7
     28c:	c8 08       	or.b	#0x8,r0l
     28e:	4c 71       	.word	H'4c,H'71
     290:	05 8a       	xorc	#0x8a,ccr
     292:	65 2f       	xor.w	r2,e7
     294:	e1 24       	and.b	#0x24,r1h
     296:	0f 21       	mov.w	#0x2,r1
     298:	35 93       	mov.b	r5h,@0x93:8
     29a:	8e da       	add.b	#0xda,r6l
     29c:	f0 12       	mov.b	#0x12,r0h
     29e:	82 45       	add.b	#0x45,r2h
     2a0:	1d b5       	cmp.w	e3,r5
     2a2:	c2 7d       	or.b	#0x7d,r2h
     2a4:	6a 27 f9 b9 	mov.b	@0xf9b9c99a:32,r7h
     2a8:	c9 9a 
     2aa:	09 78       	add.w	r7,e0
     2ac:	4d e4       	blt	.-28 (0x292)
     2ae:	72 a6       	.word	H'72,H'a6
     2b0:	06 bf       	andc	#0xbf,ccr
     2b2:	8b 62       	add.b	#0x62,r3l
     2b4:	66 dd       	and.w	e5,e5
     2b6:	30 fd       	mov.b	r0h,@0xfd:8
     2b8:	e2 98       	and.b	#0x98,r2h
     2ba:	25 b3       	mov.b	@0xb3:8,r5h
     2bc:	10 91       	shal.w	r1
     2be:	22 88       	mov.b	@0x88:8,r2h
     2c0:	36 d0       	mov.b	r6h,@0xd0:8
     2c2:	94 ce       	addx	#0xce,r4h
     2c4:	8f 96       	add.b	#0x96,r7l
     2c6:	db bd       	xor.b	#0xbd,r3l
     2c8:	f1 d2       	mov.b	#0xd2,r1h
     2ca:	13 5c       	rotxr.w	#2,e4
     2cc:	83 38       	add.b	#0x38,r3h
     2ce:	46 40       	bne	.+64 (0x310)
     2d0:	1e 42       	subx	r4h,r2h
     2d2:	b6 a3       	subx	#0xa3,r6h
     2d4:	c3 48       	or.b	#0x48,r3h
     2d6:	7e 6e       	.word	H'7e,H'6e
     2d8:	6b 3a       	.word	H'6b,H'3a
     2da:	28 54       	mov.b	@0x54:8,r0l
     2dc:	fa 85       	mov.b	#0x85,r2l
     2de:	ba 3d       	subx	#0x3d,r2l
     2e0:	ca 5e       	or.b	#0x5e,r2l
     2e2:	9b 9f       	addx	#0x9f,r3l
     2e4:	0a 15       	add.w	#0x1,r5
     2e6:	79 2b 4e d4 	cmp.w	#0x4ed4,e3
     2ea:	e5 ac       	and.b	#0xac,r5h
     2ec:	73 f3       	.word	H'73,H'f3
     2ee:	a7 57       	cmp.b	#0x57,r7h
     2f0:	07 70       	ldc	#0x70,ccr
     2f2:	c0 f7       	or.b	#0xf7,r0h
     2f4:	8c 80       	add.b	#0x80,r4l
     2f6:	63 0d       	btst	r0h,r5l
     2f8:	67 4a       	bst	#0x4,r2l
     2fa:	de ed       	xor.b	#0xed,r6l
     2fc:	31 c5       	mov.b	r1h,@0xc5:8
     2fe:	fe 18       	mov.b	#0x18,r6l
     300:	e3 a5       	and.b	#0xa5,r3h
     302:	99 77       	addx	#0x77,r1l
     304:	26 b8       	mov.b	@0xb8:8,r6h
     306:	b4 7c       	subx	#0x7c,r4h
     308:	11 44       	shlr.b	#2,r4h
     30a:	92 d9       	addx	#0xd9,r2h
     30c:	23 20       	mov.b	@0x20:8,r3h
     30e:	89 2e       	add.b	#0x2e,r1l
     310:	37 3f       	mov.b	r7h,@0x3f:8
     312:	d1 5b       	xor.b	#0x5b,r1h
     314:	95 bc       	addx	#0xbc,r5h
     316:	cf cd       	or.b	#0xcd,r7l
     318:	90 87       	addx	#0x87,r0h
     31a:	97 b2       	addx	#0xb2,r7h
     31c:	dc fc       	xor.b	#0xfc,r4l
     31e:	be 61       	subx	#0x61,r6l
     320:	f2 56       	mov.b	#0x56,r2h
     322:	d3 ab       	xor.b	#0xab,r3h
     324:	14 2a       	or.b	r2h,r2l
     326:	5d 9e       	jsr	@@632 (0x278)
     328:	84 3c       	add.b	#0x3c,r4h
     32a:	39 53       	mov.b	r1l,@0x53:8
     32c:	47 6d       	.word	H'47,H'6d
     32e:	41 a2       	brn	.-94 (0x2d2)
     330:	1f 2d       	cmp.w	#0x2,e5
     332:	43 d8       	bls	.-40 (0x30c)
     334:	b7 7b       	subx	#0x7b,r7h
     336:	a4 76       	cmp.b	#0x76,r4h
     338:	c4 17       	or.b	#0x17,r4h
     33a:	49 ec       	bvs	.-20 (0x328)
     33c:	7f 0c       	.word	H'7f,H'c
     33e:	6f f6 6c a1 	mov.w	r6,@(0x6ca1:16,r7)
     342:	3b 52       	mov.b	r3l,@0x52:8
     344:	29 9d       	mov.b	@0x9d:8,r1l
     346:	55 aa       	bsr	.-86 (0x2f2)
     348:	fb 60       	mov.b	#0x60,r3l
     34a:	86 b1       	add.b	#0xb1,r6h
     34c:	bb cc       	subx	#0xcc,r3l
     34e:	3e 5a       	mov.b	r6l,@0x5a:8
     350:	cb 59       	or.b	#0x59,r3l
     352:	5f b0       	jsr	@@176 (0xb0)
     354:	9c a9       	addx	#0xa9,r4l
     356:	a0 51       	cmp.b	#0x51,r0h
     358:	0b f5       	inc.l	#2,er5
     35a:	16 eb       	and.b	r6l,r3l
     35c:	7a 75       	.word	H'7a,H'75
     35e:	2c d7       	mov.b	@0xd7:8,r4l
     360:	4f ae       	ble	.-82 (0x310)
     362:	d5 e9       	xor.b	#0xe9,r5h
     364:	e6 e7       	and.b	#0xe7,r6h
     366:	ad e8       	cmp.b	#0xe8,r5l
     368:	74 d6       	bior	#0x5,r6h
     36a:	f4 ea       	mov.b	#0xea,r4h
     36c:	a8 50       	cmp.b	#0x50,r0l
     36e:	58 af       	.word	H'58,H'af
     370:	d2 cf       	xor.b	#0xcf,r2h
     372:	e6 e5       	and.b	#0xe5,r6h
     374:	b4 ab       	subx	#0xab,r4h
     376:	fd 60       	mov.b	#0x60,r5l
     378:	ed e8       	and.b	#0xe8,r5l
     37a:	be d3       	subx	#0xd3,r6l
     37c:	c3 21       	or.b	#0x21,r3h
     37e:	a9 42       	cmp.b	#0x42,r1l
     380:	36 52       	mov.b	r6h,@0x52:8
     382:	3e 12       	mov.b	r6l,@0x12:8
     384:	00 b4       	.word	H'0,H'b4
     386:	f3 21       	mov.b	#0x21,r3h
     388:	c7 fa       	or.b	#0xfa,r7h
     38a:	95 52       	addx	#0x52,r5h
     38c:	fe d9       	mov.b	#0xd9,r6l
     38e:	dc ed       	xor.b	#0xed,r4l
     390:	f1 af       	mov.b	#0xaf,r1h
     392:	19 cd       	sub.w	e4,e5
     394:	88 58       	add.b	#0x58,r0l
     396:	1a 21       	sub.w	#0x2,r1
     398:	e0 34       	and.b	#0x34,r0h
     39a:	72 9d       	.word	H'72,H'9d
     39c:	0a 25       	add.w	#0x2,r5
     39e:	6f b0 e2 7f 	mov.w	r0,@(0xe27f:16,r3)
     3a2:	23 9c       	mov.b	@0x9c:8,r3h
     3a4:	3f b0       	mov.b	r7l,@0xb0:8
     3a6:	6f 1d 58 68 	mov.w	@(0x5868:16,r1),e5
     3aa:	60 f5       	bset	r7l,r5h
     3ac:	75 95       	bixor	#0x1,r5h
     3ae:	24 53       	mov.b	@0x53:8,r4h
     3b0:	6c 23       	mov.b	@r2+,r3h
     3b2:	c1 35       	or.b	#0x35,r1h
     3b4:	36 26       	mov.b	r6h,@0x26:8
     3b6:	63 6f       	btst	r6h,r7l
     3b8:	a4 af       	cmp.b	#0xaf,r4h
     3ba:	c1 3e       	or.b	#0x3e,r1h
     3bc:	ab 10       	cmp.b	#0x10,r3l
     3be:	a3 e5       	cmp.b	#0xe5,r3h
     3c0:	69 d9       	mov.w	e1,@r5
     3c2:	35 24       	mov.b	r5h,@0x24:8
     3c4:	cb b8       	or.b	#0xb8,r3l
     3c6:	97 8b       	addx	#0x8b,r7h
     3c8:	85 ca       	add.b	#0xca,r5h
     3ca:	bb 66       	subx	#0x66,r3l
     3cc:	04 af       	orc	#0xaf,ccr
     3ce:	83 85       	add.b	#0x85,r3h
     3d0:	77 8b       	bild	#0x0,r3l
     3d2:	07 0f       	ldc	#0xf,ccr
     3d4:	90 00       	addx	#0x0,r0h
     3d6:	37 29       	mov.b	r7h,@0x29:8
     3d8:	66 47       	and.w	r4,r7
     3da:	4c 7b       	.word	H'4c,H'7b
     3dc:	41 31       	.word	H'41,H'31
     3de:	45 fc       	bcs	.-4 (0x3dc)
     3e0:	00 d2       	.word	H'0,H'd2
     3e2:	dd 44       	xor.b	#0x44,r5l
     3e4:	0a f2       	add.l	er7,er2
     3e6:	15 3d       	xor.b	r3h,r5l
     3e8:	b3 98       	subx	#0x98,r3h
     3ea:	f5 d5       	mov.b	#0xd5,r5h
     3ec:	f5 bf       	mov.b	#0xbf,r5h
     3ee:	3b 8d       	mov.b	r3l,@0x8d:8
     3f0:	ed 6e       	and.b	#0x6e,r5l
     3f2:	fc 62       	mov.b	#0x62,r4l
     3f4:	79 3a 3b be 	sub.w	#0x3bbe,e2
     3f8:	ba 25       	subx	#0x25,r2l
     3fa:	dd 9c       	xor.b	#0x9c,r5l
     3fc:	94 af       	addx	#0xaf,r4h
     3fe:	2a 00       	mov.b	@0x0:8,r2l
     400:	ff ff       	mov.b	#0xff,r7l
     402:	ff ff       	mov.b	#0xff,r7l
     404:	ff ff       	mov.b	#0xff,r7l
     406:	ff ff       	mov.b	#0xff,r7l
     408:	ff ff       	mov.b	#0xff,r7l
     40a:	ff ff       	mov.b	#0xff,r7l
     40c:	ff ff       	mov.b	#0xff,r7l
     40e:	ff ff       	mov.b	#0xff,r7l
     410:	ff ff       	mov.b	#0xff,r7l
     412:	ff ff       	mov.b	#0xff,r7l
     414:	ff ff       	mov.b	#0xff,r7l
     416:	ff ff       	mov.b	#0xff,r7l
     418:	ff ff       	mov.b	#0xff,r7l
     41a:	ff ff       	mov.b	#0xff,r7l
     41c:	ff ff       	mov.b	#0xff,r7l
     41e:	ff ff       	mov.b	#0xff,r7l
	...
     438:	fb ac       	mov.b	#0xac,r3l
     43a:	fb 10       	mov.b	#0x10,r3l
     43c:	00 00       	nop	
     43e:	00 00       	nop	
     440:	fb 4c       	mov.b	#0x4c,r3l
     442:	fb 58       	mov.b	#0x58,r3l
     444:	fb 64       	mov.b	#0x64,r3l
     446:	fb 70       	mov.b	#0x70,r3l
	...
     450:	fb 7c       	mov.b	#0x7c,r3l
     452:	fb 88       	mov.b	#0x88,r3l
     454:	00 00       	nop	
     456:	00 00       	nop	
     458:	fb 94       	mov.b	#0x94,r3l
     45a:	fb a0       	mov.b	#0xa0,r3l
     45c:	00 00       	nop	
     45e:	00 00       	nop	
     460:	fb 1c       	mov.b	#0x1c,r3l
     462:	fb 28       	mov.b	#0x28,r3l
     464:	fb 34       	mov.b	#0x34,r3l
     466:	fb 40       	mov.b	#0x40,r3l
	...
     470:	fb 1c       	mov.b	#0x1c,r3l
     472:	fb 28       	mov.b	#0x28,r3l
     474:	00 00       	nop	
     476:	00 00       	nop	
     478:	fb 34       	mov.b	#0x34,r3l
     47a:	fb 40       	mov.b	#0x40,r3l
     47c:	00 00       	nop	
     47e:	00 00       	nop	
     480:	fb 34       	mov.b	#0x34,r3l
     482:	fb 40       	mov.b	#0x40,r3l
     484:	00 00       	nop	
     486:	00 00       	nop	
     488:	fb 1c       	mov.b	#0x1c,r3l
     48a:	fb 28       	mov.b	#0x28,r3l
     48c:	00 00       	nop	
     48e:	00 00       	nop	
     490:	fa f8       	mov.b	#0xf8,r2l
     492:	fb 04       	mov.b	#0x4,r3l
     494:	fa e0       	mov.b	#0xe0,r2l
     496:	fa ec       	mov.b	#0xec,r2l
	...
     4a0:	00 00       	nop	
     4a2:	fb b8       	mov.b	#0xb8,r3l
     4a4:	fb c4       	mov.b	#0xc4,r3l
     4a6:	00 00       	nop	
     4a8:	00 00       	nop	
     4aa:	fb d0       	mov.b	#0xd0,r3l
     4ac:	fb d0       	mov.b	#0xd0,r3l
     4ae:	00 00       	nop	
     4b0:	00 00       	nop	
     4b2:	fb e8       	mov.b	#0xe8,r3l
     4b4:	fb f4       	mov.b	#0xf4,r3l
     4b6:	30 30       	mov.b	r0h,@0x30:8
     4b8:	31 31       	mov.b	r1h,@0x31:8
     4ba:	32 32       	mov.b	r2h,@0x32:8
     4bc:	33 33       	mov.b	r3h,@0x33:8
     4be:	34 34       	mov.b	r4h,@0x34:8
     4c0:	35 35       	mov.b	r5h,@0x35:8
     4c2:	36 36       	mov.b	r6h,@0x36:8
     4c4:	37 37       	mov.b	r7h,@0x37:8
     4c6:	38 38       	mov.b	r0l,@0x38:8
     4c8:	39 39       	mov.b	r1l,@0x39:8
     4ca:	41 61       	.word	H'41,H'61
     4cc:	42 62       	bhi	.+98 (0x530)
     4ce:	43 63       	.word	H'43,H'63
     4d0:	44 64       	bcc	.+100 (0x536)
     4d2:	45 65       	.word	H'45,H'65
     4d4:	46 66       	bne	.+102 (0x53c)
     4d6:	00 30       	.word	H'0,H'30
     4d8:	78 00       	.word	H'78,H'0
     4da:	48 27       	.word	H'48,H'27
     4dc:	00 68       	.word	H'0,H'68
     4de:	27 00       	mov.b	@0x0:8,r7h
     4e0:	00 00       	nop	
     4e2:	00 00       	nop	
     4e4:	77 07       	bld	#0x0,r7h
     4e6:	30 96       	mov.b	r0h,@0x96:8
     4e8:	ee 0e       	and.b	#0xe,r6l
     4ea:	61 2c       	bnot	r2h,r4l
     4ec:	99 09       	addx	#0x9,r1l
     4ee:	51 ba       	divxu.b	r3l,e2
     4f0:	07 6d       	ldc	#0x6d,ccr
     4f2:	c4 19       	or.b	#0x19,r4h
     4f4:	70 6a       	bset	#0x6,r2l
     4f6:	f4 8f       	mov.b	#0x8f,r4h
     4f8:	e9 63       	and.b	#0x63,r1l
     4fa:	a5 35       	cmp.b	#0x35,r5h
     4fc:	9e 64       	addx	#0x64,r6l
     4fe:	95 a3       	addx	#0xa3,r5h
     500:	0e db       	addx	r5l,r3l
     502:	88 32       	add.b	#0x32,r0l
     504:	79 dc       	.word	H'79,H'dc
     506:	b8 a4       	subx	#0xa4,r0l
     508:	e0 d5       	and.b	#0xd5,r0h
     50a:	e9 1e       	and.b	#0x1e,r1l
     50c:	97 d2       	addx	#0xd2,r7h
     50e:	d9 88       	xor.b	#0x88,r1l
     510:	09 b6       	add.w	e3,r6
     512:	4c 2b       	.word	H'4c,H'2b
     514:	7e b1       	.word	H'7e,H'b1
     516:	7c bd       	.word	H'7c,H'bd
     518:	e7 b8       	and.b	#0xb8,r7h
     51a:	2d 07       	mov.b	@0x7:8,r5l
     51c:	90 bf       	addx	#0xbf,r0h
     51e:	1d 91       	cmp.w	e1,r1
     520:	1d b7       	cmp.w	e3,r7
     522:	10 64       	shll.w	#8,r4
     524:	6a b0       	.word	H'6a,H'b0
     526:	20 f2       	mov.b	@0xf2:8,r0h
     528:	f3 b9       	mov.b	#0xb9,r3h
     52a:	71 48       	bnot	#0x4,r0l
     52c:	84 be       	add.b	#0xbe,r4h
     52e:	41 de       	brn	.-34 (0x50e)
     530:	1a da       	sub.l	#0x5,er2
     532:	d4 7d       	xor.b	#0x7d,r4h
     534:	6d dd       	mov.w	e5,@-r5
     536:	e4 eb       	and.b	#0xeb,r4h
     538:	f4 d4       	mov.b	#0xd4,r4h
     53a:	b5 51       	subx	#0x51,r5h
     53c:	83 d3       	add.b	#0xd3,r3h
     53e:	85 c7       	add.b	#0xc7,r5h
     540:	13 6c       	.word	H'13,H'6c
     542:	98 56       	addx	#0x56,r0l
     544:	64 6b       	or.w	r6,e3
     546:	a8 c0       	cmp.b	#0xc0,r0l
     548:	fd 62       	mov.b	#0x62,r5l
     54a:	f9 7a       	mov.b	#0x7a,r1l
     54c:	8a 65       	add.b	#0x65,r2l
     54e:	c9 ec       	or.b	#0xec,r1l
     550:	14 01       	or.b	r0h,r1h
     552:	5c 4f       	.word	H'5c,H'4f
     554:	63 06       	btst	r0h,r6h
     556:	6c d9       	mov.b	r1l,@-r5
     558:	fa 0f       	mov.b	#0xf,r2l
     55a:	3d 63       	mov.b	r5l,@0x63:8
     55c:	8d 08       	add.b	#0x8,r5l
     55e:	0d f5       	mov.w	e7,r5
     560:	3b 6e       	mov.b	r3l,@0x6e:8
     562:	20 c8       	mov.b	@0xc8:8,r0h
     564:	4c 69       	.word	H'4c,H'69
     566:	10 5e       	shll.w	#2,e6
     568:	d5 60       	xor.b	#0x60,r5h
     56a:	41 e4       	brn	.-28 (0x550)
     56c:	a2 67       	cmp.b	#0x67,r2h
     56e:	71 72       	bnot	#0x7,r2h
     570:	3c 03       	mov.b	r4l,@0x3:8
     572:	e4 d1       	and.b	#0xd1,r4h
     574:	4b 04       	bmi	.+4 (0x57a)
     576:	d4 47       	xor.b	#0x47,r4h
     578:	d2 0d       	xor.b	#0xd,r2h
     57a:	85 fd       	add.b	#0xfd,r5h
     57c:	a5 0a       	cmp.b	#0xa,r5h
     57e:	b5 6b       	subx	#0x6b,r5h
     580:	35 b5       	mov.b	r5h,@0xb5:8
     582:	a8 fa       	cmp.b	#0xfa,r0l
     584:	42 b2       	bhi	.-78 (0x538)
     586:	98 6c       	addx	#0x6c,r0l
     588:	db bb       	xor.b	#0xbb,r3l
     58a:	c9 d6       	or.b	#0xd6,r1l
     58c:	ac bc       	cmp.b	#0xbc,r4l
     58e:	f9 40       	mov.b	#0x40,r1l
     590:	32 d8       	mov.b	r2h,@0xd8:8
     592:	6c e3       	mov.b	r3h,@-r6
     594:	45 df       	.word	H'45,H'df
     596:	5c 75       	.word	H'5c,H'75
     598:	dc d6       	xor.b	#0xd6,r4l
     59a:	0d cf       	mov.w	e4,e7
     59c:	ab d1       	cmp.b	#0xd1,r3l
     59e:	3d 59       	mov.b	r5l,@0x59:8
     5a0:	26 d9       	mov.b	@0xd9:8,r6h
     5a2:	30 ac       	mov.b	r0h,@0xac:8
     5a4:	51 de       	divxu.b	r5l,e6
     5a6:	00 3a       	.word	H'0,H'3a
     5a8:	c8 d7       	or.b	#0xd7,r0l
     5aa:	51 80       	divxu.b	r0l,r0
     5ac:	bf d0       	subx	#0xd0,r7l
     5ae:	61 16       	bnot	r1h,r6h
     5b0:	21 b4       	mov.b	@0xb4:8,r1h
     5b2:	f4 b5       	mov.b	#0xb5,r4h
     5b4:	56 b3       	.word	H'56,H'b3
     5b6:	c4 23       	or.b	#0x23,r4h
     5b8:	cf ba       	or.b	#0xba,r7l
     5ba:	95 99       	addx	#0x99,r5h
     5bc:	b8 bd       	subx	#0xbd,r0l
     5be:	a5 0f       	cmp.b	#0xf,r5h
     5c0:	28 02       	mov.b	@0x2:8,r0l
     5c2:	b8 9e       	subx	#0x9e,r0l
     5c4:	5f 05       	jsr	@@5 (0x5)
     5c6:	88 08       	add.b	#0x8,r0l
     5c8:	c6 0c       	or.b	#0xc,r6h
     5ca:	d9 b2       	xor.b	#0xb2,r1l
     5cc:	b1 0b       	subx	#0xb,r1h
     5ce:	e9 24       	and.b	#0x24,r1l
     5d0:	2f 6f       	mov.b	@0x6f:8,r7l
     5d2:	7c 87       	.word	H'7c,H'87
     5d4:	58 68       	.word	H'58,H'68
     5d6:	4c 11       	.word	H'4c,H'11
     5d8:	c1 61       	or.b	#0x61,r1h
     5da:	1d ab       	cmp.w	e2,e3
     5dc:	b6 66       	subx	#0x66,r6h
     5de:	2d 3d       	mov.b	@0x3d:8,r5l
     5e0:	76 dc       	biand	#0x5,r4l
     5e2:	41 90       	brn	.-112 (0x574)
     5e4:	01 db       	.word	H'1,H'db
     5e6:	71 06       	bnot	#0x0,r6h
     5e8:	98 d2       	addx	#0xd2,r0l
     5ea:	20 bc       	mov.b	@0xbc:8,r0h
     5ec:	ef d5       	and.b	#0xd5,r7l
     5ee:	10 2a       	shll.w	#4,e2
     5f0:	71 b1       	.word	H'71,H'b1
     5f2:	85 89       	add.b	#0x89,r5h
     5f4:	06 b6       	andc	#0xb6,ccr
     5f6:	b5 1f       	subx	#0x1f,r5h
     5f8:	9f bf       	addx	#0xbf,r7l
     5fa:	e4 a5       	and.b	#0xa5,r4h
     5fc:	e8 b8       	and.b	#0xb8,r0l
     5fe:	d4 33       	xor.b	#0x33,r4h
     600:	78 07       	.word	H'78,H'7
     602:	c9 a2       	or.b	#0xa2,r1l
     604:	0f 00       	daa	r0h
     606:	f9 34       	mov.b	#0x34,r1l
     608:	96 09       	addx	#0x9,r6h
     60a:	a8 8e       	cmp.b	#0x8e,r0l
     60c:	e1 0e       	and.b	#0xe,r1h
     60e:	98 18       	addx	#0x18,r0l
     610:	7f 6a       	.word	H'7f,H'6a
     612:	0d bb       	mov.w	e3,e3
     614:	08 6d       	add.b	r6h,r5l
     616:	3d 2d       	mov.b	r5l,@0x2d:8
     618:	91 64       	addx	#0x64,r1h
     61a:	6c 97       	mov.b	r7h,@-r1
     61c:	e6 63       	and.b	#0x63,r6h
     61e:	5c 01       	.word	H'5c,H'1
     620:	6b 6b       	.word	H'6b,H'6b
     622:	51 f4       	divxu.b	r7l,r4
     624:	1c 6c       	cmp.b	r6h,r4l
     626:	61 62       	bnot	r6h,r2h
     628:	85 65       	add.b	#0x65,r5h
     62a:	30 d8       	mov.b	r0h,@0xd8:8
     62c:	f2 62       	mov.b	#0x62,r2h
     62e:	00 4e       	.word	H'0,H'4e
     630:	6c 06       	mov.b	@r0+,r6h
     632:	95 ed       	addx	#0xed,r5h
     634:	1b 01       	subs	#1,r1
     636:	a5 7b       	cmp.b	#0x7b,r5h
     638:	82 08       	add.b	#0x8,r2h
     63a:	f4 c1       	mov.b	#0xc1,r4h
     63c:	f5 0f       	mov.b	#0xf,r5h
     63e:	c4 57       	or.b	#0x57,r4h
     640:	65 b0       	xor.w	e3,r0
     642:	d9 c6       	xor.b	#0xc6,r1l
     644:	12 b7       	rotl.l	er7
     646:	e9 50       	and.b	#0x50,r1l
     648:	8b be       	add.b	#0xbe,r3l
     64a:	b8 ea       	subx	#0xea,r0l
     64c:	fc b9       	mov.b	#0xb9,r4l
     64e:	88 7c       	add.b	#0x7c,r0l
     650:	62 dd       	bclr	r5l,r5l
     652:	1d df       	cmp.w	e5,e7
     654:	15 da       	xor.b	r5l,r2l
     656:	2d 49       	mov.b	@0x49:8,r5l
     658:	8c d3       	add.b	#0xd3,r4l
     65a:	7c f3       	.word	H'7c,H'f3
     65c:	fb d4       	mov.b	#0xd4,r3l
     65e:	4c 65       	.word	H'4c,H'65
     660:	4d b2       	blt	.-78 (0x614)
     662:	61 58       	bnot	r5h,r0l
     664:	3a b5       	mov.b	r2l,@0xb5:8
     666:	51 ce       	divxu.b	r4l,e6
     668:	a3 bc       	cmp.b	#0xbc,r3h
     66a:	00 74       	.word	H'0,H'74
     66c:	d4 bb       	xor.b	#0xbb,r4h
     66e:	30 e2       	mov.b	r0h,@0xe2:8
     670:	4a df       	.word	H'4a,H'df
     672:	a5 41       	cmp.b	#0x41,r5h
     674:	3d d8       	mov.b	r5l,@0xd8:8
     676:	95 d7       	addx	#0xd7,r5h
     678:	a4 d1       	cmp.b	#0xd1,r4h
     67a:	c4 6d       	or.b	#0x6d,r4h
     67c:	d3 d6       	xor.b	#0xd6,r3h
     67e:	f4 fb       	mov.b	#0xfb,r4h
     680:	43 69       	.word	H'43,H'69
     682:	e9 6a       	and.b	#0x6a,r1l
     684:	34 6e       	mov.b	r4h,@0x6e:8
     686:	d9 fc       	xor.b	#0xfc,r1l
     688:	ad 67       	cmp.b	#0x67,r5l
     68a:	88 46       	add.b	#0x46,r0l
     68c:	da 60       	xor.b	#0x60,r2l
     68e:	b8 d0       	subx	#0xd0,r0l
     690:	44 04       	bcc	.+4 (0x696)
     692:	2d 73       	mov.b	@0x73:8,r5l
     694:	33 03       	mov.b	r3h,@0x3:8
     696:	1d e5       	cmp.w	e6,r5
     698:	aa 0a       	cmp.b	#0xa,r2l
     69a:	4c 5f       	.word	H'4c,H'5f
     69c:	dd 0d       	xor.b	#0xd,r5l
     69e:	7c c9       	.word	H'7c,H'c9
     6a0:	50 05       	mulxu.b	r0h,r5
     6a2:	71 3c       	bnot	#0x3,r4l
     6a4:	27 02       	mov.b	@0x2:8,r7h
     6a6:	41 aa       	brn	.-86 (0x652)
     6a8:	be 0b       	subx	#0xb,r6l
     6aa:	10 10       	shll.w	r0
     6ac:	c9 0c       	or.b	#0xc,r1l
     6ae:	20 86       	mov.b	@0x86:8,r0h
     6b0:	57 68       	.word	H'57,H'68
     6b2:	b5 25       	subx	#0x25,r5h
     6b4:	20 6f       	mov.b	@0x6f:8,r0h
     6b6:	85 b3       	add.b	#0xb3,r5h
     6b8:	b9 66       	subx	#0x66,r1l
     6ba:	d4 09       	xor.b	#0x9,r4h
     6bc:	ce 61       	or.b	#0x61,r6l
     6be:	e4 9f       	and.b	#0x9f,r4h
     6c0:	5e de f9 0e 	jsr	@0xdef90e:24
     6c4:	29 d9       	mov.b	@0xd9:8,r1l
     6c6:	c9 98       	or.b	#0x98,r1l
     6c8:	b0 d0       	subx	#0xd0,r0h
     6ca:	98 22       	addx	#0x22,r0l
     6cc:	c7 d7       	or.b	#0xd7,r7h
     6ce:	a8 b4       	cmp.b	#0xb4,r0l
     6d0:	59 b3       	jmp	@@716 (0x2cc)
     6d2:	3d 17       	mov.b	r5l,@0x17:8
     6d4:	2e b4       	mov.b	@0xb4:8,r6l
     6d6:	0d 81       	mov.w	e0,r1
     6d8:	b7 bd       	subx	#0xbd,r7h
     6da:	5c 3b       	.word	H'5c,H'3b
     6dc:	c0 ba       	or.b	#0xba,r0h
     6de:	6c ad       	mov.b	r5l,@-r2
     6e0:	ed b8       	and.b	#0xb8,r5l
     6e2:	83 20       	add.b	#0x20,r3h
     6e4:	9a bf       	addx	#0xbf,r2l
     6e6:	b3 b6       	subx	#0xb6,r3h
     6e8:	03 b6       	ldmac	er6,macl
     6ea:	e2 0c       	and.b	#0xc,r2h
     6ec:	74 b1       	bior	#0x3,r1h
     6ee:	d2 9a       	xor.b	#0x9a,r2h
     6f0:	ea d5       	and.b	#0xd5,r2l
     6f2:	47 39       	.word	H'47,H'39
     6f4:	9d d2       	addx	#0xd2,r5l
     6f6:	77 af       	bild	#0x2,r7l
     6f8:	04 db       	orc	#0xdb,ccr
     6fa:	26 15       	mov.b	@0x15:8,r6h
     6fc:	73 dc       	.word	H'73,H'dc
     6fe:	16 83       	and.b	r0l,r3h
     700:	e3 63       	and.b	#0x63,r3h
     702:	0b 12       	.word	H'b,H'12
     704:	94 64       	addx	#0x64,r4h
     706:	3b 84       	mov.b	r3l,@0x84:8
     708:	0d 6d       	mov.w	r6,e5
     70a:	6a 3e       	.word	H'6a,H'3e
     70c:	7a 6a 5a a8 	and.l	#0x5aa8,er2
     710:	e4 0e       	and.b	#0xe,r4h
     712:	cf 0b       	or.b	#0xb,r7l
     714:	93 09       	addx	#0x9,r3h
     716:	ff 9d       	mov.b	#0x9d,r7l
     718:	0a 00       	inc	r0h
     71a:	ae 27       	cmp.b	#0x27,r6l
     71c:	7d 07       	.word	H'7d,H'7
     71e:	9e b1       	addx	#0xb1,r6l
     720:	f0 0f       	mov.b	#0xf,r0h
     722:	93 44       	addx	#0x44,r3h
     724:	87 08       	add.b	#0x8,r7h
     726:	a3 d2       	cmp.b	#0xd2,r3h
     728:	1e 01       	subx	r0h,r1h
     72a:	f2 68       	mov.b	#0x68,r2h
     72c:	69 06       	mov.w	@r0,r6
     72e:	c2 fe       	or.b	#0xfe,r2h
     730:	f7 62       	mov.b	#0x62,r7h
     732:	57 5d       	.word	H'57,H'5d
     734:	80 65       	add.b	#0x65,r0h
     736:	67 cb       	bist	#0x4,r3l
     738:	19 6c       	sub.w	r6,e4
     73a:	36 71       	mov.b	r6h,@0x71:8
     73c:	6e 6b 06 e7 	mov.b	@(0x6e7:16,r6),r3l
     740:	fe d4       	mov.b	#0xd4,r6l
     742:	1b 76       	dec.l	#1,er6
     744:	89 d3       	add.b	#0xd3,r1l
     746:	2b e0       	mov.b	@0xe0:8,r3l
     748:	10 da       	shal.w	#2,e2
     74a:	7a 5a 67 dd 	xor.l	#0x67dd,er2
     74e:	4a cc       	bpl	.-52 (0x71c)
     750:	f9 b9       	mov.b	#0xb9,r1l
     752:	df 6f       	xor.b	#0x6f,r7l
     754:	8e be       	add.b	#0xbe,r6l
     756:	ef f9       	and.b	#0xf9,r7l
     758:	17 b7       	neg.l	er7
     75a:	be 43       	subx	#0x43,r6l
     75c:	60 b0       	bset	r3l,r0h
     75e:	8e d5       	add.b	#0xd5,r6l
     760:	d6 d6       	xor.b	#0xd6,r6h
     762:	a3 e8       	cmp.b	#0xe8,r3h
     764:	a1 d1       	cmp.b	#0xd1,r1h
     766:	93 7e       	addx	#0x7e,r3h
     768:	38 d8       	mov.b	r0l,@0xd8:8
     76a:	c2 c4       	or.b	#0xc4,r2h
     76c:	4f df       	.word	H'4f,H'df
     76e:	f2 52       	mov.b	#0x52,r2h
     770:	d1 bb       	xor.b	#0xbb,r1h
     772:	67 f1       	bist	#0x7,r1h
     774:	a6 bc       	cmp.b	#0xbc,r6h
     776:	57 67       	.word	H'57,H'67
     778:	3f b5       	mov.b	r7l,@0xb5:8
     77a:	06 dd       	andc	#0xdd,ccr
     77c:	48 b2       	bvc	.-78 (0x730)
     77e:	36 4b       	mov.b	r6h,@0x4b:8
     780:	d8 0d       	xor.b	#0xd,r0l
     782:	2b da       	mov.b	@0xda:8,r3l
     784:	af 0a       	cmp.b	#0xa,r7l
     786:	1b 4c       	.word	H'1b,H'4c
     788:	36 03       	mov.b	r6h,@0x3:8
     78a:	4a f6       	bpl	.-10 (0x782)
     78c:	41 04       	brn	.+4 (0x792)
     78e:	7a 60 df 60 	and.l	#0xdf60efc3,er0
     792:	ef c3 
     794:	a8 67       	cmp.b	#0x67,r0l
     796:	df 55       	xor.b	#0x55,r7l
     798:	31 6e       	mov.b	r1h,@0x6e:8
     79a:	8e ef       	add.b	#0xef,r6l
     79c:	46 69       	.word	H'46,H'69
     79e:	be 79       	subx	#0x79,r6l
     7a0:	cb 61       	or.b	#0x61,r3l
     7a2:	b3 8c       	subx	#0x8c,r3h
     7a4:	bc 66       	subx	#0x66,r4l
     7a6:	83 1a       	add.b	#0x1a,r3h
     7a8:	25 6f       	mov.b	@0x6f:8,r5h
     7aa:	d2 a0       	xor.b	#0xa0,r2h
     7ac:	52 68       	.word	H'52,H'68
     7ae:	e2 36       	and.b	#0x36,r2h
     7b0:	cc 0c       	or.b	#0xc,r4l
     7b2:	77 95       	bild	#0x1,r5h
     7b4:	bb 0b       	subx	#0xb,r3l
     7b6:	47 03       	.word	H'47,H'3
     7b8:	22 02       	mov.b	@0x2:8,r2h
     7ba:	16 b9       	and.b	r3l,r1l
     7bc:	55 05       	bsr	.+5 (0x7c3)
     7be:	26 2f       	mov.b	@0x2f:8,r6h
     7c0:	c5 ba       	or.b	#0xba,r5h
     7c2:	3b be       	mov.b	r3l,@0xbe:8
     7c4:	b2 bd       	subx	#0xbd,r2h
     7c6:	0b 28       	.word	H'b,H'28
     7c8:	2b b4       	mov.b	@0xb4:8,r3l
     7ca:	5a 92 5c b3 	jmp	@0x925cb3:24
     7ce:	6a 04 c2 d7 	mov.b	@0xc2d7:16,r4h
     7d2:	ff a7       	mov.b	#0xa7,r7l
     7d4:	b5 d0       	subx	#0xd0,r5h
     7d6:	cf 31       	or.b	#0x31,r7l
     7d8:	2c d9       	mov.b	@0xd9:8,r4l
     7da:	9e 8b       	addx	#0x8b,r6l
     7dc:	5b de       	jmp	@@222 (0xde)
     7de:	ae 1d       	cmp.b	#0x1d,r6l
     7e0:	9b 64       	addx	#0x64,r3l
     7e2:	c2 b0       	or.b	#0xb0,r2h
     7e4:	ec 63       	and.b	#0x63,r4l
     7e6:	f2 26       	mov.b	#0x26,r2h
     7e8:	75 6a       	bxor	#0x6,r2l
     7ea:	a3 9c       	cmp.b	#0x9c,r3h
     7ec:	02 6d       	stc	vbr,er5
     7ee:	93 0a       	addx	#0xa,r3h
     7f0:	9c 09       	addx	#0x9,r4l
     7f2:	06 a9       	andc	#0xa9,ccr
     7f4:	eb 0e       	and.b	#0xe,r3l
     7f6:	36 3f       	mov.b	r6h,@0x3f:8
     7f8:	72 07       	bclr	#0x0,r7h
     7fa:	67 85       	bist	#0x0,r5h
     7fc:	05 00       	xorc	#0x0,ccr
     7fe:	57 13       	.word	H'57,H'13
     800:	95 bf       	addx	#0xbf,r5h
     802:	4a 82       	bpl	.-126 (0x786)
     804:	e2 b8       	and.b	#0xb8,r2h
     806:	7a 14 7b b1 	add.l	#0x7bb12bae,er4
     80a:	2b ae 
     80c:	0c b6       	mov.b	r3l,r6h
     80e:	1b 38       	.word	H'1b,H'38
     810:	92 d2       	addx	#0xd2,r2h
     812:	8e 9b       	add.b	#0x9b,r6l
     814:	e5 d5       	and.b	#0xd5,r5h
     816:	be 0d       	subx	#0xd,r6l
     818:	7c dc       	.word	H'7c,H'dc
     81a:	ef b7       	and.b	#0xb7,r7l
     81c:	0b db       	inc.w	#2,e3
     81e:	df 21       	xor.b	#0x21,r7l
     820:	86 d3       	add.b	#0xd3,r6h
     822:	d2 d4       	xor.b	#0xd4,r2h
     824:	f1 d4       	mov.b	#0xd4,r1h
     826:	e2 42       	and.b	#0x42,r2h
     828:	68 dd       	mov.b	r5l,@r5
     82a:	b3 f8       	subx	#0xf8,r3h
     82c:	1f da       	cmp.l	#0x5,er2
     82e:	83 6e       	add.b	#0x6e,r3h
     830:	81 be       	add.b	#0xbe,r1h
     832:	16 cd       	and.b	r4l,r5l
     834:	f6 b9       	mov.b	#0xb9,r6h
     836:	26 5b       	mov.b	@0x5b:8,r6h
     838:	6f b0 77 e1 	mov.w	r0,@(0x77e1:16,r3)
     83c:	18 b7       	sub.b	r3l,r7h
     83e:	47 77       	.word	H'47,H'77
     840:	88 08       	add.b	#0x8,r0l
     842:	5a e6 ff 0f 	jmp	@0xe6ff0f:24
     846:	6a 70       	.word	H'6a,H'70
     848:	66 06       	and.w	r0,r6
     84a:	3b ca       	mov.b	r3l,@0xca:8
     84c:	11 01       	shlr.b	r1h
     84e:	0b 5c       	inc.w	#1,e4
     850:	8f 65       	add.b	#0x65,r7l
     852:	9e ff       	addx	#0xff,r6l
     854:	f8 62       	mov.b	#0x62,r0l
     856:	ae 69       	cmp.b	#0x69,r6l
     858:	61 6b       	bnot	r6h,r3l
     85a:	ff d3       	mov.b	#0xd3,r7l
     85c:	16 6c       	and.b	r6h,r4l
     85e:	cf 45       	or.b	#0x45,r7l
     860:	a0 0a       	cmp.b	#0xa,r0h
     862:	e2 78       	and.b	#0x78,r2h
     864:	d7 0d       	xor.b	#0xd,r7h
     866:	d2 ee       	xor.b	#0xee,r2h
     868:	4e 04       	bgt	.+4 (0x86e)
     86a:	83 54       	add.b	#0x54,r3h
     86c:	39 03       	mov.b	r1l,@0x3:8
     86e:	b3 c2       	subx	#0xc2,r3h
     870:	a7 67       	cmp.b	#0x67,r7h
     872:	26 61       	mov.b	@0x61:8,r6h
     874:	d0 60       	xor.b	#0x60,r0h
     876:	16 f7       	and.b	r7l,r7h
     878:	49 69       	.word	H'49,H'69
     87a:	47 4d       	.word	H'47,H'4d
     87c:	3e 6e       	mov.b	r6l,@0x6e:8
     87e:	77 db       	bild	#0x5,r3l
     880:	ae d1       	cmp.b	#0xd1,r6l
     882:	6a 4a d9 d6 	movfpe	@0xd9d6:16,r2l
     886:	5a dc 40 df 	jmp	@0xdc40df:24
     88a:	0b 66       	.word	H'b,H'66
     88c:	37 d8       	mov.b	r7h,@0xd8:8
     88e:	3b f0       	mov.b	r3l,@0xf0:8
     890:	a9 bc       	cmp.b	#0xbc,r1l
     892:	ae 53       	cmp.b	#0x53,r6l
     894:	de bb       	xor.b	#0xbb,r6l
     896:	9e c5       	addx	#0xc5,r6l
     898:	47 b2       	beq	.-78 (0x84c)
     89a:	cf 7f       	or.b	#0x7f,r7l
     89c:	30 b5       	mov.b	r0h,@0xb5:8
     89e:	ff e9       	mov.b	#0xe9,r7l
     8a0:	bd bd       	subx	#0xbd,r5l
     8a2:	f2 1c       	mov.b	#0x1c,r2h
     8a4:	ca ba       	or.b	#0xba,r2l
     8a6:	c2 8a       	or.b	#0x8a,r2h
     8a8:	53 b3       	divxu.w	e3,er3
     8aa:	93 30       	addx	#0x30,r3h
     8ac:	24 b4       	mov.b	@0xb4:8,r4h
     8ae:	a3 a6       	cmp.b	#0xa6,r3h
     8b0:	ba d0       	subx	#0xd0,r2l
     8b2:	36 05       	mov.b	r6h,@0x5:8
     8b4:	cd d7       	or.b	#0xd7,r5l
     8b6:	06 93       	andc	#0x93,ccr
     8b8:	54 de       	.word	H'54,H'de
     8ba:	57 29       	.word	H'57,H'29
     8bc:	23 d9       	mov.b	@0xd9:8,r3h
     8be:	67 bf       	bist	#0x3,r7l
     8c0:	b3 66       	subx	#0x66,r3h
     8c2:	7a 2e c4 61 	cmp.l	#0xc461,er6
     8c6:	4a b8       	bpl	.-72 (0x880)
     8c8:	5d 68       	jsr	@@928 (0x3a0)
     8ca:	1b 02       	subs	#1,r2
     8cc:	2a 6f       	mov.b	@0x6f:8,r2l
     8ce:	2b 94       	mov.b	@0x94:8,r3l
     8d0:	b4 0b       	subx	#0xb,r4h
     8d2:	be 37       	subx	#0x37,r6l
     8d4:	c3 0c       	or.b	#0xc,r3h
     8d6:	8e a1       	add.b	#0xa1,r6l
     8d8:	5a 05 df 1b 	jmp	@0x5df1b:24
     8dc:	2d 02       	mov.b	@0x2:8,r5l
     8de:	ef 8d       	and.b	#0x8d,r7l
     8e0:	00 00       	nop	
     8e2:	3a 42       	mov.b	r2l,@0x42:8
     8e4:	00 00       	nop	
     8e6:	3a 46       	mov.b	r2l,@0x46:8
     8e8:	00 00       	nop	
     8ea:	3a 4a       	mov.b	r2l,@0x4a:8
     8ec:	00 00       	nop	
     8ee:	3a 52       	mov.b	r2l,@0x52:8
     8f0:	00 00       	nop	
     8f2:	3a 62       	mov.b	r2l,@0x62:8
     8f4:	00 00       	nop	
     8f6:	3a 6a       	mov.b	r2l,@0x6a:8
     8f8:	00 00       	nop	
     8fa:	3a 6e       	mov.b	r2l,@0x6e:8
     8fc:	00 00       	nop	
     8fe:	3a 94       	mov.b	r2l,@0x94:8
     900:	00 00       	nop	
     902:	3a ea       	mov.b	r2l,@0xea:8
     904:	00 00       	nop	
     906:	3a f6       	mov.b	r2l,@0xf6:8
     908:	00 00       	nop	
     90a:	3b 02       	mov.b	r3l,@0x2:8
     90c:	00 00       	nop	
     90e:	3b 0e       	mov.b	r3l,@0xe:8
     910:	00 00       	nop	
     912:	3b 18       	mov.b	r3l,@0x18:8
     914:	00 00       	nop	
     916:	3b 22       	mov.b	r3l,@0x22:8
     918:	00 00       	nop	
     91a:	3b 46       	mov.b	r3l,@0x46:8
     91c:	00 00       	nop	
     91e:	3b 66       	mov.b	r3l,@0x66:8
     920:	00 00       	nop	
     922:	3b 7a       	mov.b	r3l,@0x7a:8
     924:	00 00       	nop	
     926:	3b 80       	mov.b	r3l,@0x80:8
     928:	00 00       	nop	
     92a:	3b 8a       	mov.b	r3l,@0x8a:8
     92c:	00 00       	nop	
     92e:	3b ae       	mov.b	r3l,@0xae:8
     930:	00 00       	nop	
     932:	c0 c1       	or.b	#0xc1,r0h
     934:	c1 81       	or.b	#0x81,r1h
     936:	01 40       	.word	H'1,H'40
     938:	c3 01       	or.b	#0x1,r3h
     93a:	03 c0       	.word	H'3,H'c0
     93c:	02 80       	.word	H'2,H'80
     93e:	c2 41       	or.b	#0x41,r2h
     940:	c6 01       	or.b	#0x1,r6h
     942:	06 c0       	andc	#0xc0,ccr
     944:	07 80       	ldc	#0x80,ccr
     946:	c7 41       	or.b	#0x41,r7h
     948:	05 00       	xorc	#0x0,ccr
     94a:	c5 c1       	or.b	#0xc1,r5h
     94c:	c4 81       	or.b	#0x81,r4h
     94e:	04 40       	orc	#0x40,ccr
     950:	cc 01       	or.b	#0x1,r4l
     952:	0c c0       	mov.b	r4l,r0h
     954:	0d 80       	mov.w	e0,r0
     956:	cd 41       	or.b	#0x41,r5l
     958:	0f 00       	daa	r0h
     95a:	cf c1       	or.b	#0xc1,r7l
     95c:	ce 81       	or.b	#0x81,r6l
     95e:	0e 40       	addx	r4h,r0h
     960:	0a 00       	inc	r0h
     962:	ca c1       	or.b	#0xc1,r2l
     964:	cb 81       	or.b	#0x81,r3l
     966:	0b 40       	.word	H'b,H'40
     968:	c9 01       	or.b	#0x1,r1l
     96a:	09 c0       	add.w	e4,r0
     96c:	08 80       	add.b	r0l,r0h
     96e:	c8 41       	or.b	#0x41,r0l
     970:	d8 01       	xor.b	#0x1,r0l
     972:	18 c0       	sub.b	r4l,r0h
     974:	19 80       	sub.w	e0,r0
     976:	d9 41       	xor.b	#0x41,r1l
     978:	1b 00       	subs	#1,r0
     97a:	db c1       	xor.b	#0xc1,r3l
     97c:	da 81       	xor.b	#0x81,r2l
     97e:	1a 40       	sub.w	#0x4,r0
     980:	1e 00       	subx	r0h,r0h
     982:	de c1       	xor.b	#0xc1,r6l
     984:	df 81       	xor.b	#0x81,r7l
     986:	1f 40       	cmp.w	#0x4,r0
     988:	dd 01       	xor.b	#0x1,r5l
     98a:	1d c0       	cmp.w	e4,r0
     98c:	1c 80       	cmp.b	r0l,r0h
     98e:	dc 41       	xor.b	#0x41,r4l
     990:	14 00       	or.b	r0h,r0h
     992:	d4 c1       	xor.b	#0xc1,r4h
     994:	d5 81       	xor.b	#0x81,r5h
     996:	15 40       	xor.b	r4h,r0h
     998:	d7 01       	xor.b	#0x1,r7h
     99a:	17 c0       	.word	H'17,H'c0
     99c:	16 80       	and.b	r0l,r0h
     99e:	d6 41       	xor.b	#0x41,r6h
     9a0:	d2 01       	xor.b	#0x1,r2h
     9a2:	12 c0       	rotl.b	#2,r0h
     9a4:	13 80       	rotr.b	r0h
     9a6:	d3 41       	xor.b	#0x41,r3h
     9a8:	11 00       	shlr.b	r0h
     9aa:	d1 c1       	xor.b	#0xc1,r1h
     9ac:	d0 81       	xor.b	#0x81,r0h
     9ae:	10 40       	shll.b	#2,r0h
     9b0:	f0 01       	mov.b	#0x1,r0h
     9b2:	30 c0       	mov.b	r0h,@0xc0:8
     9b4:	31 80       	mov.b	r1h,@0x80:8
     9b6:	f1 41       	mov.b	#0x41,r1h
     9b8:	33 00       	mov.b	r3h,@0x0:8
     9ba:	f3 c1       	mov.b	#0xc1,r3h
     9bc:	f2 81       	mov.b	#0x81,r2h
     9be:	32 40       	mov.b	r2h,@0x40:8
     9c0:	36 00       	mov.b	r6h,@0x0:8
     9c2:	f6 c1       	mov.b	#0xc1,r6h
     9c4:	f7 81       	mov.b	#0x81,r7h
     9c6:	37 40       	mov.b	r7h,@0x40:8
     9c8:	f5 01       	mov.b	#0x1,r5h
     9ca:	35 c0       	mov.b	r5h,@0xc0:8
     9cc:	34 80       	mov.b	r4h,@0x80:8
     9ce:	f4 41       	mov.b	#0x41,r4h
     9d0:	3c 00       	mov.b	r4l,@0x0:8
     9d2:	fc c1       	mov.b	#0xc1,r4l
     9d4:	fd 81       	mov.b	#0x81,r5l
     9d6:	3d 40       	mov.b	r5l,@0x40:8
     9d8:	ff 01       	mov.b	#0x1,r7l
     9da:	3f c0       	mov.b	r7l,@0xc0:8
     9dc:	3e 80       	mov.b	r6l,@0x80:8
     9de:	fe 41       	mov.b	#0x41,r6l
     9e0:	fa 01       	mov.b	#0x1,r2l
     9e2:	3a c0       	mov.b	r2l,@0xc0:8
     9e4:	3b 80       	mov.b	r3l,@0x80:8
     9e6:	fb 41       	mov.b	#0x41,r3l
     9e8:	39 00       	mov.b	r1l,@0x0:8
     9ea:	f9 c1       	mov.b	#0xc1,r1l
     9ec:	f8 81       	mov.b	#0x81,r0l
     9ee:	38 40       	mov.b	r0l,@0x40:8
     9f0:	28 00       	mov.b	@0x0:8,r0l
     9f2:	e8 c1       	and.b	#0xc1,r0l
     9f4:	e9 81       	and.b	#0x81,r1l
     9f6:	29 40       	mov.b	@0x40:8,r1l
     9f8:	eb 01       	and.b	#0x1,r3l
     9fa:	2b c0       	mov.b	@0xc0:8,r3l
     9fc:	2a 80       	mov.b	@0x80:8,r2l
     9fe:	ea 41       	and.b	#0x41,r2l
     a00:	ee 01       	and.b	#0x1,r6l
     a02:	2e c0       	mov.b	@0xc0:8,r6l
     a04:	2f 80       	mov.b	@0x80:8,r7l
     a06:	ef 41       	and.b	#0x41,r7l
     a08:	2d 00       	mov.b	@0x0:8,r5l
     a0a:	ed c1       	and.b	#0xc1,r5l
     a0c:	ec 81       	and.b	#0x81,r4l
     a0e:	2c 40       	mov.b	@0x40:8,r4l
     a10:	e4 01       	and.b	#0x1,r4h
     a12:	24 c0       	mov.b	@0xc0:8,r4h
     a14:	25 80       	mov.b	@0x80:8,r5h
     a16:	e5 41       	and.b	#0x41,r5h
     a18:	27 00       	mov.b	@0x0:8,r7h
     a1a:	e7 c1       	and.b	#0xc1,r7h
     a1c:	e6 81       	and.b	#0x81,r6h
     a1e:	26 40       	mov.b	@0x40:8,r6h
     a20:	22 00       	mov.b	@0x0:8,r2h
     a22:	e2 c1       	and.b	#0xc1,r2h
     a24:	e3 81       	and.b	#0x81,r3h
     a26:	23 40       	mov.b	@0x40:8,r3h
     a28:	e1 01       	and.b	#0x1,r1h
     a2a:	21 c0       	mov.b	@0xc0:8,r1h
     a2c:	20 80       	mov.b	@0x80:8,r0h
     a2e:	e0 41       	and.b	#0x41,r0h
     a30:	a0 01       	cmp.b	#0x1,r0h
     a32:	60 c0       	bset	r4l,r0h
     a34:	61 80       	bnot	r0l,r0h
     a36:	a1 41       	cmp.b	#0x41,r1h
     a38:	63 00       	btst	r0h,r0h
     a3a:	a3 c1       	cmp.b	#0xc1,r3h
     a3c:	a2 81       	cmp.b	#0x81,r2h
     a3e:	62 40       	bclr	r4h,r0h
     a40:	66 00       	and.w	r0,r0
     a42:	a6 c1       	cmp.b	#0xc1,r6h
     a44:	a7 81       	cmp.b	#0x81,r7h
     a46:	67 40       	bst	#0x4,r0h
     a48:	a5 01       	cmp.b	#0x1,r5h
     a4a:	65 c0       	xor.w	e4,r0
     a4c:	64 80       	or.w	e0,r0
     a4e:	a4 41       	cmp.b	#0x41,r4h
     a50:	6c 00       	mov.b	@r0+,r0h
     a52:	ac c1       	cmp.b	#0xc1,r4l
     a54:	ad 81       	cmp.b	#0x81,r5l
     a56:	6d 40       	mov.w	@r4+,r0
     a58:	af 01       	cmp.b	#0x1,r7l
     a5a:	6f c0 6e 80 	mov.w	r0,@(0x6e80:16,r4)
     a5e:	ae 41       	cmp.b	#0x41,r6l
     a60:	aa 01       	cmp.b	#0x1,r2l
     a62:	6a c0 6b 80 	movtpe	r0h,@0x6b80:16
     a66:	ab 41       	cmp.b	#0x41,r3l
     a68:	69 00       	mov.w	@r0,r0
     a6a:	a9 c1       	cmp.b	#0xc1,r1l
     a6c:	a8 81       	cmp.b	#0x81,r0l
     a6e:	68 40       	mov.b	@r4,r0h
     a70:	78 00       	.word	H'78,H'0
     a72:	b8 c1       	subx	#0xc1,r0l
     a74:	b9 81       	subx	#0x81,r1l
     a76:	79 40 bb 01 	or.w	#0xbb01,r0
     a7a:	7b c0       	.word	H'7b,H'c0
     a7c:	7a 80 ba 41 	mova/b.l	@(0xba41be01:32,r0l.b),er0
     a80:	be 01 
     a82:	7e c0       	.word	H'7e,H'c0
     a84:	7f 80       	.word	H'7f,H'80
     a86:	bf 41       	subx	#0x41,r7l
     a88:	7d 00       	.word	H'7d,H'0
     a8a:	bd c1       	subx	#0xc1,r5l
     a8c:	bc 81       	subx	#0x81,r4l
     a8e:	7c 40       	.word	H'7c,H'40
     a90:	b4 01       	subx	#0x1,r4h
     a92:	74 c0       	bior	#0x4,r0h
     a94:	75 80       	bixor	#0x0,r0h
     a96:	b5 41       	subx	#0x41,r5h
     a98:	77 00       	bld	#0x0,r0h
     a9a:	b7 c1       	subx	#0xc1,r7h
     a9c:	b6 81       	subx	#0x81,r6h
     a9e:	76 40       	band	#0x4,r0h
     aa0:	72 00       	bclr	#0x0,r0h
     aa2:	b2 c1       	subx	#0xc1,r2h
     aa4:	b3 81       	subx	#0x81,r3h
     aa6:	73 40       	btst	#0x4,r0h
     aa8:	b1 01       	subx	#0x1,r1h
     aaa:	71 c0       	.word	H'71,H'c0
     aac:	70 80       	.word	H'70,H'80
     aae:	b0 41       	subx	#0x41,r0h
     ab0:	50 00       	mulxu.b	r0h,r0
     ab2:	90 c1       	addx	#0xc1,r0h
     ab4:	91 81       	addx	#0x81,r1h
     ab6:	51 40       	divxu.b	r4h,r0
     ab8:	93 01       	addx	#0x1,r3h
     aba:	53 c0       	divxu.w	e4,er0
     abc:	52 80       	mulxu.w	e0,er0
     abe:	92 41       	addx	#0x41,r2h
     ac0:	96 01       	addx	#0x1,r6h
     ac2:	56 c0       	.word	H'56,H'c0
     ac4:	57 80       	trapa	#0x0
     ac6:	97 41       	addx	#0x41,r7h
     ac8:	55 00       	bsr	.0 (0xaca)
     aca:	95 c1       	addx	#0xc1,r5h
     acc:	94 81       	addx	#0x81,r4h
     ace:	54 40       	rts/l	er-4-er0
     ad0:	9c 01       	addx	#0x1,r4l
     ad2:	5c c0       	.word	H'5c,H'c0
     ad4:	5d 80       	jsr	@@512 (0x200)
     ad6:	9d 41       	addx	#0x41,r5l
     ad8:	5f 00       	jsr	@@0 (0x0)
     ada:	9f c1       	addx	#0xc1,r7l
     adc:	9e 81       	addx	#0x81,r6l
     ade:	5e 40 5a 00 	jsr	@0x405a00:24
     ae2:	9a c1       	addx	#0xc1,r2l
     ae4:	9b 81       	addx	#0x81,r3l
     ae6:	5b 40       	jmp	@@64 (0x40)
     ae8:	99 01       	addx	#0x1,r1l
     aea:	59 c0       	jmp	@@768 (0x300)
     aec:	58 80       	.word	H'58,H'80
     aee:	98 41       	addx	#0x41,r0l
     af0:	88 01       	add.b	#0x1,r0l
     af2:	48 c0       	bvc	.-64 (0xab4)
     af4:	49 80       	bvs	.-128 (0xa76)
     af6:	89 41       	add.b	#0x41,r1l
     af8:	4b 00       	bmi	.0 (0xafa)
     afa:	8b c1       	add.b	#0xc1,r3l
     afc:	8a 81       	add.b	#0x81,r2l
     afe:	4a 40       	bpl	.+64 (0xb40)
     b00:	4e 00       	bgt	.0 (0xb02)
     b02:	8e c1       	add.b	#0xc1,r6l
     b04:	8f 81       	add.b	#0x81,r7l
     b06:	4f 40       	ble	.+64 (0xb48)
     b08:	8d 01       	add.b	#0x1,r5l
     b0a:	4d c0       	blt	.-64 (0xacc)
     b0c:	4c 80       	bge	.-128 (0xa8e)
     b0e:	8c 41       	add.b	#0x41,r4l
     b10:	44 00       	bcc	.0 (0xb12)
     b12:	84 c1       	add.b	#0xc1,r4h
     b14:	85 81       	add.b	#0x81,r5h
     b16:	45 40       	bcs	.+64 (0xb58)
     b18:	87 01       	add.b	#0x1,r7h
     b1a:	47 c0       	beq	.-64 (0xadc)
     b1c:	46 80       	bne	.-128 (0xa9e)
     b1e:	86 41       	add.b	#0x41,r6h
     b20:	82 01       	add.b	#0x1,r2h
     b22:	42 c0       	bhi	.-64 (0xae4)
     b24:	43 80       	bls	.-128 (0xaa6)
     b26:	83 41       	add.b	#0x41,r3h
     b28:	41 00       	brn	.0 (0xb2a)
     b2a:	81 c1       	add.b	#0xc1,r1h
     b2c:	80 81       	add.b	#0x81,r0h
     b2e:	40 40       	bra	.+64 (0xb70)
     b30:	31 2e       	mov.b	r1h,@0x2e:8
     b32:	35 2e       	mov.b	r5h,@0x2e:8
     b34:	30 00       	mov.b	r0h,@0x0:8
     b36:	00 00       	nop	
     b38:	00 00       	nop	
     b3a:	0b 30       	.word	H'b,H'30
     b3c:	01 00 6b 02 	mov.l	@0xec00:16,er2
     b40:	ec 00 
     b42:	0b 02       	adds	#1,r2
     b44:	01 00 6b 82 	mov.l	er2,@0xec00:16
     b48:	ec 00 
     b4a:	54 70       	rts	
     b4c:	01 30 6d f0 	stm.l	er0-er3,@-sp
     b50:	01 20 6d f4 	stm.l	er4-er6,@-sp
     b54:	01 00 6b 02 	mov.l	@0xedf2:16,er2
     b58:	ed f2 
     b5a:	7a 22 12 34 	cmp.l	#0x1234eacd,er2
     b5e:	ea cd 
     b60:	46 18       	bne	.+24 (0xb7a)
     b62:	01 00 6b 02 	mov.l	@0xedf6:16,er2
     b66:	ed f6 
     b68:	7a 22 f3 7a 	cmp.l	#0xf37ad604,er2
     b6c:	d6 04 
     b6e:	46 0a       	bne	.+10 (0xb7a)
     b70:	01 00 6b 02 	mov.l	@0xec04:16,er2
     b74:	ec 04 
     b76:	5d 20       	jsr	@r2
     b78:	40 0e       	bra	.+14 (0xb88)
     b7a:	01 00 6b 02 	mov.l	@0xedfa:16,er2
     b7e:	ed fa 
     b80:	0b 02       	adds	#1,r2
     b82:	01 00 6b 82 	mov.l	er2,@0xedfa:16
     b86:	ed fa 
     b88:	01 20 6d 76 	ldm.l	@sp+,er4-er6
     b8c:	01 30 6d 73 	ldm.l	@sp+,er0-er3
     b90:	56 70       	rte	
     b92:	0c 88       	mov.b	r0l,r0l
     b94:	47 1a       	beq	.+26 (0xbb0)
     b96:	7a 02 12 34 	mov.l	#0x1234eacd,er2
     b9a:	ea cd 
     b9c:	01 00 6b 82 	mov.l	er2,@0xedf2:16
     ba0:	ed f2 
     ba2:	7a 02 f3 7a 	mov.l	#0xf37ad604,er2
     ba6:	d6 04 
     ba8:	01 00 6b 82 	mov.l	er2,@0xedf6:16
     bac:	ed f6 
     bae:	40 0e       	bra	.+14 (0xbbe)
     bb0:	1a a2       	sub.l	er2,er2
     bb2:	01 00 6b 82 	mov.l	er2,@0xedf6:16
     bb6:	ed f6 
     bb8:	01 00 6b 82 	mov.l	er2,@0xedf2:16
     bbc:	ed f2 
     bbe:	54 70       	rts	
     bc0:	01 30 6d f0 	stm.l	er0-er3,@-sp
     bc4:	01 20 6d f4 	stm.l	er4-er6,@-sp
     bc8:	01 00 6b 02 	mov.l	@0xec08:16,er2
     bcc:	ec 08 
     bce:	5d 20       	jsr	@r2
     bd0:	01 20 6d 76 	ldm.l	@sp+,er4-er6
     bd4:	01 30 6d 73 	ldm.l	@sp+,er0-er3
     bd8:	56 70       	rte	
     bda:	01 30 6d f0 	stm.l	er0-er3,@-sp
     bde:	01 20 6d f4 	stm.l	er4-er6,@-sp
     be2:	01 00 6b 02 	mov.l	@0xec0c:16,er2
     be6:	ec 0c 
     be8:	5d 20       	jsr	@r2
     bea:	01 20 6d 76 	ldm.l	@sp+,er4-er6
     bee:	01 30 6d 73 	ldm.l	@sp+,er0-er3
     bf2:	56 70       	rte	
     bf4:	01 30 6d f0 	stm.l	er0-er3,@-sp
     bf8:	01 20 6d f4 	stm.l	er4-er6,@-sp
     bfc:	01 00 6b 02 	mov.l	@0xec10:16,er2
     c00:	ec 10 
     c02:	5d 20       	jsr	@r2
     c04:	01 20 6d 76 	ldm.l	@sp+,er4-er6
     c08:	01 30 6d 73 	ldm.l	@sp+,er0-er3
     c0c:	56 70       	rte	
     c0e:	01 30 6d f0 	stm.l	er0-er3,@-sp
     c12:	01 20 6d f4 	stm.l	er4-er6,@-sp
     c16:	01 00 6b 02 	mov.l	@0xec14:16,er2
     c1a:	ec 14 
     c1c:	5d 20       	jsr	@r2
     c1e:	01 20 6d 76 	ldm.l	@sp+,er4-er6
     c22:	01 30 6d 73 	ldm.l	@sp+,er0-er3
     c26:	56 70       	rte	
     c28:	01 30 6d f0 	stm.l	er0-er3,@-sp
     c2c:	01 20 6d f4 	stm.l	er4-er6,@-sp
     c30:	01 00 6b 02 	mov.l	@0xec18:16,er2
     c34:	ec 18 
     c36:	5d 20       	jsr	@r2
     c38:	01 20 6d 76 	ldm.l	@sp+,er4-er6
     c3c:	01 30 6d 73 	ldm.l	@sp+,er0-er3
     c40:	56 70       	rte	
     c42:	01 30 6d f0 	stm.l	er0-er3,@-sp
     c46:	01 20 6d f4 	stm.l	er4-er6,@-sp
     c4a:	01 00 6b 02 	mov.l	@0xec1c:16,er2
     c4e:	ec 1c 
     c50:	5d 20       	jsr	@r2
     c52:	01 20 6d 76 	ldm.l	@sp+,er4-er6
     c56:	01 30 6d 73 	ldm.l	@sp+,er0-er3
     c5a:	56 70       	rte	
     c5c:	01 30 6d f0 	stm.l	er0-er3,@-sp
     c60:	01 20 6d f4 	stm.l	er4-er6,@-sp
     c64:	01 00 6b 02 	mov.l	@0xec20:16,er2
     c68:	ec 20 
     c6a:	5d 20       	jsr	@r2
     c6c:	01 20 6d 76 	ldm.l	@sp+,er4-er6
     c70:	01 30 6d 73 	ldm.l	@sp+,er0-er3
     c74:	56 70       	rte	
     c76:	01 30 6d f0 	stm.l	er0-er3,@-sp
     c7a:	01 20 6d f4 	stm.l	er4-er6,@-sp
     c7e:	01 00 6b 02 	mov.l	@0xec24:16,er2
     c82:	ec 24 
     c84:	5d 20       	jsr	@r2
     c86:	01 20 6d 76 	ldm.l	@sp+,er4-er6
     c8a:	01 30 6d 73 	ldm.l	@sp+,er0-er3
     c8e:	56 70       	rte	
     c90:	01 30 6d f0 	stm.l	er0-er3,@-sp
     c94:	01 20 6d f4 	stm.l	er4-er6,@-sp
     c98:	01 00 6b 02 	mov.l	@0xec28:16,er2
     c9c:	ec 28 
     c9e:	5d 20       	jsr	@r2
     ca0:	01 20 6d 76 	ldm.l	@sp+,er4-er6
     ca4:	01 30 6d 73 	ldm.l	@sp+,er0-er3
     ca8:	56 70       	rte	
     caa:	01 30 6d f0 	stm.l	er0-er3,@-sp
     cae:	01 20 6d f4 	stm.l	er4-er6,@-sp
     cb2:	01 00 6b 02 	mov.l	@0xec2c:16,er2
     cb6:	ec 2c 
     cb8:	5d 20       	jsr	@r2
     cba:	01 20 6d 76 	ldm.l	@sp+,er4-er6
     cbe:	01 30 6d 73 	ldm.l	@sp+,er0-er3
     cc2:	56 70       	rte	
     cc4:	01 30 6d f0 	stm.l	er0-er3,@-sp
     cc8:	01 20 6d f4 	stm.l	er4-er6,@-sp
     ccc:	01 00 6b 02 	mov.l	@0xec30:16,er2
     cd0:	ec 30 
     cd2:	5d 20       	jsr	@r2
     cd4:	01 20 6d 76 	ldm.l	@sp+,er4-er6
     cd8:	01 30 6d 73 	ldm.l	@sp+,er0-er3
     cdc:	56 70       	rte	
     cde:	01 30 6d f0 	stm.l	er0-er3,@-sp
     ce2:	01 20 6d f4 	stm.l	er4-er6,@-sp
     ce6:	01 00 6b 02 	mov.l	@0xec34:16,er2
     cea:	ec 34 
     cec:	5d 20       	jsr	@r2
     cee:	01 20 6d 76 	ldm.l	@sp+,er4-er6
     cf2:	01 30 6d 73 	ldm.l	@sp+,er0-er3
     cf6:	56 70       	rte	
     cf8:	01 30 6d f0 	stm.l	er0-er3,@-sp
     cfc:	01 20 6d f4 	stm.l	er4-er6,@-sp
     d00:	01 00 6b 02 	mov.l	@0xec38:16,er2
     d04:	ec 38 
     d06:	5d 20       	jsr	@r2
     d08:	01 20 6d 76 	ldm.l	@sp+,er4-er6
     d0c:	01 30 6d 73 	ldm.l	@sp+,er0-er3
     d10:	56 70       	rte	
     d12:	01 30 6d f0 	stm.l	er0-er3,@-sp
     d16:	01 20 6d f4 	stm.l	er4-er6,@-sp
     d1a:	01 00 6b 02 	mov.l	@0xec3c:16,er2
     d1e:	ec 3c 
     d20:	5d 20       	jsr	@r2
     d22:	01 20 6d 76 	ldm.l	@sp+,er4-er6
     d26:	01 30 6d 73 	ldm.l	@sp+,er0-er3
     d2a:	56 70       	rte	
     d2c:	01 30 6d f0 	stm.l	er0-er3,@-sp
     d30:	01 20 6d f4 	stm.l	er4-er6,@-sp
     d34:	01 00 6b 02 	mov.l	@0xec40:16,er2
     d38:	ec 40 
     d3a:	5d 20       	jsr	@r2
     d3c:	01 20 6d 76 	ldm.l	@sp+,er4-er6
     d40:	01 30 6d 73 	ldm.l	@sp+,er0-er3
     d44:	56 70       	rte	
     d46:	01 30 6d f0 	stm.l	er0-er3,@-sp
     d4a:	01 20 6d f4 	stm.l	er4-er6,@-sp
     d4e:	01 00 6b 02 	mov.l	@0xec44:16,er2
     d52:	ec 44 
     d54:	5d 20       	jsr	@r2
     d56:	01 20 6d 76 	ldm.l	@sp+,er4-er6
     d5a:	01 30 6d 73 	ldm.l	@sp+,er0-er3
     d5e:	56 70       	rte	
     d60:	01 30 6d f0 	stm.l	er0-er3,@-sp
     d64:	01 20 6d f4 	stm.l	er4-er6,@-sp
     d68:	01 00 6b 02 	mov.l	@0xec48:16,er2
     d6c:	ec 48 
     d6e:	5d 20       	jsr	@r2
     d70:	01 20 6d 76 	ldm.l	@sp+,er4-er6
     d74:	01 30 6d 73 	ldm.l	@sp+,er0-er3
     d78:	56 70       	rte	
     d7a:	01 30 6d f0 	stm.l	er0-er3,@-sp
     d7e:	01 20 6d f4 	stm.l	er4-er6,@-sp
     d82:	01 00 6b 02 	mov.l	@0xec4c:16,er2
     d86:	ec 4c 
     d88:	5d 20       	jsr	@r2
     d8a:	01 20 6d 76 	ldm.l	@sp+,er4-er6
     d8e:	01 30 6d 73 	ldm.l	@sp+,er0-er3
     d92:	56 70       	rte	
     d94:	01 30 6d f0 	stm.l	er0-er3,@-sp
     d98:	01 20 6d f4 	stm.l	er4-er6,@-sp
     d9c:	01 00 6b 02 	mov.l	@0xec50:16,er2
     da0:	ec 50 
     da2:	5d 20       	jsr	@r2
     da4:	01 20 6d 76 	ldm.l	@sp+,er4-er6
     da8:	01 30 6d 73 	ldm.l	@sp+,er0-er3
     dac:	56 70       	rte	
     dae:	01 30 6d f0 	stm.l	er0-er3,@-sp
     db2:	01 20 6d f4 	stm.l	er4-er6,@-sp
     db6:	01 00 6b 02 	mov.l	@0xec54:16,er2
     dba:	ec 54 
     dbc:	5d 20       	jsr	@r2
     dbe:	01 20 6d 76 	ldm.l	@sp+,er4-er6
     dc2:	01 30 6d 73 	ldm.l	@sp+,er0-er3
     dc6:	56 70       	rte	
     dc8:	01 30 6d f0 	stm.l	er0-er3,@-sp
     dcc:	01 20 6d f4 	stm.l	er4-er6,@-sp
     dd0:	01 00 6b 02 	mov.l	@0xec58:16,er2
     dd4:	ec 58 
     dd6:	5d 20       	jsr	@r2
     dd8:	01 20 6d 76 	ldm.l	@sp+,er4-er6
     ddc:	01 30 6d 73 	ldm.l	@sp+,er0-er3
     de0:	56 70       	rte	
     de2:	01 30 6d f0 	stm.l	er0-er3,@-sp
     de6:	01 20 6d f4 	stm.l	er4-er6,@-sp
     dea:	01 00 6b 02 	mov.l	@0xec5c:16,er2
     dee:	ec 5c 
     df0:	5d 20       	jsr	@r2
     df2:	01 20 6d 76 	ldm.l	@sp+,er4-er6
     df6:	01 30 6d 73 	ldm.l	@sp+,er0-er3
     dfa:	56 70       	rte	
     dfc:	01 30 6d f0 	stm.l	er0-er3,@-sp
     e00:	01 20 6d f4 	stm.l	er4-er6,@-sp
     e04:	01 00 6b 02 	mov.l	@0xec60:16,er2
     e08:	ec 60 
     e0a:	5d 20       	jsr	@r2
     e0c:	01 20 6d 76 	ldm.l	@sp+,er4-er6
     e10:	01 30 6d 73 	ldm.l	@sp+,er0-er3
     e14:	56 70       	rte	
     e16:	01 30 6d f0 	stm.l	er0-er3,@-sp
     e1a:	01 20 6d f4 	stm.l	er4-er6,@-sp
     e1e:	01 00 6b 02 	mov.l	@0xec64:16,er2
     e22:	ec 64 
     e24:	5d 20       	jsr	@r2
     e26:	01 20 6d 76 	ldm.l	@sp+,er4-er6
     e2a:	01 30 6d 73 	ldm.l	@sp+,er0-er3
     e2e:	56 70       	rte	
     e30:	01 30 6d f0 	stm.l	er0-er3,@-sp
     e34:	01 20 6d f4 	stm.l	er4-er6,@-sp
     e38:	01 00 6b 02 	mov.l	@0xec68:16,er2
     e3c:	ec 68 
     e3e:	5d 20       	jsr	@r2
     e40:	01 20 6d 76 	ldm.l	@sp+,er4-er6
     e44:	01 30 6d 73 	ldm.l	@sp+,er0-er3
     e48:	56 70       	rte	
     e4a:	01 30 6d f0 	stm.l	er0-er3,@-sp
     e4e:	01 20 6d f4 	stm.l	er4-er6,@-sp
     e52:	01 00 6b 02 	mov.l	@0xec6c:16,er2
     e56:	ec 6c 
     e58:	5d 20       	jsr	@r2
     e5a:	01 20 6d 76 	ldm.l	@sp+,er4-er6
     e5e:	01 30 6d 73 	ldm.l	@sp+,er0-er3
     e62:	56 70       	rte	
     e64:	01 30 6d f0 	stm.l	er0-er3,@-sp
     e68:	01 20 6d f4 	stm.l	er4-er6,@-sp
     e6c:	01 00 6b 02 	mov.l	@0xec70:16,er2
     e70:	ec 70 
     e72:	5d 20       	jsr	@r2
     e74:	01 20 6d 76 	ldm.l	@sp+,er4-er6
     e78:	01 30 6d 73 	ldm.l	@sp+,er0-er3
     e7c:	56 70       	rte	
     e7e:	01 30 6d f0 	stm.l	er0-er3,@-sp
     e82:	01 20 6d f4 	stm.l	er4-er6,@-sp
     e86:	01 00 6b 02 	mov.l	@0xec74:16,er2
     e8a:	ec 74 
     e8c:	5d 20       	jsr	@r2
     e8e:	01 20 6d 76 	ldm.l	@sp+,er4-er6
     e92:	01 30 6d 73 	ldm.l	@sp+,er0-er3
     e96:	56 70       	rte	
     e98:	01 30 6d f0 	stm.l	er0-er3,@-sp
     e9c:	01 20 6d f4 	stm.l	er4-er6,@-sp
     ea0:	01 00 6b 02 	mov.l	@0xec78:16,er2
     ea4:	ec 78 
     ea6:	5d 20       	jsr	@r2
     ea8:	01 20 6d 76 	ldm.l	@sp+,er4-er6
     eac:	01 30 6d 73 	ldm.l	@sp+,er0-er3
     eb0:	56 70       	rte	
     eb2:	01 30 6d f0 	stm.l	er0-er3,@-sp
     eb6:	01 20 6d f4 	stm.l	er4-er6,@-sp
     eba:	01 00 6b 02 	mov.l	@0xec7c:16,er2
     ebe:	ec 7c 
     ec0:	5d 20       	jsr	@r2
     ec2:	01 20 6d 76 	ldm.l	@sp+,er4-er6
     ec6:	01 30 6d 73 	ldm.l	@sp+,er0-er3
     eca:	56 70       	rte	
     ecc:	01 30 6d f0 	stm.l	er0-er3,@-sp
     ed0:	01 20 6d f4 	stm.l	er4-er6,@-sp
     ed4:	01 00 6b 02 	mov.l	@0xec80:16,er2
     ed8:	ec 80 
     eda:	5d 20       	jsr	@r2
     edc:	01 20 6d 76 	ldm.l	@sp+,er4-er6
     ee0:	01 30 6d 73 	ldm.l	@sp+,er0-er3
     ee4:	56 70       	rte	
     ee6:	01 30 6d f0 	stm.l	er0-er3,@-sp
     eea:	01 20 6d f4 	stm.l	er4-er6,@-sp
     eee:	01 00 6b 02 	mov.l	@0xec84:16,er2
     ef2:	ec 84 
     ef4:	5d 20       	jsr	@r2
     ef6:	01 20 6d 76 	ldm.l	@sp+,er4-er6
     efa:	01 30 6d 73 	ldm.l	@sp+,er0-er3
     efe:	56 70       	rte	
     f00:	01 30 6d f0 	stm.l	er0-er3,@-sp
     f04:	01 20 6d f4 	stm.l	er4-er6,@-sp
     f08:	01 00 6b 02 	mov.l	@0xec88:16,er2
     f0c:	ec 88 
     f0e:	5d 20       	jsr	@r2
     f10:	01 20 6d 76 	ldm.l	@sp+,er4-er6
     f14:	01 30 6d 73 	ldm.l	@sp+,er0-er3
     f18:	56 70       	rte	
     f1a:	01 30 6d f0 	stm.l	er0-er3,@-sp
     f1e:	01 20 6d f4 	stm.l	er4-er6,@-sp
     f22:	01 00 6b 02 	mov.l	@0xec8c:16,er2
     f26:	ec 8c 
     f28:	5d 20       	jsr	@r2
     f2a:	01 20 6d 76 	ldm.l	@sp+,er4-er6
     f2e:	01 30 6d 73 	ldm.l	@sp+,er0-er3
     f32:	56 70       	rte	
     f34:	01 30 6d f0 	stm.l	er0-er3,@-sp
     f38:	01 20 6d f4 	stm.l	er4-er6,@-sp
     f3c:	01 00 6b 02 	mov.l	@0xec90:16,er2
     f40:	ec 90 
     f42:	5d 20       	jsr	@r2
     f44:	01 20 6d 76 	ldm.l	@sp+,er4-er6
     f48:	01 30 6d 73 	ldm.l	@sp+,er0-er3
     f4c:	56 70       	rte	
     f4e:	01 30 6d f0 	stm.l	er0-er3,@-sp
     f52:	01 20 6d f4 	stm.l	er4-er6,@-sp
     f56:	01 00 6b 02 	mov.l	@0xec94:16,er2
     f5a:	ec 94 
     f5c:	5d 20       	jsr	@r2
     f5e:	01 20 6d 76 	ldm.l	@sp+,er4-er6
     f62:	01 30 6d 73 	ldm.l	@sp+,er0-er3
     f66:	56 70       	rte	
     f68:	01 30 6d f0 	stm.l	er0-er3,@-sp
     f6c:	01 20 6d f4 	stm.l	er4-er6,@-sp
     f70:	01 00 6b 02 	mov.l	@0xec98:16,er2
     f74:	ec 98 
     f76:	5d 20       	jsr	@r2
     f78:	01 20 6d 76 	ldm.l	@sp+,er4-er6
     f7c:	01 30 6d 73 	ldm.l	@sp+,er0-er3
     f80:	56 70       	rte	
     f82:	01 30 6d f0 	stm.l	er0-er3,@-sp
     f86:	01 20 6d f4 	stm.l	er4-er6,@-sp
     f8a:	01 00 6b 02 	mov.l	@0xec9c:16,er2
     f8e:	ec 9c 
     f90:	5d 20       	jsr	@r2
     f92:	01 20 6d 76 	ldm.l	@sp+,er4-er6
     f96:	01 30 6d 73 	ldm.l	@sp+,er0-er3
     f9a:	56 70       	rte	
     f9c:	01 30 6d f0 	stm.l	er0-er3,@-sp
     fa0:	01 20 6d f4 	stm.l	er4-er6,@-sp
     fa4:	01 00 6b 02 	mov.l	@0xeca0:16,er2
     fa8:	ec a0 
     faa:	5d 20       	jsr	@r2
     fac:	01 20 6d 76 	ldm.l	@sp+,er4-er6
     fb0:	01 30 6d 73 	ldm.l	@sp+,er0-er3
     fb4:	56 70       	rte	
     fb6:	01 30 6d f0 	stm.l	er0-er3,@-sp
     fba:	01 20 6d f4 	stm.l	er4-er6,@-sp
     fbe:	01 00 6b 02 	mov.l	@0xeca4:16,er2
     fc2:	ec a4 
     fc4:	5d 20       	jsr	@r2
     fc6:	01 20 6d 76 	ldm.l	@sp+,er4-er6
     fca:	01 30 6d 73 	ldm.l	@sp+,er0-er3
     fce:	56 70       	rte	
     fd0:	01 30 6d f0 	stm.l	er0-er3,@-sp
     fd4:	01 20 6d f4 	stm.l	er4-er6,@-sp
     fd8:	01 00 6b 02 	mov.l	@0xeca8:16,er2
     fdc:	ec a8 
     fde:	5d 20       	jsr	@r2
     fe0:	01 20 6d 76 	ldm.l	@sp+,er4-er6
     fe4:	01 30 6d 73 	ldm.l	@sp+,er0-er3
     fe8:	56 70       	rte	
     fea:	01 30 6d f0 	stm.l	er0-er3,@-sp
     fee:	01 20 6d f4 	stm.l	er4-er6,@-sp
     ff2:	01 00 6b 02 	mov.l	@0xecac:16,er2
     ff6:	ec ac 
     ff8:	5d 20       	jsr	@r2
     ffa:	01 20 6d 76 	ldm.l	@sp+,er4-er6
     ffe:	01 30 6d 73 	ldm.l	@sp+,er0-er3
    1002:	56 70       	rte	
    1004:	01 30 6d f0 	stm.l	er0-er3,@-sp
    1008:	01 20 6d f4 	stm.l	er4-er6,@-sp
    100c:	01 00 6b 02 	mov.l	@0xecb0:16,er2
    1010:	ec b0 
    1012:	5d 20       	jsr	@r2
    1014:	01 20 6d 76 	ldm.l	@sp+,er4-er6
    1018:	01 30 6d 73 	ldm.l	@sp+,er0-er3
    101c:	56 70       	rte	
    101e:	01 30 6d f0 	stm.l	er0-er3,@-sp
    1022:	01 20 6d f4 	stm.l	er4-er6,@-sp
    1026:	01 00 6b 02 	mov.l	@0xecb4:16,er2
    102a:	ec b4 
    102c:	5d 20       	jsr	@r2
    102e:	01 20 6d 76 	ldm.l	@sp+,er4-er6
    1032:	01 30 6d 73 	ldm.l	@sp+,er0-er3
    1036:	56 70       	rte	
    1038:	01 30 6d f0 	stm.l	er0-er3,@-sp
    103c:	01 20 6d f4 	stm.l	er4-er6,@-sp
    1040:	01 00 6b 02 	mov.l	@0xecb8:16,er2
    1044:	ec b8 
    1046:	5d 20       	jsr	@r2
    1048:	01 20 6d 76 	ldm.l	@sp+,er4-er6
    104c:	01 30 6d 73 	ldm.l	@sp+,er0-er3
    1050:	56 70       	rte	
    1052:	01 30 6d f0 	stm.l	er0-er3,@-sp
    1056:	01 20 6d f4 	stm.l	er4-er6,@-sp
    105a:	01 00 6b 02 	mov.l	@0xecbc:16,er2
    105e:	ec bc 
    1060:	5d 20       	jsr	@r2
    1062:	01 20 6d 76 	ldm.l	@sp+,er4-er6
    1066:	01 30 6d 73 	ldm.l	@sp+,er0-er3
    106a:	56 70       	rte	
    106c:	01 30 6d f0 	stm.l	er0-er3,@-sp
    1070:	01 20 6d f4 	stm.l	er4-er6,@-sp
    1074:	01 00 6b 02 	mov.l	@0xecc0:16,er2
    1078:	ec c0 
    107a:	5d 20       	jsr	@r2
    107c:	01 20 6d 76 	ldm.l	@sp+,er4-er6
    1080:	01 30 6d 73 	ldm.l	@sp+,er0-er3
    1084:	56 70       	rte	
    1086:	01 30 6d f0 	stm.l	er0-er3,@-sp
    108a:	01 20 6d f4 	stm.l	er4-er6,@-sp
    108e:	01 00 6b 02 	mov.l	@0xecc4:16,er2
    1092:	ec c4 
    1094:	5d 20       	jsr	@r2
    1096:	01 20 6d 76 	ldm.l	@sp+,er4-er6
    109a:	01 30 6d 73 	ldm.l	@sp+,er0-er3
    109e:	56 70       	rte	
    10a0:	01 30 6d f0 	stm.l	er0-er3,@-sp
    10a4:	01 20 6d f4 	stm.l	er4-er6,@-sp
    10a8:	01 00 6b 02 	mov.l	@0xecc8:16,er2
    10ac:	ec c8 
    10ae:	5d 20       	jsr	@r2
    10b0:	01 20 6d 76 	ldm.l	@sp+,er4-er6
    10b4:	01 30 6d 73 	ldm.l	@sp+,er0-er3
    10b8:	56 70       	rte	
    10ba:	01 30 6d f0 	stm.l	er0-er3,@-sp
    10be:	01 20 6d f4 	stm.l	er4-er6,@-sp
    10c2:	01 00 6b 02 	mov.l	@0xeccc:16,er2
    10c6:	ec cc 
    10c8:	5d 20       	jsr	@r2
    10ca:	01 20 6d 76 	ldm.l	@sp+,er4-er6
    10ce:	01 30 6d 73 	ldm.l	@sp+,er0-er3
    10d2:	56 70       	rte	
    10d4:	01 30 6d f0 	stm.l	er0-er3,@-sp
    10d8:	01 20 6d f4 	stm.l	er4-er6,@-sp
    10dc:	01 00 6b 02 	mov.l	@0xecd0:16,er2
    10e0:	ec d0 
    10e2:	5d 20       	jsr	@r2
    10e4:	01 20 6d 76 	ldm.l	@sp+,er4-er6
    10e8:	01 30 6d 73 	ldm.l	@sp+,er0-er3
    10ec:	56 70       	rte	
    10ee:	01 30 6d f0 	stm.l	er0-er3,@-sp
    10f2:	01 20 6d f4 	stm.l	er4-er6,@-sp
    10f6:	01 00 6b 02 	mov.l	@0xecd4:16,er2
    10fa:	ec d4 
    10fc:	5d 20       	jsr	@r2
    10fe:	01 20 6d 76 	ldm.l	@sp+,er4-er6
    1102:	01 30 6d 73 	ldm.l	@sp+,er0-er3
    1106:	56 70       	rte	
    1108:	01 30 6d f0 	stm.l	er0-er3,@-sp
    110c:	01 20 6d f4 	stm.l	er4-er6,@-sp
    1110:	01 00 6b 02 	mov.l	@0xecd8:16,er2
    1114:	ec d8 
    1116:	5d 20       	jsr	@r2
    1118:	01 20 6d 76 	ldm.l	@sp+,er4-er6
    111c:	01 30 6d 73 	ldm.l	@sp+,er0-er3
    1120:	56 70       	rte	
    1122:	01 30 6d f0 	stm.l	er0-er3,@-sp
    1126:	01 20 6d f4 	stm.l	er4-er6,@-sp
    112a:	01 00 6b 02 	mov.l	@0xecdc:16,er2
    112e:	ec dc 
    1130:	5d 20       	jsr	@r2
    1132:	01 20 6d 76 	ldm.l	@sp+,er4-er6
    1136:	01 30 6d 73 	ldm.l	@sp+,er0-er3
    113a:	56 70       	rte	
    113c:	01 30 6d f0 	stm.l	er0-er3,@-sp
    1140:	01 20 6d f4 	stm.l	er4-er6,@-sp
    1144:	01 00 6b 02 	mov.l	@0xece0:16,er2
    1148:	ec e0 
    114a:	5d 20       	jsr	@r2
    114c:	01 20 6d 76 	ldm.l	@sp+,er4-er6
    1150:	01 30 6d 73 	ldm.l	@sp+,er0-er3
    1154:	56 70       	rte	
    1156:	01 30 6d f0 	stm.l	er0-er3,@-sp
    115a:	01 20 6d f4 	stm.l	er4-er6,@-sp
    115e:	01 00 6b 02 	mov.l	@0xece4:16,er2
    1162:	ec e4 
    1164:	5d 20       	jsr	@r2
    1166:	01 20 6d 76 	ldm.l	@sp+,er4-er6
    116a:	01 30 6d 73 	ldm.l	@sp+,er0-er3
    116e:	56 70       	rte	
    1170:	01 30 6d f0 	stm.l	er0-er3,@-sp
    1174:	01 20 6d f4 	stm.l	er4-er6,@-sp
    1178:	01 00 6b 02 	mov.l	@0xece8:16,er2
    117c:	ec e8 
    117e:	5d 20       	jsr	@r2
    1180:	01 20 6d 76 	ldm.l	@sp+,er4-er6
    1184:	01 30 6d 73 	ldm.l	@sp+,er0-er3
    1188:	56 70       	rte	
    118a:	01 30 6d f0 	stm.l	er0-er3,@-sp
    118e:	01 20 6d f4 	stm.l	er4-er6,@-sp
    1192:	01 00 6b 02 	mov.l	@0xecec:16,er2
    1196:	ec ec 
    1198:	5d 20       	jsr	@r2
    119a:	01 20 6d 76 	ldm.l	@sp+,er4-er6
    119e:	01 30 6d 73 	ldm.l	@sp+,er0-er3
    11a2:	56 70       	rte	
    11a4:	01 30 6d f0 	stm.l	er0-er3,@-sp
    11a8:	01 20 6d f4 	stm.l	er4-er6,@-sp
    11ac:	01 00 6b 02 	mov.l	@0xecf0:16,er2
    11b0:	ec f0 
    11b2:	5d 20       	jsr	@r2
    11b4:	01 20 6d 76 	ldm.l	@sp+,er4-er6
    11b8:	01 30 6d 73 	ldm.l	@sp+,er0-er3
    11bc:	56 70       	rte	
    11be:	01 30 6d f0 	stm.l	er0-er3,@-sp
    11c2:	01 20 6d f4 	stm.l	er4-er6,@-sp
    11c6:	01 00 6b 02 	mov.l	@0xecf4:16,er2
    11ca:	ec f4 
    11cc:	5d 20       	jsr	@r2
    11ce:	01 20 6d 76 	ldm.l	@sp+,er4-er6
    11d2:	01 30 6d 73 	ldm.l	@sp+,er0-er3
    11d6:	56 70       	rte	
    11d8:	00 00       	nop	
    11da:	01 00 6d f4 	mov.l	er4,@-r7
    11de:	0f a3       	mov.l	er2,er3
    11e0:	40 0c       	bra	.+12 (0x11ee)
    11e2:	6c 0c       	mov.b	@r0+,r4l
    11e4:	f4 00       	mov.b	#0x0,r4h
    11e6:	6c 1a       	mov.b	@r1+,r2l
    11e8:	f2 00       	mov.b	#0x0,r2h
    11ea:	19 24       	sub.w	r2,r4
    11ec:	46 06       	bne	.+6 (0x11f4)
    11ee:	1b 03       	subs	#1,r3
    11f0:	0d 33       	mov.w	r3,r3
    11f2:	4c ee       	bge	.-18 (0x11e2)
    11f4:	0d 40       	mov.w	r4,r0
    11f6:	01 00 6d 74 	mov.l	@r7+,er4
    11fa:	54 70       	rts	
    11fc:	0f 83       	mov.l	er0,er3
    11fe:	40 04       	bra	.+4 (0x1204)
    1200:	68 b9       	mov.b	r1l,@r3
    1202:	0b 03       	adds	#1,r3
    1204:	1b 02       	subs	#1,r2
    1206:	0f a2       	mov.l	er2,er2
    1208:	4c f6       	bge	.-10 (0x1200)
    120a:	54 70       	rts	
    120c:	01 20 6d f4 	stm.l	er4-er6,@-sp
    1210:	0f 95       	mov.l	er1,er5
    1212:	0f 86       	mov.l	er0,er6
    1214:	0f a2       	mov.l	er2,er2
    1216:	47 24       	beq	.+36 (0x123c)
    1218:	7a 22 00 00 	cmp.l	#0xffff,er2
    121c:	ff ff 
    121e:	43 0c       	bls	.+12 (0x122c)
    1220:	7a 12 ff ff 	add.l	#0xffff0001,er2
    1224:	00 01 
    1226:	79 04 ff ff 	mov.w	#0xffff,r4
    122a:	40 04       	bra	.+4 (0x1230)
    122c:	0d 24       	mov.w	r2,r4
    122e:	1a a2       	sub.l	er2,er2
    1230:	7b d4 59 8f 	eepmov.w	
    1234:	0d 44       	mov.w	r4,r4
    1236:	46 f8       	bne	.-8 (0x1230)
    1238:	0f a2       	mov.l	er2,er2
    123a:	46 dc       	bne	.-36 (0x1218)
    123c:	01 20 6d 76 	ldm.l	@sp+,er4-er6
    1240:	54 70       	rts	
    1242:	01 10 6d f4 	stm.l	er4-er5,@-sp
    1246:	0f 85       	mov.l	er0,er5
    1248:	0f a3       	mov.l	er2,er3
    124a:	0f 94       	mov.l	er1,er4
    124c:	0f c2       	mov.l	er4,er2
    124e:	1a d2       	sub.l	er5,er2
    1250:	0f b1       	mov.l	er3,er1
    1252:	1b 01       	subs	#1,r1
    1254:	0f a2       	mov.l	er2,er2
    1256:	4d 16       	blt	.+22 (0x126e)
    1258:	0f b2       	mov.l	er3,er2
    125a:	0f 93       	mov.l	er1,er3
    125c:	0f a2       	mov.l	er2,er2
    125e:	47 2a       	beq	.+42 (0x128a)
    1260:	6c 4a       	mov.b	@r4+,r2l
    1262:	68 8a       	mov.b	r2l,@r0
    1264:	0b 00       	adds	#1,r0
    1266:	0f b2       	mov.l	er3,er2
    1268:	1b 03       	subs	#1,r3
    126a:	46 f4       	bne	.-12 (0x1260)
    126c:	40 1c       	bra	.+28 (0x128a)
    126e:	0f d0       	mov.l	er5,er0
    1270:	0a 90       	add.l	er1,er0
    1272:	0a 94       	add.l	er1,er4
    1274:	0f b2       	mov.l	er3,er2
    1276:	0f 93       	mov.l	er1,er3
    1278:	0f a2       	mov.l	er2,er2
    127a:	47 0e       	beq	.+14 (0x128a)
    127c:	68 4a       	mov.b	@r4,r2l
    127e:	68 8a       	mov.b	r2l,@r0
    1280:	1b 04       	subs	#1,r4
    1282:	1b 00       	subs	#1,r0
    1284:	0f b2       	mov.l	er3,er2
    1286:	1b 03       	subs	#1,r3
    1288:	46 f2       	bne	.-14 (0x127c)
    128a:	0f d0       	mov.l	er5,er0
    128c:	01 10 6d 75 	ldm.l	@sp+,er4-er5
    1290:	54 70       	rts	
    1292:	40 06       	bra	.+6 (0x129a)
    1294:	0b 01       	adds	#1,r1
    1296:	0c bb       	mov.b	r3l,r3l
    1298:	47 1e       	beq	.+30 (0x12b8)
    129a:	68 0a       	mov.b	@r0,r2l
    129c:	68 1b       	mov.b	@r1,r3l
    129e:	1c ba       	cmp.b	r3l,r2l
    12a0:	44 06       	bcc	.+6 (0x12a8)
    12a2:	79 00 ff ff 	mov.w	#0xffff,r0
    12a6:	40 12       	bra	.+18 (0x12ba)
    12a8:	1c ba       	cmp.b	r3l,r2l
    12aa:	43 06       	bls	.+6 (0x12b2)
    12ac:	79 00 00 01 	mov.w	#0x1,r0
    12b0:	40 08       	bra	.+8 (0x12ba)
    12b2:	0b 00       	adds	#1,r0
    12b4:	0c aa       	mov.b	r2l,r2l
    12b6:	46 dc       	bne	.-36 (0x1294)
    12b8:	19 00       	sub.w	r0,r0
    12ba:	54 70       	rts	
    12bc:	01 00 6d f4 	mov.l	er4,@-r7
    12c0:	0f 84       	mov.l	er0,er4
    12c2:	0f a0       	mov.l	er2,er0
    12c4:	40 06       	bra	.+6 (0x12cc)
    12c6:	1b 00       	subs	#1,r0
    12c8:	0f 80       	mov.l	er0,er0
    12ca:	47 24       	beq	.+36 (0x12f0)
    12cc:	68 4b       	mov.b	@r4,r3l
    12ce:	68 1a       	mov.b	@r1,r2l
    12d0:	1c ab       	cmp.b	r2l,r3l
    12d2:	44 06       	bcc	.+6 (0x12da)
    12d4:	79 00 ff ff 	mov.w	#0xffff,r0
    12d8:	40 18       	bra	.+24 (0x12f2)
    12da:	1c ab       	cmp.b	r2l,r3l
    12dc:	43 06       	bls	.+6 (0x12e4)
    12de:	79 00 00 01 	mov.w	#0x1,r0
    12e2:	40 0e       	bra	.+14 (0x12f2)
    12e4:	0b 04       	adds	#1,r4
    12e6:	0c bb       	mov.b	r3l,r3l
    12e8:	47 06       	beq	.+6 (0x12f0)
    12ea:	0b 01       	adds	#1,r1
    12ec:	0c aa       	mov.b	r2l,r2l
    12ee:	46 d6       	bne	.-42 (0x12c6)
    12f0:	19 00       	sub.w	r0,r0
    12f2:	01 00 6d 74 	mov.l	@r7+,er4
    12f6:	54 70       	rts	
    12f8:	0f 83       	mov.l	er0,er3
    12fa:	6c 0a       	mov.b	@r0+,r2l
    12fc:	46 fc       	bne	.-4 (0x12fa)
    12fe:	1a b0       	sub.l	er3,er0
    1300:	1b 00       	subs	#1,r0
    1302:	54 70       	rts	
    1304:	0f 83       	mov.l	er0,er3
    1306:	6c 1a       	mov.b	@r1+,r2l
    1308:	68 8a       	mov.b	r2l,@r0
    130a:	0b 00       	adds	#1,r0
    130c:	0c aa       	mov.b	r2l,r2l
    130e:	46 f6       	bne	.-10 (0x1306)
    1310:	0f b0       	mov.l	er3,er0
    1312:	54 70       	rts	
    1314:	01 00 6d f4 	mov.l	er4,@-r7
    1318:	0f a3       	mov.l	er2,er3
    131a:	1b 03       	subs	#1,r3
    131c:	0f 84       	mov.l	er0,er4
    131e:	40 06       	bra	.+6 (0x1326)
    1320:	0f b2       	mov.l	er3,er2
    1322:	1b 03       	subs	#1,r3
    1324:	47 0a       	beq	.+10 (0x1330)
    1326:	6c 1a       	mov.b	@r1+,r2l
    1328:	68 8a       	mov.b	r2l,@r0
    132a:	0b 00       	adds	#1,r0
    132c:	0c aa       	mov.b	r2l,r2l
    132e:	46 f0       	bne	.-16 (0x1320)
    1330:	18 aa       	sub.b	r2l,r2l
    1332:	68 8a       	mov.b	r2l,@r0
    1334:	0f c0       	mov.l	er4,er0
    1336:	01 00 6d 74 	mov.l	@r7+,er4
    133a:	54 70       	rts	
    133c:	01 20 6d f4 	stm.l	er4-er6,@-sp
    1340:	0f 84       	mov.l	er0,er4
    1342:	0f 95       	mov.l	er1,er5
    1344:	0f d0       	mov.l	er5,er0
    1346:	55 b0       	bsr	.-80 (0x12f8)
    1348:	0f 86       	mov.l	er0,er6
    134a:	40 14       	bra	.+20 (0x1360)
    134c:	0f e2       	mov.l	er6,er2
    134e:	0f d1       	mov.l	er5,er1
    1350:	0f c0       	mov.l	er4,er0
    1352:	5e 00 12 bc 	jsr	@0x12bc:24
    1356:	0d 00       	mov.w	r0,r0
    1358:	46 04       	bne	.+4 (0x135e)
    135a:	0f c0       	mov.l	er4,er0
    135c:	40 08       	bra	.+8 (0x1366)
    135e:	0b 04       	adds	#1,r4
    1360:	68 4a       	mov.b	@r4,r2l
    1362:	46 e8       	bne	.-24 (0x134c)
    1364:	1a 80       	sub.l	er0,er0
    1366:	01 20 6d 76 	ldm.l	@sp+,er4-er6
    136a:	54 70       	rts	
    136c:	01 10 6d f4 	stm.l	er4-er5,@-sp
    1370:	0f 84       	mov.l	er0,er4
    1372:	0f 95       	mov.l	er1,er5
    1374:	55 82       	bsr	.-126 (0x12f8)
    1376:	0f 82       	mov.l	er0,er2
    1378:	0f c0       	mov.l	er4,er0
    137a:	0a a0       	add.l	er2,er0
    137c:	0f d1       	mov.l	er5,er1
    137e:	55 84       	bsr	.-124 (0x1304)
    1380:	0f c0       	mov.l	er4,er0
    1382:	01 10 6d 75 	ldm.l	@sp+,er4-er5
    1386:	54 70       	rts	
    1388:	68 0a       	mov.b	@r0,r2l
    138a:	1c 9a       	cmp.b	r1l,r2l
    138c:	47 08       	beq	.+8 (0x1396)
    138e:	0b 00       	adds	#1,r0
    1390:	0c aa       	mov.b	r2l,r2l
    1392:	46 f4       	bne	.-12 (0x1388)
    1394:	1a 80       	sub.l	er0,er0
    1396:	54 70       	rts	
    1398:	01 10 6d f4 	stm.l	er4-er5,@-sp
    139c:	0f 84       	mov.l	er0,er4
    139e:	0c 9d       	mov.b	r1l,r5l
    13a0:	5e 00 12 f8 	jsr	@0x12f8:24
    13a4:	0a c0       	add.l	er4,er0
    13a6:	1b 00       	subs	#1,r0
    13a8:	68 0a       	mov.b	@r0,r2l
    13aa:	1c da       	cmp.b	r5l,r2l
    13ac:	47 06       	beq	.+6 (0x13b4)
    13ae:	0c aa       	mov.b	r2l,r2l
    13b0:	46 f4       	bne	.-12 (0x13a6)
    13b2:	1a 80       	sub.l	er0,er0
    13b4:	01 10 6d 75 	ldm.l	@sp+,er4-er5
    13b8:	54 70       	rts	
    13ba:	01 10 6d f4 	stm.l	er4-er5,@-sp
    13be:	0f 85       	mov.l	er0,er5
    13c0:	0f 94       	mov.l	er1,er4
    13c2:	0f c0       	mov.l	er4,er0
    13c4:	5e 00 12 f8 	jsr	@0x12f8:24
    13c8:	0f 82       	mov.l	er0,er2
    13ca:	0f c1       	mov.l	er4,er1
    13cc:	0f d0       	mov.l	er5,er0
    13ce:	5e 00 12 bc 	jsr	@0x12bc:24
    13d2:	18 aa       	sub.b	r2l,r2l
    13d4:	0d 00       	mov.w	r0,r0
    13d6:	46 02       	bne	.+2 (0x13da)
    13d8:	fa 01       	mov.b	#0x1,r2l
    13da:	0c a8       	mov.b	r2l,r0l
    13dc:	01 10 6d 75 	ldm.l	@sp+,er4-er5
    13e0:	54 70       	rts	
    13e2:	01 20 6d f4 	stm.l	er4-er6,@-sp
    13e6:	0f 84       	mov.l	er0,er4
    13e8:	0f 96       	mov.l	er1,er6
    13ea:	0f e0       	mov.l	er6,er0
    13ec:	5e 00 12 f8 	jsr	@0x12f8:24
    13f0:	0f 85       	mov.l	er0,er5
    13f2:	0f c0       	mov.l	er4,er0
    13f4:	5e 00 12 f8 	jsr	@0x12f8:24
    13f8:	0a 84       	add.l	er0,er4
    13fa:	1a d4       	sub.l	er5,er4
    13fc:	0f d2       	mov.l	er5,er2
    13fe:	0f e1       	mov.l	er6,er1
    1400:	0f c0       	mov.l	er4,er0
    1402:	5e 00 12 bc 	jsr	@0x12bc:24
    1406:	18 aa       	sub.b	r2l,r2l
    1408:	0d 00       	mov.w	r0,r0
    140a:	46 02       	bne	.+2 (0x140e)
    140c:	fa 01       	mov.b	#0x1,r2l
    140e:	0c a8       	mov.b	r2l,r0l
    1410:	01 20 6d 76 	ldm.l	@sp+,er4-er6
    1414:	54 70       	rts	
    1416:	40 02       	bra	.+2 (0x141a)
    1418:	0b 00       	adds	#1,r0
    141a:	68 0a       	mov.b	@r0,r2l
    141c:	aa 20       	cmp.b	#0x20,r2l
    141e:	47 f8       	beq	.-8 (0x1418)
    1420:	aa 09       	cmp.b	#0x9,r2l
    1422:	47 f4       	beq	.-12 (0x1418)
    1424:	54 70       	rts	
    1426:	01 20 6d f4 	stm.l	er4-er6,@-sp
    142a:	0f 86       	mov.l	er0,er6
    142c:	19 00       	sub.w	r0,r0
    142e:	01 00 69 61 	mov.l	@r6,er1
    1432:	18 dd       	sub.b	r5l,r5l
    1434:	40 02       	bra	.+2 (0x1438)
    1436:	0b 01       	adds	#1,r1
    1438:	68 1a       	mov.b	@r1,r2l
    143a:	aa 20       	cmp.b	#0x20,r2l
    143c:	47 f8       	beq	.-8 (0x1436)
    143e:	aa 09       	cmp.b	#0x9,r2l
    1440:	47 f4       	beq	.-12 (0x1436)
    1442:	68 1a       	mov.b	@r1,r2l
    1444:	aa 2d       	cmp.b	#0x2d,r2l
    1446:	46 1a       	bne	.+26 (0x1462)
    1448:	fd 01       	mov.b	#0x1,r5l
    144a:	0b 01       	adds	#1,r1
    144c:	40 14       	bra	.+20 (0x1462)
    144e:	0d 02       	mov.w	r0,r2
    1450:	10 52       	shll.w	#2,r2
    1452:	10 12       	shll.w	r2
    1454:	09 02       	add.w	r0,r2
    1456:	09 20       	add.w	r2,r0
    1458:	0c ca       	mov.b	r4l,r2l
    145a:	f2 00       	mov.b	#0x0,r2h
    145c:	09 20       	add.w	r2,r0
    145e:	79 10 ff d0 	add.w	#0xffd0,r0
    1462:	6c 1c       	mov.b	@r1+,r4l
    1464:	18 bb       	sub.b	r3l,r3l
    1466:	0c ca       	mov.b	r4l,r2l
    1468:	8a d0       	add.b	#0xd0,r2l
    146a:	aa 09       	cmp.b	#0x9,r2l
    146c:	42 02       	bhi	.+2 (0x1470)
    146e:	fb 01       	mov.b	#0x1,r3l
    1470:	0c bb       	mov.b	r3l,r3l
    1472:	46 da       	bne	.-38 (0x144e)
    1474:	1b 01       	subs	#1,r1
    1476:	01 00 69 e1 	mov.l	er1,@r6
    147a:	0c dd       	mov.b	r5l,r5l
    147c:	47 02       	beq	.+2 (0x1480)
    147e:	17 90       	neg.w	r0
    1480:	01 20 6d 76 	ldm.l	@sp+,er4-er6
    1484:	54 70       	rts	
    1486:	01 10 6d f4 	stm.l	er4-er5,@-sp
    148a:	0f 84       	mov.l	er0,er4
    148c:	1a d5       	sub.l	er5,er5
    148e:	40 02       	bra	.+2 (0x1492)
    1490:	0b 04       	adds	#1,r4
    1492:	68 4a       	mov.b	@r4,r2l
    1494:	aa 20       	cmp.b	#0x20,r2l
    1496:	47 f8       	beq	.-8 (0x1490)
    1498:	40 22       	bra	.+34 (0x14bc)
    149a:	01 00 6b 00 	mov.l	@0xecf8:16,er0
    149e:	ec f8 
    14a0:	6c 49       	mov.b	@r4+,r1l
    14a2:	5e 00 13 88 	jsr	@0x1388:24
    14a6:	0f 80       	mov.l	er0,er0
    14a8:	47 16       	beq	.+22 (0x14c0)
    14aa:	10 75       	shll.l	#2,er5
    14ac:	10 75       	shll.l	#2,er5
    14ae:	01 00 6b 02 	mov.l	@0xecf8:16,er2
    14b2:	ec f8 
    14b4:	1a a0       	sub.l	er2,er0
    14b6:	11 b0       	shar.l	er0
    14b8:	01 f0 64 05 	or.l	er0,er5
    14bc:	68 4a       	mov.b	@r4,r2l
    14be:	46 da       	bne	.-38 (0x149a)
    14c0:	0f d0       	mov.l	er5,er0
    14c2:	01 10 6d 75 	ldm.l	@sp+,er4-er5
    14c6:	54 70       	rts	
    14c8:	1a b3       	sub.l	er3,er3
    14ca:	40 02       	bra	.+2 (0x14ce)
    14cc:	0b 00       	adds	#1,r0
    14ce:	68 0a       	mov.b	@r0,r2l
    14d0:	aa 20       	cmp.b	#0x20,r2l
    14d2:	47 f8       	beq	.-8 (0x14cc)
    14d4:	40 1e       	bra	.+30 (0x14f4)
    14d6:	68 0a       	mov.b	@r0,r2l
    14d8:	8a d0       	add.b	#0xd0,r2l
    14da:	aa 09       	cmp.b	#0x9,r2l
    14dc:	42 1a       	bhi	.+26 (0x14f8)
    14de:	0f b2       	mov.l	er3,er2
    14e0:	10 72       	shll.l	#2,er2
    14e2:	10 32       	shll.l	er2
    14e4:	0a b2       	add.l	er3,er2
    14e6:	0a a3       	add.l	er2,er3
    14e8:	6c 0a       	mov.b	@r0+,r2l
    14ea:	f2 00       	mov.b	#0x0,r2h
    14ec:	79 12 ff d0 	add.w	#0xffd0,r2
    14f0:	17 f2       	exts.l	er2
    14f2:	0a a3       	add.l	er2,er3
    14f4:	68 0a       	mov.b	@r0,r2l
    14f6:	46 de       	bne	.-34 (0x14d6)
    14f8:	0f b0       	mov.l	er3,er0
    14fa:	54 70       	rts	
    14fc:	01 00 6d f4 	mov.l	er4,@-r7
    1500:	0f 84       	mov.l	er0,er4
    1502:	40 02       	bra	.+2 (0x1506)
    1504:	0b 04       	adds	#1,r4
    1506:	68 4a       	mov.b	@r4,r2l
    1508:	aa 20       	cmp.b	#0x20,r2l
    150a:	47 f8       	beq	.-8 (0x1504)
    150c:	aa 09       	cmp.b	#0x9,r2l
    150e:	47 f4       	beq	.-12 (0x1504)
    1510:	aa 0d       	cmp.b	#0xd,r2l
    1512:	47 f0       	beq	.-16 (0x1504)
    1514:	aa 0a       	cmp.b	#0xa,r2l
    1516:	47 ec       	beq	.-20 (0x1504)
    1518:	68 4a       	mov.b	@r4,r2l
    151a:	46 04       	bne	.+4 (0x1520)
    151c:	1a 80       	sub.l	er0,er0
    151e:	40 6a       	bra	.+106 (0x158a)
    1520:	7a 01 00 00 	mov.l	#0x4d7,er1
    1524:	04 d7 
    1526:	1a a2       	sub.l	er2,er2
    1528:	8a 02       	add.b	#0x2,r2l
    152a:	0f c0       	mov.l	er4,er0
    152c:	5e 00 12 bc 	jsr	@0x12bc:24
    1530:	0d 00       	mov.w	r0,r0
    1532:	47 28       	beq	.+40 (0x155c)
    1534:	7a 01 00 00 	mov.l	#0x4da,er1
    1538:	04 da 
    153a:	1a a2       	sub.l	er2,er2
    153c:	8a 02       	add.b	#0x2,r2l
    153e:	0f c0       	mov.l	er4,er0
    1540:	5e 00 12 bc 	jsr	@0x12bc:24
    1544:	0d 00       	mov.w	r0,r0
    1546:	47 14       	beq	.+20 (0x155c)
    1548:	7a 01 00 00 	mov.l	#0x4dd,er1
    154c:	04 dd 
    154e:	1a a2       	sub.l	er2,er2
    1550:	8a 02       	add.b	#0x2,r2l
    1552:	0f c0       	mov.l	er4,er0
    1554:	5e 00 12 bc 	jsr	@0x12bc:24
    1558:	0d 00       	mov.w	r0,r0
    155a:	46 04       	bne	.+4 (0x1560)
    155c:	0b 84       	adds	#2,r4
    155e:	40 0c       	bra	.+12 (0x156c)
    1560:	68 4a       	mov.b	@r4,r2l
    1562:	aa 78       	cmp.b	#0x78,r2l
    1564:	47 04       	beq	.+4 (0x156a)
    1566:	aa 58       	cmp.b	#0x58,r2l
    1568:	46 0a       	bne	.+10 (0x1574)
    156a:	0b 04       	adds	#1,r4
    156c:	0f c0       	mov.l	er4,er0
    156e:	5e 00 14 86 	jsr	@0x1486:24
    1572:	40 16       	bra	.+22 (0x158a)
    1574:	aa 2d       	cmp.b	#0x2d,r2l
    1576:	47 08       	beq	.+8 (0x1580)
    1578:	0f c0       	mov.l	er4,er0
    157a:	5e 00 14 c8 	jsr	@0x14c8:24
    157e:	40 0a       	bra	.+10 (0x158a)
    1580:	0b 04       	adds	#1,r4
    1582:	0f c0       	mov.l	er4,er0
    1584:	5e 00 14 c8 	jsr	@0x14c8:24
    1588:	17 b0       	neg.l	er0
    158a:	01 00 6d 74 	mov.l	@r7+,er4
    158e:	54 70       	rts	
    1590:	01 00 6b 00 	mov.l	@0xecfc:16,er0
    1594:	ec fc 
    1596:	7a 01 41 c6 	mov.l	#0x41c64e6d,er1
    159a:	4e 6d 
    159c:	5e 00 76 b0 	jsr	@0x76b0:24
    15a0:	7a 10 00 00 	add.l	#0x3039,er0
    15a4:	30 39 
    15a6:	01 00 6b 80 	mov.l	er0,@0xecfc:16
    15aa:	ec fc 
    15ac:	7a 02 00 ff 	mov.l	#0xffecfe,er2
    15b0:	ec fe 
    15b2:	69 20       	mov.w	@r2,r0
    15b4:	e0 7f       	and.b	#0x7f,r0h
    15b6:	54 70       	rts	
    15b8:	1a 80       	sub.l	er0,er0
    15ba:	54 70       	rts	
    15bc:	54 70       	rts	
    15be:	1a 80       	sub.l	er0,er0
    15c0:	54 70       	rts	
    15c2:	1a 80       	sub.l	er0,er0
    15c4:	54 70       	rts	
    15c6:	1a 80       	sub.l	er0,er0
    15c8:	54 70       	rts	
    15ca:	54 70       	rts	
    15cc:	1a 80       	sub.l	er0,er0
    15ce:	54 70       	rts	
    15d0:	54 70       	rts	
    15d2:	01 10 6d f4 	stm.l	er4-er5,@-sp
    15d6:	0c 9d       	mov.b	r1l,r5l
    15d8:	0f a3       	mov.l	er2,er3
    15da:	6e 79 00 0f 	mov.b	@(0xf:16,r7),r1l
    15de:	6e 7a 00 13 	mov.b	@(0x13:16,r7),r2l
    15e2:	0d 04       	mov.w	r0,r4
    15e4:	17 74       	extu.l	er4
    15e6:	0c 98       	mov.b	r1l,r0l
    15e8:	17 08       	not.b	r0l
    15ea:	0c aa       	mov.b	r2l,r2l
    15ec:	47 14       	beq	.+20 (0x1602)
    15ee:	68 3a       	mov.b	@r3,r2l
    15f0:	14 9a       	or.b	r1l,r2l
    15f2:	68 ba       	mov.b	r2l,@r3
    15f4:	78 40 6a ad 	mov.b	r5l,@(0x800000:32,r4)
    15f8:	00 80 00 00 
    15fc:	68 3a       	mov.b	@r3,r2l
    15fe:	16 8a       	and.b	r0l,r2l
    1600:	40 12       	bra	.+18 (0x1614)
    1602:	68 3a       	mov.b	@r3,r2l
    1604:	16 8a       	and.b	r0l,r2l
    1606:	68 ba       	mov.b	r2l,@r3
    1608:	78 40 6a ad 	mov.b	r5l,@(0x800000:32,r4)
    160c:	00 80 00 00 
    1610:	68 3a       	mov.b	@r3,r2l
    1612:	14 9a       	or.b	r1l,r2l
    1614:	68 ba       	mov.b	r2l,@r3
    1616:	01 10 6d 75 	ldm.l	@sp+,er4-er5
    161a:	54 70       	rts	
    161c:	01 00 6d f4 	mov.l	er4,@-r7
    1620:	0c ac       	mov.b	r2l,r4l
    1622:	6e 7a 00 0b 	mov.b	@(0xb:16,r7),r2l
    1626:	17 70       	extu.l	er0
    1628:	0c cb       	mov.b	r4l,r3l
    162a:	17 0b       	not.b	r3l
    162c:	0c aa       	mov.b	r2l,r2l
    162e:	47 14       	beq	.+20 (0x1644)
    1630:	68 1a       	mov.b	@r1,r2l
    1632:	14 ca       	or.b	r4l,r2l
    1634:	68 9a       	mov.b	r2l,@r1
    1636:	78 00 6a 28 	mov.b	@(0x800000:32,r0),r0l
    163a:	00 80 00 00 
    163e:	68 1a       	mov.b	@r1,r2l
    1640:	16 ba       	and.b	r3l,r2l
    1642:	40 12       	bra	.+18 (0x1656)
    1644:	68 1a       	mov.b	@r1,r2l
    1646:	16 ba       	and.b	r3l,r2l
    1648:	68 9a       	mov.b	r2l,@r1
    164a:	78 00 6a 28 	mov.b	@(0x800000:32,r0),r0l
    164e:	00 80 00 00 
    1652:	68 1a       	mov.b	@r1,r2l
    1654:	14 ca       	or.b	r4l,r2l
    1656:	68 9a       	mov.b	r2l,@r1
    1658:	f0 00       	mov.b	#0x0,r0h
    165a:	01 00 6d 74 	mov.l	@r7+,er4
    165e:	54 70       	rts	
    1660:	79 20 00 fe 	cmp.w	#0xfe,r0
    1664:	43 18       	bls	.+24 (0x167e)
    1666:	79 10 ff 01 	add.w	#0xff01,r0
    166a:	0d 02       	mov.w	r0,r2
    166c:	0c 2a       	mov.b	r2h,r2l
    166e:	18 22       	sub.b	r2h,r2h
    1670:	0d 03       	mov.w	r0,r3
    1672:	e3 00       	and.b	#0x0,r3h
    1674:	0d 20       	mov.w	r2,r0
    1676:	09 30       	add.w	r3,r0
    1678:	79 20 00 fe 	cmp.w	#0xfe,r0
    167c:	42 e8       	bhi	.-24 (0x1666)
    167e:	54 70       	rts	
    1680:	0c aa       	mov.b	r2l,r2l
    1682:	47 18       	beq	.+24 (0x169c)
    1684:	79 02 00 14 	mov.w	#0x14,r2
    1688:	01 00 6d f2 	mov.l	er2,@-r7
    168c:	7a 02 00 00 	mov.l	#0x370,er2
    1690:	03 70 
    1692:	01 00 6d f2 	mov.l	er2,@-r7
    1696:	79 02 00 1e 	mov.w	#0x1e,r2
    169a:	40 16       	bra	.+22 (0x16b2)
    169c:	79 02 00 50 	mov.w	#0x50,r2
    16a0:	01 00 6d f2 	mov.l	er2,@-r7
    16a4:	7a 02 00 00 	mov.l	#0x385,er2
    16a8:	03 85 
    16aa:	01 00 6d f2 	mov.l	er2,@-r7
    16ae:	79 02 00 78 	mov.w	#0x78,r2
    16b2:	55 06       	bsr	.+6 (0x16ba)
    16b4:	0b 97       	adds	#4,r7
    16b6:	0b 97       	adds	#4,r7
    16b8:	54 70       	rts	
    16ba:	7a 37 00 00 	sub.l	#0x14,er7
    16be:	00 14 
    16c0:	01 20 6d f4 	stm.l	er4-er6,@-sp
    16c4:	01 00 6f f1 	mov.l	er1,@(0x1c:16,r7)
    16c8:	00 1c 
    16ca:	0d 24       	mov.w	r2,r4
    16cc:	0d 42       	mov.w	r4,r2
    16ce:	17 f2       	exts.l	er2
    16d0:	01 00 6f f1 	mov.l	er1,@(0x18:16,r7)
    16d4:	00 18 
    16d6:	0f 95       	mov.l	er1,er5
    16d8:	0a a5       	add.l	er2,er5
    16da:	01 00 6f f5 	mov.l	er5,@(0x18:16,r7)
    16de:	00 18 
    16e0:	6f 75 00 2a 	mov.w	@(0x2a:16,r7),r5
    16e4:	17 f5       	exts.l	er5
    16e6:	01 00 6f f5 	mov.l	er5,@(0x14:16,r7)
    16ea:	00 14 
    16ec:	01 00 6f 72 	mov.l	@(0x14:16,r7),er2
    16f0:	00 14 
    16f2:	19 11       	sub.w	r1,r1
    16f4:	01 00 6f 70 	mov.l	@(0x18:16,r7),er0
    16f8:	00 18 
    16fa:	5e 00 11 fc 	jsr	@0x11fc:24
    16fe:	0d 41       	mov.w	r4,r1
    1700:	58 00 00 f4 	bra	.+244 (0x17f8)
    1704:	0d 12       	mov.w	r1,r2
    1706:	17 f2       	exts.l	er2
    1708:	01 00 6f 73 	mov.l	@(0x1c:16,r7),er3
    170c:	00 1c 
    170e:	0a a3       	add.l	er2,er3
    1710:	01 00 6f 72 	mov.l	@(0x14:16,r7),er2
    1714:	00 14 
    1716:	01 00 6f 75 	mov.l	@(0x18:16,r7),er5
    171a:	00 18 
    171c:	0a d2       	add.l	er5,er2
    171e:	6e 2a ff ff 	mov.b	@(0xffff:16,r2),r2l
    1722:	68 3b       	mov.b	@r3,r3l
    1724:	15 ba       	xor.b	r3l,r2l
    1726:	f2 00       	mov.b	#0x0,r2h
    1728:	17 72       	extu.l	er2
    172a:	78 20 6a 2e 	mov.b	@(0x270:32,r2),r6l
    172e:	00 00 02 70 
    1732:	6f 72 00 2a 	mov.w	@(0x2a:16,r7),r2
    1736:	1b 02       	subs	#1,r2
    1738:	ae ff       	cmp.b	#0xff,r6l
    173a:	58 70 00 94 	beq	.+148 (0x17d2)
    173e:	6f f2 00 0e 	mov.w	r2,@(0xe:16,r7)
    1742:	0d 22       	mov.w	r2,r2
    1744:	4f 54       	ble	.+84 (0x179a)
    1746:	6f 74 00 0e 	mov.w	@(0xe:16,r7),r4
    174a:	17 f4       	exts.l	er4
    174c:	01 00 6f 72 	mov.l	@(0x24:16,r7),er2
    1750:	00 24 
    1752:	0a c2       	add.l	er4,er2
    1754:	68 28       	mov.b	@r2,r0l
    1756:	f0 00       	mov.b	#0x0,r0h
    1758:	0c ea       	mov.b	r6l,r2l
    175a:	f2 00       	mov.b	#0x0,r2h
    175c:	09 20       	add.w	r2,r0
    175e:	01 00 6f f1 	mov.l	er1,@(0x10:16,r7)
    1762:	00 10 
    1764:	5e 00 16 60 	jsr	@0x1660:24
    1768:	01 00 6f 73 	mov.l	@(0x18:16,r7),er3
    176c:	00 18 
    176e:	0a c3       	add.l	er4,er3
    1770:	0c 8a       	mov.b	r0l,r2l
    1772:	f2 00       	mov.b	#0x0,r2h
    1774:	17 72       	extu.l	er2
    1776:	78 20 6a 2a 	mov.b	@(0x170:32,r2),r2l
    177a:	00 00 01 70 
    177e:	6e 3d ff ff 	mov.b	@(0xffff:16,r3),r5l
    1782:	15 da       	xor.b	r5l,r2l
    1784:	68 ba       	mov.b	r2l,@r3
    1786:	6f 75 00 0e 	mov.w	@(0xe:16,r7),r5
    178a:	1b 05       	subs	#1,r5
    178c:	6f f5 00 0e 	mov.w	r5,@(0xe:16,r7)
    1790:	01 00 6f 71 	mov.l	@(0x10:16,r7),er1
    1794:	00 10 
    1796:	0d 55       	mov.w	r5,r5
    1798:	4e ac       	bgt	.-84 (0x1746)
    179a:	01 00 6f 75 	mov.l	@(0x24:16,r7),er5
    179e:	00 24 
    17a0:	68 58       	mov.b	@r5,r0l
    17a2:	f0 00       	mov.b	#0x0,r0h
    17a4:	0c ea       	mov.b	r6l,r2l
    17a6:	f2 00       	mov.b	#0x0,r2h
    17a8:	09 20       	add.w	r2,r0
    17aa:	01 00 6f f1 	mov.l	er1,@(0x10:16,r7)
    17ae:	00 10 
    17b0:	5e 00 16 60 	jsr	@0x1660:24
    17b4:	0c 8a       	mov.b	r0l,r2l
    17b6:	f2 00       	mov.b	#0x0,r2h
    17b8:	17 72       	extu.l	er2
    17ba:	78 20 6a 2a 	mov.b	@(0x170:32,r2),r2l
    17be:	00 00 01 70 
    17c2:	01 00 6f 75 	mov.l	@(0x18:16,r7),er5
    17c6:	00 18 
    17c8:	68 da       	mov.b	r2l,@r5
    17ca:	01 00 6f 71 	mov.l	@(0x10:16,r7),er1
    17ce:	00 10 
    17d0:	40 26       	bra	.+38 (0x17f8)
    17d2:	0d 24       	mov.w	r2,r4
    17d4:	4f 18       	ble	.+24 (0x17ee)
    17d6:	0d 42       	mov.w	r4,r2
    17d8:	17 f2       	exts.l	er2
    17da:	01 00 6f 73 	mov.l	@(0x18:16,r7),er3
    17de:	00 18 
    17e0:	0a a3       	add.l	er2,er3
    17e2:	6e 3a ff ff 	mov.b	@(0xffff:16,r3),r2l
    17e6:	68 ba       	mov.b	r2l,@r3
    17e8:	1b 04       	subs	#1,r4
    17ea:	0d 44       	mov.w	r4,r4
    17ec:	4e e8       	bgt	.-24 (0x17d6)
    17ee:	18 aa       	sub.b	r2l,r2l
    17f0:	01 00 6f 75 	mov.l	@(0x18:16,r7),er5
    17f4:	00 18 
    17f6:	68 da       	mov.b	r2l,@r5
    17f8:	1b 01       	subs	#1,r1
    17fa:	0d 11       	mov.w	r1,r1
    17fc:	58 c0 ff 04 	bge	.-252 (0x1704)
    1800:	01 20 6d 76 	ldm.l	@sp+,er4-er6
    1804:	7a 17 00 00 	add.l	#0x14,er7
    1808:	00 14 
    180a:	54 70       	rts	
    180c:	0c aa       	mov.b	r2l,r2l
    180e:	47 18       	beq	.+24 (0x1828)
    1810:	79 02 00 14 	mov.w	#0x14,r2
    1814:	01 00 6d f2 	mov.l	er2,@-r7
    1818:	7a 02 00 00 	mov.l	#0x370,er2
    181c:	03 70 
    181e:	01 00 6d f2 	mov.l	er2,@-r7
    1822:	79 02 00 1e 	mov.w	#0x1e,r2
    1826:	40 16       	bra	.+22 (0x183e)
    1828:	79 02 00 50 	mov.w	#0x50,r2
    182c:	01 00 6d f2 	mov.l	er2,@-r7
    1830:	7a 02 00 00 	mov.l	#0x385,er2
    1834:	03 85 
    1836:	01 00 6d f2 	mov.l	er2,@-r7
    183a:	79 02 00 78 	mov.w	#0x78,r2
    183e:	55 06       	bsr	.+6 (0x1846)
    1840:	0b 97       	adds	#4,r7
    1842:	0b 97       	adds	#4,r7
    1844:	54 70       	rts	
    1846:	7a 37 00 00 	sub.l	#0x40,er7
    184a:	00 40 
    184c:	01 20 6d f4 	stm.l	er4-er6,@-sp
    1850:	0f 86       	mov.l	er0,er6
    1852:	01 00 6f f1 	mov.l	er1,@(0x48:16,r7)
    1856:	00 48 
    1858:	6f f2 00 46 	mov.w	r2,@(0x46:16,r7)
    185c:	6e 7c 00 47 	mov.b	@(0x47:16,r7),r4l
    1860:	6e 7d 00 57 	mov.b	@(0x57:16,r7),r5l
    1864:	08 dc       	add.b	r5l,r4l
    1866:	6e fc 00 3e 	mov.b	r4l,@(0x3e:16,r7)
    186a:	19 11       	sub.w	r1,r1
    186c:	1d 21       	cmp.w	r2,r1
    186e:	44 36       	bcc	.+54 (0x18a6)
    1870:	0d 12       	mov.w	r1,r2
    1872:	6f 74 00 56 	mov.w	@(0x56:16,r7),r4
    1876:	09 42       	add.w	r4,r2
    1878:	17 72       	extu.l	er2
    187a:	0f e0       	mov.l	er6,er0
    187c:	0a a0       	add.l	er2,er0
    187e:	0d 13       	mov.w	r1,r3
    1880:	17 73       	extu.l	er3
    1882:	01 00 6f 72 	mov.l	@(0x48:16,r7),er2
    1886:	00 48 
    1888:	0a b2       	add.l	er3,er2
    188a:	68 2a       	mov.b	@r2,r2l
    188c:	f2 00       	mov.b	#0x0,r2h
    188e:	17 72       	extu.l	er2
    1890:	78 20 6a 2a 	mov.b	@(0x270:32,r2),r2l
    1894:	00 00 02 70 
    1898:	6e 8a 02 86 	mov.b	r2l,@(0x286:16,r0)
    189c:	0b 01       	adds	#1,r1
    189e:	6f 75 00 46 	mov.w	@(0x46:16,r7),r5
    18a2:	1d 51       	cmp.w	r5,r1
    18a4:	45 ca       	bcs	.-54 (0x1870)
    18a6:	19 11       	sub.w	r1,r1
    18a8:	40 30       	bra	.+48 (0x18da)
    18aa:	0d 12       	mov.w	r1,r2
    18ac:	17 72       	extu.l	er2
    18ae:	0f e0       	mov.l	er6,er0
    18b0:	0a a0       	add.l	er2,er0
    18b2:	0d 12       	mov.w	r1,r2
    18b4:	6f 75 00 46 	mov.w	@(0x46:16,r7),r5
    18b8:	09 52       	add.w	r5,r2
    18ba:	0d 23       	mov.w	r2,r3
    18bc:	17 73       	extu.l	er3
    18be:	01 00 6f 72 	mov.l	@(0x48:16,r7),er2
    18c2:	00 48 
    18c4:	0a b2       	add.l	er3,er2
    18c6:	68 2a       	mov.b	@r2,r2l
    18c8:	f2 00       	mov.b	#0x0,r2h
    18ca:	17 72       	extu.l	er2
    18cc:	78 20 6a 2a 	mov.b	@(0x270:32,r2),r2l
    18d0:	00 00 02 70 
    18d4:	6e 8a 02 86 	mov.b	r2l,@(0x286:16,r0)
    18d8:	0b 01       	adds	#1,r1
    18da:	6f 74 00 56 	mov.w	@(0x56:16,r7),r4
    18de:	1d 41       	cmp.w	r4,r1
    18e0:	45 c8       	bcs	.-56 (0x18aa)
    18e2:	18 dd       	sub.b	r5l,r5l
    18e4:	6e fd 00 42 	mov.b	r5l,@(0x42:16,r7)
    18e8:	79 01 00 01 	mov.w	#0x1,r1
    18ec:	6f 74 00 56 	mov.w	@(0x56:16,r7),r4
    18f0:	1d 41       	cmp.w	r4,r1
    18f2:	58 e0 00 b0 	bgt	.+176 (0x19a6)
    18f6:	18 dd       	sub.b	r5l,r5l
    18f8:	6e fd 00 1f 	mov.b	r5l,@(0x1f:16,r7)
    18fc:	19 44       	sub.w	r4,r4
    18fe:	6f f4 00 16 	mov.w	r4,@(0x16:16,r7)
    1902:	6e 7d 00 3e 	mov.b	@(0x3e:16,r7),r5l
    1906:	f5 00       	mov.b	#0x0,r5h
    1908:	6f f5 00 26 	mov.w	r5,@(0x26:16,r7)
    190c:	1d 54       	cmp.w	r5,r4
    190e:	44 62       	bcc	.+98 (0x1972)
    1910:	6f 72 00 16 	mov.w	@(0x16:16,r7),r2
    1914:	17 72       	extu.l	er2
    1916:	7a 16 00 00 	add.l	#0x286,er6
    191a:	02 86 
    191c:	0f e3       	mov.l	er6,er3
    191e:	0a a3       	add.l	er2,er3
    1920:	7a 16 ff ff 	add.l	#0xfffffd7a,er6
    1924:	fd 7a 
    1926:	68 3a       	mov.b	@r3,r2l
    1928:	aa ff       	cmp.b	#0xff,r2l
    192a:	47 34       	beq	.+52 (0x1960)
    192c:	0c a8       	mov.b	r2l,r0l
    192e:	f0 00       	mov.b	#0x0,r0h
    1930:	6f 72 00 16 	mov.w	@(0x16:16,r7),r2
    1934:	52 12       	mulxu.w	r1,er2
    1936:	09 20       	add.w	r2,r0
    1938:	01 00 6f f1 	mov.l	er1,@(0x20:16,r7)
    193c:	00 20 
    193e:	5e 00 16 60 	jsr	@0x1660:24
    1942:	0c 8a       	mov.b	r0l,r2l
    1944:	f2 00       	mov.b	#0x0,r2h
    1946:	17 72       	extu.l	er2
    1948:	78 20 6a 2a 	mov.b	@(0x170:32,r2),r2l
    194c:	00 00 01 70 
    1950:	6e 7c 00 1f 	mov.b	@(0x1f:16,r7),r4l
    1954:	15 ac       	xor.b	r2l,r4l
    1956:	6e fc 00 1f 	mov.b	r4l,@(0x1f:16,r7)
    195a:	01 00 6f 71 	mov.l	@(0x20:16,r7),er1
    195e:	00 20 
    1960:	6f 75 00 16 	mov.w	@(0x16:16,r7),r5
    1964:	0b 05       	adds	#1,r5
    1966:	6f f5 00 16 	mov.w	r5,@(0x16:16,r7)
    196a:	6f 74 00 26 	mov.w	@(0x26:16,r7),r4
    196e:	1d 45       	cmp.w	r4,r5
    1970:	45 9e       	bcs	.-98 (0x1910)
    1972:	6e 7d 00 42 	mov.b	@(0x42:16,r7),r5l
    1976:	6e 7c 00 1f 	mov.b	@(0x1f:16,r7),r4l
    197a:	14 cd       	or.b	r4l,r5l
    197c:	6e fd 00 42 	mov.b	r5l,@(0x42:16,r7)
    1980:	0d 12       	mov.w	r1,r2
    1982:	17 f2       	exts.l	er2
    1984:	0f e3       	mov.l	er6,er3
    1986:	0a a3       	add.l	er2,er3
    1988:	0c ca       	mov.b	r4l,r2l
    198a:	f2 00       	mov.b	#0x0,r2h
    198c:	17 72       	extu.l	er2
    198e:	78 20 6a 2a 	mov.b	@(0x270:32,r2),r2l
    1992:	00 00 02 70 
    1996:	6e ba 00 51 	mov.b	r2l,@(0x51:16,r3)
    199a:	0b 01       	adds	#1,r1
    199c:	6f 75 00 56 	mov.w	@(0x56:16,r7),r5
    19a0:	1d 51       	cmp.w	r5,r1
    19a2:	58 f0 ff 50 	ble	.-176 (0x18f6)
    19a6:	6e 7c 00 42 	mov.b	@(0x42:16,r7),r4l
    19aa:	46 06       	bne	.+6 (0x19b2)
    19ac:	19 00       	sub.w	r0,r0
    19ae:	58 00 06 8a 	bra	.+1674 (0x203c)
    19b2:	6f 75 00 56 	mov.w	@(0x56:16,r7),r5
    19b6:	17 f5       	exts.l	er5
    19b8:	01 00 6f f5 	mov.l	er5,@(0x34:16,r7)
    19bc:	00 34 
    19be:	01 00 6f f6 	mov.l	er6,@(0x30:16,r7)
    19c2:	00 30 
    19c4:	0f e4       	mov.l	er6,er4
    19c6:	0b 04       	adds	#1,r4
    19c8:	01 00 6f f4 	mov.l	er4,@(0x30:16,r7)
    19cc:	00 30 
    19ce:	01 00 6f 72 	mov.l	@(0x34:16,r7),er2
    19d2:	00 34 
    19d4:	19 11       	sub.w	r1,r1
    19d6:	01 00 6f 70 	mov.l	@(0x30:16,r7),er0
    19da:	00 30 
    19dc:	5e 00 11 fc 	jsr	@0x11fc:24
    19e0:	fa 01       	mov.b	#0x1,r2l
    19e2:	68 ea       	mov.b	r2l,@r6
    19e4:	7a 16 00 00 	add.l	#0xa3,er6
    19e8:	00 a3 
    19ea:	1a a2       	sub.l	er2,er2
    19ec:	8a 50       	add.b	#0x50,r2l
    19ee:	79 01 00 ff 	mov.w	#0xff,r1
    19f2:	0f e0       	mov.l	er6,er0
    19f4:	7a 16 ff ff 	add.l	#0xffffff5d,er6
    19f8:	ff 5d 
    19fa:	5e 00 11 fc 	jsr	@0x11fc:24
    19fe:	18 aa       	sub.b	r2l,r2l
    1a00:	6e ea 00 a2 	mov.b	r2l,@(0xa2:16,r6)
    1a04:	18 dd       	sub.b	r5l,r5l
    1a06:	6e fd 00 40 	mov.b	r5l,@(0x40:16,r7)
    1a0a:	79 04 00 01 	mov.w	#0x1,r4
    1a0e:	58 00 02 4e 	bra	.+590 (0x1c60)
    1a12:	18 cc       	sub.b	r4l,r4l
    1a14:	6e fc 00 43 	mov.b	r4l,@(0x43:16,r7)
    1a18:	19 11       	sub.w	r1,r1
    1a1a:	40 6a       	bra	.+106 (0x1a86)
    1a1c:	0d 12       	mov.w	r1,r2
    1a1e:	17 72       	extu.l	er2
    1a20:	0f e0       	mov.l	er6,er0
    1a22:	0a a0       	add.l	er2,er0
    1a24:	68 0a       	mov.b	@r0,r2l
    1a26:	47 5c       	beq	.+92 (0x1a84)
    1a28:	6f 72 00 3a 	mov.w	@(0x3a:16,r7),r2
    1a2c:	19 12       	sub.w	r1,r2
    1a2e:	17 72       	extu.l	er2
    1a30:	7a 16 00 00 	add.l	#0x51,er6
    1a34:	00 51 
    1a36:	0f e3       	mov.l	er6,er3
    1a38:	0a a3       	add.l	er2,er3
    1a3a:	7a 16 ff ff 	add.l	#0xffffffaf,er6
    1a3e:	ff af 
    1a40:	68 3a       	mov.b	@r3,r2l
    1a42:	aa ff       	cmp.b	#0xff,r2l
    1a44:	47 3e       	beq	.+62 (0x1a84)
    1a46:	68 0a       	mov.b	@r0,r2l
    1a48:	f2 00       	mov.b	#0x0,r2h
    1a4a:	17 72       	extu.l	er2
    1a4c:	78 20 6a 28 	mov.b	@(0x270:32,r2),r0l
    1a50:	00 00 02 70 
    1a54:	f0 00       	mov.b	#0x0,r0h
    1a56:	68 3a       	mov.b	@r3,r2l
    1a58:	f2 00       	mov.b	#0x0,r2h
    1a5a:	09 20       	add.w	r2,r0
    1a5c:	01 00 6f f1 	mov.l	er1,@(0x20:16,r7)
    1a60:	00 20 
    1a62:	5e 00 16 60 	jsr	@0x1660:24
    1a66:	0c 8a       	mov.b	r0l,r2l
    1a68:	f2 00       	mov.b	#0x0,r2h
    1a6a:	17 72       	extu.l	er2
    1a6c:	78 20 6a 2a 	mov.b	@(0x170:32,r2),r2l
    1a70:	00 00 01 70 
    1a74:	6e 7c 00 43 	mov.b	@(0x43:16,r7),r4l
    1a78:	15 ac       	xor.b	r2l,r4l
    1a7a:	6e fc 00 43 	mov.b	r4l,@(0x43:16,r7)
    1a7e:	01 00 6f 71 	mov.l	@(0x20:16,r7),er1
    1a82:	00 20 
    1a84:	0b 01       	adds	#1,r1
    1a86:	6f 75 00 3a 	mov.w	@(0x3a:16,r7),r5
    1a8a:	1d 51       	cmp.w	r5,r1
    1a8c:	45 8e       	bcs	.-114 (0x1a1c)
    1a8e:	6e 7a 00 43 	mov.b	@(0x43:16,r7),r2l
    1a92:	f2 00       	mov.b	#0x0,r2h
    1a94:	17 72       	extu.l	er2
    1a96:	7a 04 00 00 	mov.l	#0x270,er4
    1a9a:	02 70 
    1a9c:	01 00 6f f4 	mov.l	er4,@(0x2c:16,r7)
    1aa0:	00 2c 
    1aa2:	78 20 6a 2a 	mov.b	@(0x270:32,r2),r2l
    1aa6:	00 00 02 70 
    1aaa:	6e fa 00 43 	mov.b	r2l,@(0x43:16,r7)
    1aae:	aa ff       	cmp.b	#0xff,r2l
    1ab0:	46 2a       	bne	.+42 (0x1adc)
    1ab2:	6f 70 00 56 	mov.w	@(0x56:16,r7),r0
    1ab6:	4f 1a       	ble	.+26 (0x1ad2)
    1ab8:	0d 02       	mov.w	r0,r2
    1aba:	17 f2       	exts.l	er2
    1abc:	7a 12 00 00 	add.l	#0xa2,er2
    1ac0:	00 a2 
    1ac2:	0f e3       	mov.l	er6,er3
    1ac4:	0a a3       	add.l	er2,er3
    1ac6:	6e 3a ff ff 	mov.b	@(0xffff:16,r3),r2l
    1aca:	68 ba       	mov.b	r2l,@r3
    1acc:	1b 00       	subs	#1,r0
    1ace:	0d 00       	mov.w	r0,r0
    1ad0:	4e e6       	bgt	.-26 (0x1ab8)
    1ad2:	fa ff       	mov.b	#0xff,r2l
    1ad4:	6e ea 00 a2 	mov.b	r2l,@(0xa2:16,r6)
    1ad8:	58 00 01 7e 	bra	.+382 (0x1c5a)
    1adc:	68 6a       	mov.b	@r6,r2l
    1ade:	6e ea 00 f3 	mov.b	r2l,@(0xf3:16,r6)
    1ae2:	19 11       	sub.w	r1,r1
    1ae4:	58 00 00 8e 	bra	.+142 (0x1b76)
    1ae8:	0d 12       	mov.w	r1,r2
    1aea:	17 72       	extu.l	er2
    1aec:	7a 16 00 00 	add.l	#0xa2,er6
    1af0:	00 a2 
    1af2:	0f e3       	mov.l	er6,er3
    1af4:	0a a3       	add.l	er2,er3
    1af6:	7a 16 ff ff 	add.l	#0xffffff5e,er6
    1afa:	ff 5e 
    1afc:	68 3a       	mov.b	@r3,r2l
    1afe:	6f f1 00 18 	mov.w	r1,@(0x18:16,r7)
    1b02:	0d 14       	mov.w	r1,r4
    1b04:	0b 04       	adds	#1,r4
    1b06:	6f f4 00 18 	mov.w	r4,@(0x18:16,r7)
    1b0a:	01 00 6f f6 	mov.l	er6,@(0x10:16,r7)
    1b0e:	00 10 
    1b10:	0f e5       	mov.l	er6,er5
    1b12:	7a 15 00 00 	add.l	#0xf3,er5
    1b16:	00 f3 
    1b18:	01 00 6f f5 	mov.l	er5,@(0x10:16,r7)
    1b1c:	00 10 
    1b1e:	aa ff       	cmp.b	#0xff,r2l
    1b20:	47 3c       	beq	.+60 (0x1b5e)
    1b22:	6e 78 00 43 	mov.b	@(0x43:16,r7),r0l
    1b26:	f0 00       	mov.b	#0x0,r0h
    1b28:	68 3a       	mov.b	@r3,r2l
    1b2a:	f2 00       	mov.b	#0x0,r2h
    1b2c:	09 20       	add.w	r2,r0
    1b2e:	01 00 6f f1 	mov.l	er1,@(0x20:16,r7)
    1b32:	00 20 
    1b34:	5e 00 16 60 	jsr	@0x1660:24
    1b38:	0d 42       	mov.w	r4,r2
    1b3a:	17 72       	extu.l	er2
    1b3c:	0a a5       	add.l	er2,er5
    1b3e:	0f e3       	mov.l	er6,er3
    1b40:	0a a3       	add.l	er2,er3
    1b42:	0c 8a       	mov.b	r0l,r2l
    1b44:	f2 00       	mov.b	#0x0,r2h
    1b46:	17 72       	extu.l	er2
    1b48:	78 20 6a 2a 	mov.b	@(0x170:32,r2),r2l
    1b4c:	00 00 01 70 
    1b50:	68 3b       	mov.b	@r3,r3l
    1b52:	15 ba       	xor.b	r3l,r2l
    1b54:	68 da       	mov.b	r2l,@r5
    1b56:	01 00 6f 71 	mov.l	@(0x20:16,r7),er1
    1b5a:	00 20 
    1b5c:	40 16       	bra	.+22 (0x1b74)
    1b5e:	6f 72 00 18 	mov.w	@(0x18:16,r7),r2
    1b62:	17 72       	extu.l	er2
    1b64:	01 00 6f 74 	mov.l	@(0x10:16,r7),er4
    1b68:	00 10 
    1b6a:	0a a4       	add.l	er2,er4
    1b6c:	0f e3       	mov.l	er6,er3
    1b6e:	0a a3       	add.l	er2,er3
    1b70:	68 3a       	mov.b	@r3,r2l
    1b72:	68 ca       	mov.b	r2l,@r4
    1b74:	0b 01       	adds	#1,r1
    1b76:	6f 75 00 56 	mov.w	@(0x56:16,r7),r5
    1b7a:	1d 51       	cmp.w	r5,r1
    1b7c:	58 50 ff 68 	bcs	.-152 (0x1ae8)
    1b80:	6e 7b 00 40 	mov.b	@(0x40:16,r7),r3l
    1b84:	f3 00       	mov.b	#0x0,r3h
    1b86:	09 33       	add.w	r3,r3
    1b88:	6f 72 00 3a 	mov.w	@(0x3a:16,r7),r2
    1b8c:	1b 02       	subs	#1,r2
    1b8e:	1d 23       	cmp.w	r2,r3
    1b90:	58 e0 00 82 	bgt	.+130 (0x1c16)
    1b94:	6e 7c 00 3b 	mov.b	@(0x3b:16,r7),r4l
    1b98:	6e 7d 00 40 	mov.b	@(0x40:16,r7),r5l
    1b9c:	18 dc       	sub.b	r5l,r4l
    1b9e:	6e fc 00 40 	mov.b	r4l,@(0x40:16,r7)
    1ba2:	19 44       	sub.w	r4,r4
    1ba4:	6f f4 00 16 	mov.w	r4,@(0x16:16,r7)
    1ba8:	6f 75 00 56 	mov.w	@(0x56:16,r7),r5
    1bac:	1d 54       	cmp.w	r5,r4
    1bae:	58 20 00 8a 	bhi	.+138 (0x1c3c)
    1bb2:	6f 72 00 16 	mov.w	@(0x16:16,r7),r2
    1bb6:	17 72       	extu.l	er2
    1bb8:	7a 16 00 00 	add.l	#0xa2,er6
    1bbc:	00 a2 
    1bbe:	0f e1       	mov.l	er6,er1
    1bc0:	0a a1       	add.l	er2,er1
    1bc2:	7a 16 ff ff 	add.l	#0xffffff5e,er6
    1bc6:	ff 5e 
    1bc8:	0f e3       	mov.l	er6,er3
    1bca:	0a a3       	add.l	er2,er3
    1bcc:	68 3a       	mov.b	@r3,r2l
    1bce:	47 2e       	beq	.+46 (0x1bfe)
    1bd0:	f2 00       	mov.b	#0x0,r2h
    1bd2:	17 72       	extu.l	er2
    1bd4:	01 00 6f 74 	mov.l	@(0x2c:16,r7),er4
    1bd8:	00 2c 
    1bda:	0a c2       	add.l	er4,er2
    1bdc:	68 28       	mov.b	@r2,r0l
    1bde:	f0 00       	mov.b	#0x0,r0h
    1be0:	6e 7a 00 43 	mov.b	@(0x43:16,r7),r2l
    1be4:	f2 00       	mov.b	#0x0,r2h
    1be6:	19 20       	sub.w	r2,r0
    1be8:	79 10 00 ff 	add.w	#0xff,r0
    1bec:	01 00 6f f1 	mov.l	er1,@(0x20:16,r7)
    1bf0:	00 20 
    1bf2:	5e 00 16 60 	jsr	@0x1660:24
    1bf6:	01 00 6f 71 	mov.l	@(0x20:16,r7),er1
    1bfa:	00 20 
    1bfc:	40 02       	bra	.+2 (0x1c00)
    1bfe:	f8 ff       	mov.b	#0xff,r0l
    1c00:	68 98       	mov.b	r0l,@r1
    1c02:	6f 75 00 16 	mov.w	@(0x16:16,r7),r5
    1c06:	0b 05       	adds	#1,r5
    1c08:	6f f5 00 16 	mov.w	r5,@(0x16:16,r7)
    1c0c:	6f 74 00 56 	mov.w	@(0x56:16,r7),r4
    1c10:	1d 45       	cmp.w	r4,r5
    1c12:	43 9e       	bls	.-98 (0x1bb2)
    1c14:	40 26       	bra	.+38 (0x1c3c)
    1c16:	6f 70 00 56 	mov.w	@(0x56:16,r7),r0
    1c1a:	4f 1a       	ble	.+26 (0x1c36)
    1c1c:	0d 02       	mov.w	r0,r2
    1c1e:	17 f2       	exts.l	er2
    1c20:	7a 12 00 00 	add.l	#0xa2,er2
    1c24:	00 a2 
    1c26:	0f e3       	mov.l	er6,er3
    1c28:	0a a3       	add.l	er2,er3
    1c2a:	6e 3a ff ff 	mov.b	@(0xffff:16,r3),r2l
    1c2e:	68 ba       	mov.b	r2l,@r3
    1c30:	1b 00       	subs	#1,r0
    1c32:	0d 00       	mov.w	r0,r0
    1c34:	4e e6       	bgt	.-26 (0x1c1c)
    1c36:	fa ff       	mov.b	#0xff,r2l
    1c38:	6e ea 00 a2 	mov.b	r2l,@(0xa2:16,r6)
    1c3c:	6f 75 00 56 	mov.w	@(0x56:16,r7),r5
    1c40:	0b 05       	adds	#1,r5
    1c42:	0d 52       	mov.w	r5,r2
    1c44:	17 f2       	exts.l	er2
    1c46:	1b 05       	subs	#1,r5
    1c48:	6f f5 00 56 	mov.w	r5,@(0x56:16,r7)
    1c4c:	0f e1       	mov.l	er6,er1
    1c4e:	7a 11 00 00 	add.l	#0xf3,er1
    1c52:	00 f3 
    1c54:	0f e0       	mov.l	er6,er0
    1c56:	5e 00 12 0c 	jsr	@0x120c:24
    1c5a:	6f 74 00 3a 	mov.w	@(0x3a:16,r7),r4
    1c5e:	0b 04       	adds	#1,r4
    1c60:	6f f4 00 3a 	mov.w	r4,@(0x3a:16,r7)
    1c64:	6f 75 00 56 	mov.w	@(0x56:16,r7),r5
    1c68:	1d 54       	cmp.w	r5,r4
    1c6a:	58 f0 fd a4 	ble	.-604 (0x1a12)
    1c6e:	18 cc       	sub.b	r4l,r4l
    1c70:	6e fc 00 41 	mov.b	r4l,@(0x41:16,r7)
    1c74:	19 00       	sub.w	r0,r0
    1c76:	6f 75 00 56 	mov.w	@(0x56:16,r7),r5
    1c7a:	1d 50       	cmp.w	r5,r0
    1c7c:	42 2a       	bhi	.+42 (0x1ca8)
    1c7e:	0d 02       	mov.w	r0,r2
    1c80:	17 72       	extu.l	er2
    1c82:	0f e3       	mov.l	er6,er3
    1c84:	0a a3       	add.l	er2,er3
    1c86:	68 3a       	mov.b	@r3,r2l
    1c88:	f2 00       	mov.b	#0x0,r2h
    1c8a:	17 72       	extu.l	er2
    1c8c:	78 20 6a 2a 	mov.b	@(0x270:32,r2),r2l
    1c90:	00 00 02 70 
    1c94:	68 ba       	mov.b	r2l,@r3
    1c96:	aa ff       	cmp.b	#0xff,r2l
    1c98:	47 04       	beq	.+4 (0x1c9e)
    1c9a:	6e f8 00 41 	mov.b	r0l,@(0x41:16,r7)
    1c9e:	0b 00       	adds	#1,r0
    1ca0:	6f 74 00 56 	mov.w	@(0x56:16,r7),r4
    1ca4:	1d 40       	cmp.w	r4,r0
    1ca6:	43 d6       	bls	.-42 (0x1c7e)
    1ca8:	7a 16 00 00 	add.l	#0x1e6,er6
    1cac:	01 e6 
    1cae:	01 00 6f 72 	mov.l	@(0x34:16,r7),er2
    1cb2:	00 34 
    1cb4:	01 00 6f 71 	mov.l	@(0x30:16,r7),er1
    1cb8:	00 30 
    1cba:	0f e0       	mov.l	er6,er0
    1cbc:	7a 16 ff ff 	add.l	#0xfffffe1a,er6
    1cc0:	fe 1a 
    1cc2:	5e 00 12 0c 	jsr	@0x120c:24
    1cc6:	19 55       	sub.w	r5,r5
    1cc8:	6f f5 00 38 	mov.w	r5,@(0x38:16,r7)
    1ccc:	79 01 00 01 	mov.w	#0x1,r1
    1cd0:	fc 01       	mov.b	#0x1,r4l
    1cd2:	6e fc 00 45 	mov.b	r4l,@(0x45:16,r7)
    1cd6:	6e 7d 00 41 	mov.b	@(0x41:16,r7),r5l
    1cda:	f5 00       	mov.b	#0x0,r5h
    1cdc:	6f f5 00 24 	mov.w	r5,@(0x24:16,r7)
    1ce0:	6f 73 00 24 	mov.w	@(0x24:16,r7),r3
    1ce4:	0d 55       	mov.w	r5,r5
    1ce6:	4f 68       	ble	.+104 (0x1d50)
    1ce8:	0d 32       	mov.w	r3,r2
    1cea:	17 f2       	exts.l	er2
    1cec:	7a 16 00 00 	add.l	#0x1e5,er6
    1cf0:	01 e5 
    1cf2:	01 00 6f f6 	mov.l	er6,@(0x10:16,r7)
    1cf6:	00 10 
    1cf8:	0f e4       	mov.l	er6,er4
    1cfa:	0a a4       	add.l	er2,er4
    1cfc:	01 00 6f f4 	mov.l	er4,@(0x10:16,r7)
    1d00:	00 10 
    1d02:	7a 16 ff ff 	add.l	#0xfffffe1b,er6
    1d06:	fe 1b 
    1d08:	68 4a       	mov.b	@r4,r2l
    1d0a:	aa ff       	cmp.b	#0xff,r2l
    1d0c:	47 3c       	beq	.+60 (0x1d4a)
    1d0e:	68 48       	mov.b	@r4,r0l
    1d10:	f0 00       	mov.b	#0x0,r0h
    1d12:	09 30       	add.w	r3,r0
    1d14:	01 00 6f f1 	mov.l	er1,@(0x20:16,r7)
    1d18:	00 20 
    1d1a:	01 00 6f f3 	mov.l	er3,@(0xc:16,r7)
    1d1e:	00 0c 
    1d20:	5e 00 16 60 	jsr	@0x1660:24
    1d24:	68 c8       	mov.b	r0l,@r4
    1d26:	68 4a       	mov.b	@r4,r2l
    1d28:	f2 00       	mov.b	#0x0,r2h
    1d2a:	17 72       	extu.l	er2
    1d2c:	78 20 6a 2a 	mov.b	@(0x170:32,r2),r2l
    1d30:	00 00 01 70 
    1d34:	6e 7d 00 45 	mov.b	@(0x45:16,r7),r5l
    1d38:	15 ad       	xor.b	r2l,r5l
    1d3a:	6e fd 00 45 	mov.b	r5l,@(0x45:16,r7)
    1d3e:	01 00 6f 73 	mov.l	@(0xc:16,r7),er3
    1d42:	00 0c 
    1d44:	01 00 6f 71 	mov.l	@(0x20:16,r7),er1
    1d48:	00 20 
    1d4a:	1b 03       	subs	#1,r3
    1d4c:	0d 33       	mov.w	r3,r3
    1d4e:	4e 98       	bgt	.-104 (0x1ce8)
    1d50:	6e 7c 00 45 	mov.b	@(0x45:16,r7),r4l
    1d54:	46 24       	bne	.+36 (0x1d7a)
    1d56:	6f 73 00 38 	mov.w	@(0x38:16,r7),r3
    1d5a:	17 f3       	exts.l	er3
    1d5c:	0f e2       	mov.l	er6,er2
    1d5e:	0a b2       	add.l	er3,er2
    1d60:	6e a9 01 95 	mov.b	r1l,@(0x195:16,r2)
    1d64:	0f e2       	mov.l	er6,er2
    1d66:	0a b2       	add.l	er3,er2
    1d68:	0c 9b       	mov.b	r1l,r3l
    1d6a:	17 0b       	not.b	r3l
    1d6c:	6e ab 02 36 	mov.b	r3l,@(0x236:16,r2)
    1d70:	6f 75 00 38 	mov.w	@(0x38:16,r7),r5
    1d74:	0b 05       	adds	#1,r5
    1d76:	6f f5 00 38 	mov.w	r5,@(0x38:16,r7)
    1d7a:	0b 01       	adds	#1,r1
    1d7c:	79 21 00 ff 	cmp.w	#0xff,r1
    1d80:	58 f0 ff 4c 	ble	.-180 (0x1cd0)
    1d84:	6f 74 00 24 	mov.w	@(0x24:16,r7),r4
    1d88:	6f 75 00 38 	mov.w	@(0x38:16,r7),r5
    1d8c:	1d 54       	cmp.w	r5,r4
    1d8e:	47 08       	beq	.+8 (0x1d98)
    1d90:	79 00 ff ff 	mov.w	#0xffff,r0
    1d94:	58 00 02 a4 	bra	.+676 (0x203c)
    1d98:	18 cc       	sub.b	r4l,r4l
    1d9a:	6e fc 00 3f 	mov.b	r4l,@(0x3f:16,r7)
    1d9e:	19 11       	sub.w	r1,r1
    1da0:	6f 75 00 56 	mov.w	@(0x56:16,r7),r5
    1da4:	1d 51       	cmp.w	r5,r1
    1da6:	58 c0 00 c4 	bge	.+196 (0x1e6e)
    1daa:	18 cc       	sub.b	r4l,r4l
    1dac:	6e fc 00 1f 	mov.b	r4l,@(0x1f:16,r7)
    1db0:	6f f1 00 3c 	mov.w	r1,@(0x3c:16,r7)
    1db4:	6f 75 00 24 	mov.w	@(0x24:16,r7),r5
    1db8:	1d 51       	cmp.w	r5,r1
    1dba:	4f 04       	ble	.+4 (0x1dc0)
    1dbc:	6f f5 00 3c 	mov.w	r5,@(0x3c:16,r7)
    1dc0:	6f 74 00 3c 	mov.w	@(0x3c:16,r7),r4
    1dc4:	4d 76       	blt	.+118 (0x1e3c)
    1dc6:	6f 75 00 3c 	mov.w	@(0x3c:16,r7),r5
    1dca:	6f f5 00 10 	mov.w	r5,@(0x10:16,r7)
    1dce:	0d 54       	mov.w	r5,r4
    1dd0:	1b 04       	subs	#1,r4
    1dd2:	6f f4 00 10 	mov.w	r4,@(0x10:16,r7)
    1dd6:	0d 12       	mov.w	r1,r2
    1dd8:	19 42       	sub.w	r4,r2
    1dda:	17 f2       	exts.l	er2
    1ddc:	7a 16 00 00 	add.l	#0x51,er6
    1de0:	00 51 
    1de2:	0f e0       	mov.l	er6,er0
    1de4:	0a a0       	add.l	er2,er0
    1de6:	7a 16 ff ff 	add.l	#0xffffffaf,er6
    1dea:	ff af 
    1dec:	68 0a       	mov.b	@r0,r2l
    1dee:	aa ff       	cmp.b	#0xff,r2l
    1df0:	47 3e       	beq	.+62 (0x1e30)
    1df2:	0d 52       	mov.w	r5,r2
    1df4:	17 f2       	exts.l	er2
    1df6:	0f e3       	mov.l	er6,er3
    1df8:	0a a3       	add.l	er2,er3
    1dfa:	68 3a       	mov.b	@r3,r2l
    1dfc:	aa ff       	cmp.b	#0xff,r2l
    1dfe:	47 30       	beq	.+48 (0x1e30)
    1e00:	68 08       	mov.b	@r0,r0l
    1e02:	f0 00       	mov.b	#0x0,r0h
    1e04:	f2 00       	mov.b	#0x0,r2h
    1e06:	09 20       	add.w	r2,r0
    1e08:	01 00 6f f1 	mov.l	er1,@(0x20:16,r7)
    1e0c:	00 20 
    1e0e:	5e 00 16 60 	jsr	@0x1660:24
    1e12:	0c 8a       	mov.b	r0l,r2l
    1e14:	f2 00       	mov.b	#0x0,r2h
    1e16:	17 72       	extu.l	er2
    1e18:	78 20 6a 2a 	mov.b	@(0x170:32,r2),r2l
    1e1c:	00 00 01 70 
    1e20:	6e 7d 00 1f 	mov.b	@(0x1f:16,r7),r5l
    1e24:	15 ad       	xor.b	r2l,r5l
    1e26:	6e fd 00 1f 	mov.b	r5l,@(0x1f:16,r7)
    1e2a:	01 00 6f 71 	mov.l	@(0x20:16,r7),er1
    1e2e:	00 20 
    1e30:	6f 74 00 10 	mov.w	@(0x10:16,r7),r4
    1e34:	6f f4 00 3c 	mov.w	r4,@(0x3c:16,r7)
    1e38:	0d 44       	mov.w	r4,r4
    1e3a:	4c 8a       	bge	.-118 (0x1dc6)
    1e3c:	6e 7d 00 1f 	mov.b	@(0x1f:16,r7),r5l
    1e40:	47 04       	beq	.+4 (0x1e46)
    1e42:	6e f9 00 3f 	mov.b	r1l,@(0x3f:16,r7)
    1e46:	0d 12       	mov.w	r1,r2
    1e48:	17 f2       	exts.l	er2
    1e4a:	0f e3       	mov.l	er6,er3
    1e4c:	0a a3       	add.l	er2,er3
    1e4e:	6e 7a 00 1f 	mov.b	@(0x1f:16,r7),r2l
    1e52:	f2 00       	mov.b	#0x0,r2h
    1e54:	17 72       	extu.l	er2
    1e56:	78 20 6a 2a 	mov.b	@(0x270:32,r2),r2l
    1e5a:	00 00 02 70 
    1e5e:	6e ba 01 44 	mov.b	r2l,@(0x144:16,r3)
    1e62:	0b 01       	adds	#1,r1
    1e64:	6f 74 00 56 	mov.w	@(0x56:16,r7),r4
    1e68:	1d 41       	cmp.w	r4,r1
    1e6a:	58 d0 ff 3c 	blt	.-196 (0x1daa)
    1e6e:	01 00 6f f6 	mov.l	er6,@(0x28:16,r7)
    1e72:	00 28 
    1e74:	0f e5       	mov.l	er6,er5
    1e76:	7a 15 00 00 	add.l	#0x144,er5
    1e7a:	01 44 
    1e7c:	01 00 6f f5 	mov.l	er5,@(0x28:16,r7)
    1e80:	00 28 
    1e82:	01 00 6f 72 	mov.l	@(0x28:16,r7),er2
    1e86:	00 28 
    1e88:	01 00 6f 74 	mov.l	@(0x34:16,r7),er4
    1e8c:	00 34 
    1e8e:	0a c2       	add.l	er4,er2
    1e90:	fb ff       	mov.b	#0xff,r3l
    1e92:	68 ab       	mov.b	r3l,@r2
    1e94:	6f 75 00 38 	mov.w	@(0x38:16,r7),r5
    1e98:	6f f5 00 3c 	mov.w	r5,@(0x3c:16,r7)
    1e9c:	0d 54       	mov.w	r5,r4
    1e9e:	58 00 01 8a 	bra	.+394 (0x202c)
    1ea2:	18 dd       	sub.b	r5l,r5l
    1ea4:	6e fd 00 44 	mov.b	r5l,@(0x44:16,r7)
    1ea8:	6f 74 00 3c 	mov.w	@(0x3c:16,r7),r4
    1eac:	17 f4       	exts.l	er4
    1eae:	01 00 6f f4 	mov.l	er4,@(0x18:16,r7)
    1eb2:	00 18 
    1eb4:	0f e2       	mov.l	er6,er2
    1eb6:	0a c2       	add.l	er4,er2
    1eb8:	6e 2a 01 95 	mov.b	@(0x195:16,r2),r2l
    1ebc:	6e fa 00 45 	mov.b	r2l,@(0x45:16,r7)
    1ec0:	6e 79 00 3f 	mov.b	@(0x3f:16,r7),r1l
    1ec4:	f1 00       	mov.b	#0x0,r1h
    1ec6:	0d 11       	mov.w	r1,r1
    1ec8:	4d 50       	blt	.+80 (0x1f1a)
    1eca:	0d 12       	mov.w	r1,r2
    1ecc:	17 f2       	exts.l	er2
    1ece:	01 00 6f 73 	mov.l	@(0x28:16,r7),er3
    1ed2:	00 28 
    1ed4:	0a a3       	add.l	er2,er3
    1ed6:	68 3a       	mov.b	@r3,r2l
    1ed8:	aa ff       	cmp.b	#0xff,r2l
    1eda:	47 38       	beq	.+56 (0x1f14)
    1edc:	0c a8       	mov.b	r2l,r0l
    1ede:	f0 00       	mov.b	#0x0,r0h
    1ee0:	6e 7a 00 45 	mov.b	@(0x45:16,r7),r2l
    1ee4:	f2 00       	mov.b	#0x0,r2h
    1ee6:	01 c0 52 12 	mulxs.w	r1,er2
    1eea:	09 20       	add.w	r2,r0
    1eec:	01 00 6f f1 	mov.l	er1,@(0x20:16,r7)
    1ef0:	00 20 
    1ef2:	5e 00 16 60 	jsr	@0x1660:24
    1ef6:	0c 8a       	mov.b	r0l,r2l
    1ef8:	f2 00       	mov.b	#0x0,r2h
    1efa:	17 72       	extu.l	er2
    1efc:	78 20 6a 2a 	mov.b	@(0x170:32,r2),r2l
    1f00:	00 00 01 70 
    1f04:	6e 7d 00 44 	mov.b	@(0x44:16,r7),r5l
    1f08:	15 ad       	xor.b	r2l,r5l
    1f0a:	6e fd 00 44 	mov.b	r5l,@(0x44:16,r7)
    1f0e:	01 00 6f 71 	mov.l	@(0x20:16,r7),er1
    1f12:	00 20 
    1f14:	1b 01       	subs	#1,r1
    1f16:	0d 11       	mov.w	r1,r1
    1f18:	4c b0       	bge	.-80 (0x1eca)
    1f1a:	18 99       	sub.b	r1l,r1l
    1f1c:	6e 7b 00 41 	mov.b	@(0x41:16,r7),r3l
    1f20:	f3 00       	mov.b	#0x0,r3h
    1f22:	6f 72 00 56 	mov.w	@(0x56:16,r7),r2
    1f26:	1b 02       	subs	#1,r2
    1f28:	1d 32       	cmp.w	r3,r2
    1f2a:	4f 02       	ble	.+2 (0x1f2e)
    1f2c:	0d 32       	mov.w	r3,r2
    1f2e:	ea fe       	and.b	#0xfe,r2l
    1f30:	6f f2 00 10 	mov.w	r2,@(0x10:16,r7)
    1f34:	0d 22       	mov.w	r2,r2
    1f36:	4d 58       	blt	.+88 (0x1f90)
    1f38:	6f 74 00 10 	mov.w	@(0x10:16,r7),r4
    1f3c:	0b 04       	adds	#1,r4
    1f3e:	0d 42       	mov.w	r4,r2
    1f40:	17 f2       	exts.l	er2
    1f42:	1b 04       	subs	#1,r4
    1f44:	6f f4 00 10 	mov.w	r4,@(0x10:16,r7)
    1f48:	0f e3       	mov.l	er6,er3
    1f4a:	0a a3       	add.l	er2,er3
    1f4c:	68 3a       	mov.b	@r3,r2l
    1f4e:	aa ff       	cmp.b	#0xff,r2l
    1f50:	47 30       	beq	.+48 (0x1f82)
    1f52:	0c a8       	mov.b	r2l,r0l
    1f54:	f0 00       	mov.b	#0x0,r0h
    1f56:	6e 7a 00 45 	mov.b	@(0x45:16,r7),r2l
    1f5a:	f2 00       	mov.b	#0x0,r2h
    1f5c:	01 c0 52 42 	mulxs.w	r4,er2
    1f60:	09 20       	add.w	r2,r0
    1f62:	01 00 6f f1 	mov.l	er1,@(0x20:16,r7)
    1f66:	00 20 
    1f68:	5e 00 16 60 	jsr	@0x1660:24
    1f6c:	0c 8a       	mov.b	r0l,r2l
    1f6e:	f2 00       	mov.b	#0x0,r2h
    1f70:	17 72       	extu.l	er2
    1f72:	78 20 6a 2a 	mov.b	@(0x170:32,r2),r2l
    1f76:	00 00 01 70 
    1f7a:	01 00 6f 71 	mov.l	@(0x20:16,r7),er1
    1f7e:	00 20 
    1f80:	15 a9       	xor.b	r2l,r1l
    1f82:	6f 75 00 10 	mov.w	@(0x10:16,r7),r5
    1f86:	1b 85       	subs	#2,r5
    1f88:	6f f5 00 10 	mov.w	r5,@(0x10:16,r7)
    1f8c:	0d 55       	mov.w	r5,r5
    1f8e:	4c a8       	bge	.-88 (0x1f38)
    1f90:	0c 99       	mov.b	r1l,r1l
    1f92:	58 70 fd fa 	beq	.-518 (0x1d90)
    1f96:	6e 7c 00 44 	mov.b	@(0x44:16,r7),r4l
    1f9a:	58 70 00 8a 	beq	.+138 (0x2028)
    1f9e:	7a 16 00 00 	add.l	#0x236,er6
    1fa2:	02 36 
    1fa4:	0f e2       	mov.l	er6,er2
    1fa6:	01 00 6f 75 	mov.l	@(0x18:16,r7),er5
    1faa:	00 18 
    1fac:	0a d2       	add.l	er5,er2
    1fae:	7a 16 ff ff 	add.l	#0xfffffdca,er6
    1fb2:	fd ca 
    1fb4:	68 2b       	mov.b	@r2,r3l
    1fb6:	f3 00       	mov.b	#0x0,r3h
    1fb8:	68 2a       	mov.b	@r2,r2l
    1fba:	6f 74 00 56 	mov.w	@(0x56:16,r7),r4
    1fbe:	1d 43       	cmp.w	r4,r3
    1fc0:	4d 0c       	blt	.+12 (0x1fce)
    1fc2:	6e 7d 00 57 	mov.b	@(0x57:16,r7),r5l
    1fc6:	18 da       	sub.b	r5l,r2l
    1fc8:	6e fa 00 1f 	mov.b	r2l,@(0x1f:16,r7)
    1fcc:	40 0a       	bra	.+10 (0x1fd8)
    1fce:	6e 7c 00 47 	mov.b	@(0x47:16,r7),r4l
    1fd2:	08 ac       	add.b	r2l,r4l
    1fd4:	6e fc 00 1f 	mov.b	r4l,@(0x1f:16,r7)
    1fd8:	6e 7a 00 44 	mov.b	@(0x44:16,r7),r2l
    1fdc:	f2 00       	mov.b	#0x0,r2h
    1fde:	17 72       	extu.l	er2
    1fe0:	78 20 6a 28 	mov.b	@(0x270:32,r2),r0l
    1fe4:	00 00 02 70 
    1fe8:	f0 00       	mov.b	#0x0,r0h
    1fea:	0c 9a       	mov.b	r1l,r2l
    1fec:	f2 00       	mov.b	#0x0,r2h
    1fee:	17 72       	extu.l	er2
    1ff0:	78 20 6a 2a 	mov.b	@(0x270:32,r2),r2l
    1ff4:	00 00 02 70 
    1ff8:	f2 00       	mov.b	#0x0,r2h
    1ffa:	79 12 ff 01 	add.w	#0xff01,r2
    1ffe:	19 20       	sub.w	r2,r0
    2000:	5e 00 16 60 	jsr	@0x1660:24
    2004:	6e 7a 00 1f 	mov.b	@(0x1f:16,r7),r2l
    2008:	f2 00       	mov.b	#0x0,r2h
    200a:	17 72       	extu.l	er2
    200c:	01 00 6f 73 	mov.l	@(0x48:16,r7),er3
    2010:	00 48 
    2012:	0a a3       	add.l	er2,er3
    2014:	0c 8a       	mov.b	r0l,r2l
    2016:	f2 00       	mov.b	#0x0,r2h
    2018:	17 72       	extu.l	er2
    201a:	78 20 6a 2a 	mov.b	@(0x170:32,r2),r2l
    201e:	00 00 01 70 
    2022:	68 3d       	mov.b	@r3,r5l
    2024:	15 da       	xor.b	r5l,r2l
    2026:	68 ba       	mov.b	r2l,@r3
    2028:	6f 74 00 3c 	mov.w	@(0x3c:16,r7),r4
    202c:	1b 04       	subs	#1,r4
    202e:	6f f4 00 3c 	mov.w	r4,@(0x3c:16,r7)
    2032:	0d 44       	mov.w	r4,r4
    2034:	58 c0 fe 6a 	bge	.-406 (0x1ea2)
    2038:	6f 70 00 38 	mov.w	@(0x38:16,r7),r0
    203c:	01 20 6d 76 	ldm.l	@sp+,er4-er6
    2040:	7a 17 00 00 	add.l	#0x40,er7
    2044:	00 40 
    2046:	54 70       	rts	
    2048:	1b 97       	subs	#4,r7
    204a:	1b 97       	subs	#4,r7
    204c:	01 20 6d f4 	stm.l	er4-er6,@-sp
    2050:	6f f1 00 0e 	mov.w	r1,@(0xe:16,r7)
    2054:	0d 24       	mov.w	r2,r4
    2056:	0d 12       	mov.w	r1,r2
    2058:	17 f2       	exts.l	er2
    205a:	78 20 6a 2e 	mov.b	@(0xffed04:32,r2),r6l
    205e:	00 ff ed 04 
    2062:	0d 15       	mov.w	r1,r5
    2064:	1b 05       	subs	#1,r5
    2066:	6f f5 00 0e 	mov.w	r5,@(0xe:16,r7)
    206a:	6f 72 00 0e 	mov.w	@(0xe:16,r7),r2
    206e:	09 42       	add.w	r4,r2
    2070:	0b 05       	adds	#1,r5
    2072:	6f f5 00 0e 	mov.w	r5,@(0xe:16,r7)
    2076:	0d 23       	mov.w	r2,r3
    2078:	0d 22       	mov.w	r2,r2
    207a:	4c 04       	bge	.+4 (0x2080)
    207c:	0b 83       	adds	#2,r3
    207e:	0b 03       	adds	#1,r3
    2080:	eb fc       	and.b	#0xfc,r3l
    2082:	19 32       	sub.w	r3,r2
    2084:	17 f2       	exts.l	er2
    2086:	78 20 6a 2a 	mov.b	@(0xffed08:32,r2),r2l
    208a:	00 ff ed 08 
    208e:	6e fa 00 13 	mov.b	r2l,@(0x13:16,r7)
    2092:	6f 72 00 1a 	mov.w	@(0x1a:16,r7),r2
    2096:	17 f2       	exts.l	er2
    2098:	78 20 6a 29 	mov.b	@(0xffed0c:32,r2),r1l
    209c:	00 ff ed 0c 
    20a0:	1b 94       	subs	#4,r4
    20a2:	6f 75 00 0e 	mov.w	@(0xe:16,r7),r5
    20a6:	09 54       	add.w	r5,r4
    20a8:	6e 7a 00 1f 	mov.b	@(0x1f:16,r7),r2l
    20ac:	46 36       	bne	.+54 (0x20e4)
    20ae:	0d 44       	mov.w	r4,r4
    20b0:	4f 1c       	ble	.+28 (0x20ce)
    20b2:	0c ea       	mov.b	r6l,r2l
    20b4:	17 0a       	not.b	r2l
    20b6:	68 0d       	mov.b	@r0,r5l
    20b8:	16 da       	and.b	r5l,r2l
    20ba:	16 9e       	and.b	r1l,r6l
    20bc:	14 ea       	or.b	r6l,r2l
    20be:	68 8a       	mov.b	r2l,@r0
    20c0:	fe ff       	mov.b	#0xff,r6l
    20c2:	0b 00       	adds	#1,r0
    20c4:	1b 94       	subs	#4,r4
    20c6:	0d 44       	mov.w	r4,r4
    20c8:	4f 04       	ble	.+4 (0x20ce)
    20ca:	68 89       	mov.b	r1l,@r0
    20cc:	40 f4       	bra	.-12 (0x20c2)
    20ce:	6e 7d 00 13 	mov.b	@(0x13:16,r7),r5l
    20d2:	16 de       	and.b	r5l,r6l
    20d4:	0c ea       	mov.b	r6l,r2l
    20d6:	17 0a       	not.b	r2l
    20d8:	68 0d       	mov.b	@r0,r5l
    20da:	16 da       	and.b	r5l,r2l
    20dc:	16 e9       	and.b	r6l,r1l
    20de:	14 9a       	or.b	r1l,r2l
    20e0:	68 8a       	mov.b	r2l,@r0
    20e2:	40 36       	bra	.+54 (0x211a)
    20e4:	0d 44       	mov.w	r4,r4
    20e6:	4f 20       	ble	.+32 (0x2108)
    20e8:	68 0b       	mov.b	@r0,r3l
    20ea:	0c ba       	mov.b	r3l,r2l
    20ec:	15 9a       	xor.b	r1l,r2l
    20ee:	16 ea       	and.b	r6l,r2l
    20f0:	17 0e       	not.b	r6l
    20f2:	16 eb       	and.b	r6l,r3l
    20f4:	14 ba       	or.b	r3l,r2l
    20f6:	68 8a       	mov.b	r2l,@r0
    20f8:	0b 00       	adds	#1,r0
    20fa:	1b 94       	subs	#4,r4
    20fc:	0d 44       	mov.w	r4,r4
    20fe:	4f 08       	ble	.+8 (0x2108)
    2100:	0c 9a       	mov.b	r1l,r2l
    2102:	68 0d       	mov.b	@r0,r5l
    2104:	15 da       	xor.b	r5l,r2l
    2106:	40 ee       	bra	.-18 (0x20f6)
    2108:	68 0b       	mov.b	@r0,r3l
    210a:	15 b9       	xor.b	r3l,r1l
    210c:	6e 7d 00 13 	mov.b	@(0x13:16,r7),r5l
    2110:	16 d9       	and.b	r5l,r1l
    2112:	17 0d       	not.b	r5l
    2114:	16 db       	and.b	r5l,r3l
    2116:	14 b9       	or.b	r3l,r1l
    2118:	68 89       	mov.b	r1l,@r0
    211a:	01 20 6d 76 	ldm.l	@sp+,er4-er6
    211e:	0b 97       	adds	#4,r7
    2120:	0b 97       	adds	#4,r7
    2122:	54 70       	rts	
    2124:	17 f0       	exts.l	er0
    2126:	10 70       	shll.l	#2,er0
    2128:	10 70       	shll.l	#2,er0
    212a:	10 70       	shll.l	#2,er0
    212c:	10 70       	shll.l	#2,er0
    212e:	7a 10 00 ff 	add.l	#0xffedfe,er0
    2132:	ed fe 
    2134:	54 70       	rts	
    2136:	7a 37 00 00 	sub.l	#0x10,er7
    213a:	00 10 
    213c:	01 20 6d f4 	stm.l	er4-er6,@-sp
    2140:	19 44       	sub.w	r4,r4
    2142:	6f f4 00 18 	mov.w	r4,@(0x18:16,r7)
    2146:	19 66       	sub.w	r6,r6
    2148:	6e fe 00 1b 	mov.b	r6l,@(0x1b:16,r7)
    214c:	19 55       	sub.w	r5,r5
    214e:	6f f5 00 0e 	mov.w	r5,@(0xe:16,r7)
    2152:	79 04 00 06 	mov.w	#0x6,r4
    2156:	6f f4 00 16 	mov.w	r4,@(0x16:16,r7)
    215a:	6e 78 00 1b 	mov.b	@(0x1b:16,r7),r0l
    215e:	0c 8a       	mov.b	r0l,r2l
    2160:	f2 00       	mov.b	#0x0,r2h
    2162:	6e 7d 00 17 	mov.b	@(0x17:16,r7),r5l
    2166:	0c dc       	mov.b	r5l,r4l
    2168:	4f 06       	ble	.+6 (0x2170)
    216a:	11 92       	shar.w	r2
    216c:	8c ff       	add.b	#0xff,r4l
    216e:	46 fa       	bne	.-6 (0x216a)
    2170:	ea 03       	and.b	#0x3,r2l
    2172:	e2 00       	and.b	#0x0,r2h
    2174:	0f f5       	mov.l	er7,er5
    2176:	7a 15 00 00 	add.l	#0x1b,er5
    217a:	00 1b 
    217c:	01 00 6f f5 	mov.l	er5,@(0x10:16,r7)
    2180:	00 10 
    2182:	6f 71 00 0e 	mov.w	@(0xe:16,r7),r1
    2186:	17 f1       	exts.l	er1
    2188:	6f 74 00 18 	mov.w	@(0x18:16,r7),r4
    218c:	1d 42       	cmp.w	r4,r2
    218e:	46 18       	bne	.+24 (0x21a8)
    2190:	78 10 6a 2b 	mov.b	@(0xffed10:32,r1),r3l
    2194:	00 ff ed 10 
    2198:	78 10 6a 2a 	mov.b	@(0xffed00:32,r1),r2l
    219c:	00 ff ed 00 
    21a0:	17 0a       	not.b	r2l
    21a2:	16 a8       	and.b	r2l,r0l
    21a4:	14 b8       	or.b	r3l,r0l
    21a6:	40 1e       	bra	.+30 (0x21c6)
    21a8:	0f 92       	mov.l	er1,er2
    21aa:	7a 12 00 ff 	add.l	#0xffed1c,er2
    21ae:	ed 1c 
    21b0:	68 2b       	mov.b	@r2,r3l
    21b2:	78 10 6a 2a 	mov.b	@(0xffed00:32,r1),r2l
    21b6:	00 ff ed 00 
    21ba:	17 0a       	not.b	r2l
    21bc:	16 a8       	and.b	r2l,r0l
    21be:	14 b8       	or.b	r3l,r0l
    21c0:	01 00 6f 75 	mov.l	@(0x10:16,r7),er5
    21c4:	00 10 
    21c6:	68 d8       	mov.b	r0l,@r5
    21c8:	6f 74 00 16 	mov.w	@(0x16:16,r7),r4
    21cc:	1b 84       	subs	#2,r4
    21ce:	6f f4 00 16 	mov.w	r4,@(0x16:16,r7)
    21d2:	6f 75 00 0e 	mov.w	@(0xe:16,r7),r5
    21d6:	0b 05       	adds	#1,r5
    21d8:	6f f5 00 0e 	mov.w	r5,@(0xe:16,r7)
    21dc:	79 25 00 03 	cmp.w	#0x3,r5
    21e0:	58 f0 ff 76 	ble	.-138 (0x215a)
    21e4:	0d 63       	mov.w	r6,r3
    21e6:	17 73       	extu.l	er3
    21e8:	6f 72 00 18 	mov.w	@(0x18:16,r7),r2
    21ec:	17 f2       	exts.l	er2
    21ee:	10 72       	shll.l	#2,er2
    21f0:	10 72       	shll.l	#2,er2
    21f2:	10 72       	shll.l	#2,er2
    21f4:	10 72       	shll.l	#2,er2
    21f6:	0a a3       	add.l	er2,er3
    21f8:	6e 7a 00 1b 	mov.b	@(0x1b:16,r7),r2l
    21fc:	78 30 6a aa 	mov.b	r2l,@(0xffedfe:32,r3)
    2200:	00 ff ed fe 
    2204:	0b 06       	adds	#1,r6
    2206:	79 26 00 ff 	cmp.w	#0xff,r6
    220a:	58 30 ff 3a 	bls	.-198 (0x2148)
    220e:	6f 75 00 18 	mov.w	@(0x18:16,r7),r5
    2212:	0b 05       	adds	#1,r5
    2214:	6f f5 00 18 	mov.w	r5,@(0x18:16,r7)
    2218:	79 25 00 03 	cmp.w	#0x3,r5
    221c:	58 f0 ff 26 	ble	.-218 (0x2146)
    2220:	01 20 6d 76 	ldm.l	@sp+,er4-er6
    2224:	7a 17 00 00 	add.l	#0x10,er7
    2228:	00 10 
    222a:	54 70       	rts	
    222c:	1b 97       	subs	#4,r7
    222e:	01 20 6d f4 	stm.l	er4-er6,@-sp
    2232:	19 55       	sub.w	r5,r5
    2234:	19 11       	sub.w	r1,r1
    2236:	79 06 00 06 	mov.w	#0x6,r6
    223a:	79 03 00 03 	mov.w	#0x3,r3
    223e:	19 13       	sub.w	r1,r3
    2240:	0c da       	mov.b	r5l,r2l
    2242:	f2 00       	mov.b	#0x0,r2h
    2244:	0c ec       	mov.b	r6l,r4l
    2246:	4f 06       	ble	.+6 (0x224e)
    2248:	11 92       	shar.w	r2
    224a:	8c ff       	add.b	#0xff,r4l
    224c:	46 fa       	bne	.-6 (0x2248)
    224e:	0d 30       	mov.w	r3,r0
    2250:	17 f0       	exts.l	er0
    2252:	0f a3       	mov.l	er2,er3
    2254:	7a 63 00 00 	and.l	#0x3,er3
    2258:	00 03 
    225a:	10 73       	shll.l	#2,er3
    225c:	0f 82       	mov.l	er0,er2
    225e:	0a b2       	add.l	er3,er2
    2260:	78 20 6a 2b 	mov.b	@(0xffed10:32,r2),r3l
    2264:	00 ff ed 10 
    2268:	78 00 6a 2a 	mov.b	@(0xffed00:32,r0),r2l
    226c:	00 ff ed 00 
    2270:	17 0a       	not.b	r2l
    2272:	6e 7c 00 0f 	mov.b	@(0xf:16,r7),r4l
    2276:	16 ca       	and.b	r4l,r2l
    2278:	14 ba       	or.b	r3l,r2l
    227a:	6e fa 00 0f 	mov.b	r2l,@(0xf:16,r7)
    227e:	1b 86       	subs	#2,r6
    2280:	0b 01       	adds	#1,r1
    2282:	79 21 00 03 	cmp.w	#0x3,r1
    2286:	43 b2       	bls	.-78 (0x223a)
    2288:	0d 53       	mov.w	r5,r3
    228a:	17 73       	extu.l	er3
    228c:	78 30 6a aa 	mov.b	r2l,@(0xfff1fe:32,r3)
    2290:	00 ff f1 fe 
    2294:	0b 05       	adds	#1,r5
    2296:	79 25 00 ff 	cmp.w	#0xff,r5
    229a:	43 98       	bls	.-104 (0x2234)
    229c:	01 20 6d 76 	ldm.l	@sp+,er4-er6
    22a0:	0b 97       	adds	#4,r7
    22a2:	54 70       	rts	
    22a4:	5e 00 21 36 	jsr	@0x2136:24
    22a8:	55 82       	bsr	.-126 (0x222c)
    22aa:	54 70       	rts	
    22ac:	7a 37 00 00 	sub.l	#0x18,er7
    22b0:	00 18 
    22b2:	01 20 6d f4 	stm.l	er4-er6,@-sp
    22b6:	01 00 6f f0 	mov.l	er0,@(0x20:16,r7)
    22ba:	00 20 
    22bc:	0f a6       	mov.l	er2,er6
    22be:	6f 73 00 2e 	mov.w	@(0x2e:16,r7),r3
    22c2:	58 f0 08 36 	ble	.+2102 (0x2afc)
    22c6:	6f 74 00 2a 	mov.w	@(0x2a:16,r7),r4
    22ca:	6f f4 00 0e 	mov.w	r4,@(0xe:16,r7)
    22ce:	0d 45       	mov.w	r4,r5
    22d0:	09 35       	add.w	r3,r5
    22d2:	6f f5 00 0e 	mov.w	r5,@(0xe:16,r7)
    22d6:	6f 72 00 0e 	mov.w	@(0xe:16,r7),r2
    22da:	1b 02       	subs	#1,r2
    22dc:	0d 20       	mov.w	r2,r0
    22de:	0d 22       	mov.w	r2,r2
    22e0:	4c 06       	bge	.+6 (0x22e8)
    22e2:	6f 70 00 0e 	mov.w	@(0xe:16,r7),r0
    22e6:	0b 80       	adds	#2,r0
    22e8:	e8 fc       	and.b	#0xfc,r0l
    22ea:	19 02       	sub.w	r0,r2
    22ec:	17 f2       	exts.l	er2
    22ee:	78 20 6a 2a 	mov.b	@(0xffed08:32,r2),r2l
    22f2:	00 ff ed 08 
    22f6:	f2 00       	mov.b	#0x0,r2h
    22f8:	6f f2 00 1e 	mov.w	r2,@(0x1e:16,r7)
    22fc:	6f 72 00 2a 	mov.w	@(0x2a:16,r7),r2
    2300:	17 f2       	exts.l	er2
    2302:	78 20 6a 2a 	mov.b	@(0xffed04:32,r2),r2l
    2306:	00 ff ed 04 
    230a:	f2 00       	mov.b	#0x0,r2h
    230c:	6f f2 00 1c 	mov.w	r2,@(0x1c:16,r7)
    2310:	6e 7b 00 3b 	mov.b	@(0x3b:16,r7),r3l
    2314:	47 08       	beq	.+8 (0x231e)
    2316:	79 04 00 03 	mov.w	#0x3,r4
    231a:	19 14       	sub.w	r1,r4
    231c:	0d 41       	mov.w	r4,r1
    231e:	6f 75 00 2e 	mov.w	@(0x2e:16,r7),r5
    2322:	10 15       	shll.w	r5
    2324:	6f f5 00 2e 	mov.w	r5,@(0x2e:16,r7)
    2328:	0d 10       	mov.w	r1,r0
    232a:	10 10       	shll.w	r0
    232c:	0d 01       	mov.w	r0,r1
    232e:	6f 72 00 2a 	mov.w	@(0x2a:16,r7),r2
    2332:	10 12       	shll.w	r2
    2334:	6f f2 00 2a 	mov.w	r2,@(0x2a:16,r7)
    2338:	1d 21       	cmp.w	r2,r1
    233a:	58 60 02 7a 	bne	.+634 (0x25b8)
    233e:	01 00 6f 73 	mov.l	@(0x20:16,r7),er3
    2342:	00 20 
    2344:	68 38       	mov.b	@r3,r0l
    2346:	6e 7c 00 3b 	mov.b	@(0x3b:16,r7),r4l
    234a:	47 0e       	beq	.+14 (0x235a)
    234c:	0c 8a       	mov.b	r0l,r2l
    234e:	f2 00       	mov.b	#0x0,r2h
    2350:	17 72       	extu.l	er2
    2352:	78 20 6a 28 	mov.b	@(0xfff1fe:32,r2),r0l
    2356:	00 ff f1 fe 
    235a:	6f 75 00 2e 	mov.w	@(0x2e:16,r7),r5
    235e:	1b 95       	subs	#4,r5
    2360:	1b 95       	subs	#4,r5
    2362:	6f 73 00 2a 	mov.w	@(0x2a:16,r7),r3
    2366:	09 35       	add.w	r3,r5
    2368:	6f f5 00 2e 	mov.w	r5,@(0x2e:16,r7)
    236c:	0d 55       	mov.w	r5,r5
    236e:	58 f0 07 14 	ble	.+1812 (0x2a86)
    2372:	6f 74 00 32 	mov.w	@(0x32:16,r7),r4
    2376:	46 16       	bne	.+22 (0x238e)
    2378:	6e 7a 00 1d 	mov.b	@(0x1d:16,r7),r2l
    237c:	17 0a       	not.b	r2l
    237e:	68 6d       	mov.b	@r6,r5l
    2380:	16 da       	and.b	r5l,r2l
    2382:	6e 7b 00 1d 	mov.b	@(0x1d:16,r7),r3l
    2386:	16 b8       	and.b	r3l,r0l
    2388:	14 8a       	or.b	r0l,r2l
    238a:	68 ea       	mov.b	r2l,@r6
    238c:	40 58       	bra	.+88 (0x23e6)
    238e:	68 69       	mov.b	@r6,r1l
    2390:	6f 74 00 32 	mov.w	@(0x32:16,r7),r4
    2394:	79 24 00 01 	cmp.w	#0x1,r4
    2398:	46 38       	bne	.+56 (0x23d2)
    239a:	0c 8a       	mov.b	r0l,r2l
    239c:	f2 00       	mov.b	#0x0,r2h
    239e:	17 72       	extu.l	er2
    23a0:	01 00 6f f2 	mov.l	er2,@(0x10:16,r7)
    23a4:	00 10 
    23a6:	01 00 6f 72 	mov.l	@(0x34:16,r7),er2
    23aa:	00 34 
    23ac:	01 00 6f 75 	mov.l	@(0x10:16,r7),er5
    23b0:	00 10 
    23b2:	0a d2       	add.l	er5,er2
    23b4:	68 2a       	mov.b	@r2,r2l
    23b6:	f2 00       	mov.b	#0x0,r2h
    23b8:	6f 73 00 1c 	mov.w	@(0x1c:16,r7),r3
    23bc:	66 32       	and.w	r3,r2
    23be:	6f f2 00 16 	mov.w	r2,@(0x16:16,r7)
    23c2:	6e 7a 00 17 	mov.b	@(0x17:16,r7),r2l
    23c6:	17 0a       	not.b	r2l
    23c8:	16 a9       	and.b	r2l,r1l
    23ca:	6e 7c 00 17 	mov.b	@(0x17:16,r7),r4l
    23ce:	16 c8       	and.b	r4l,r0l
    23d0:	40 10       	bra	.+16 (0x23e2)
    23d2:	15 98       	xor.b	r1l,r0l
    23d4:	6e 7a 00 1d 	mov.b	@(0x1d:16,r7),r2l
    23d8:	17 0a       	not.b	r2l
    23da:	16 a9       	and.b	r2l,r1l
    23dc:	6e 7d 00 1d 	mov.b	@(0x1d:16,r7),r5l
    23e0:	16 d8       	and.b	r5l,r0l
    23e2:	14 89       	or.b	r0l,r1l
    23e4:	68 e9       	mov.b	r1l,@r6
    23e6:	79 03 ff ff 	mov.w	#0xffff,r3
    23ea:	6f f3 00 1c 	mov.w	r3,@(0x1c:16,r7)
    23ee:	0b 06       	adds	#1,r6
    23f0:	6e 7c 00 3b 	mov.b	@(0x3b:16,r7),r4l
    23f4:	58 60 00 ce 	bne	.+206 (0x24c6)
    23f8:	01 00 6f 75 	mov.l	@(0x20:16,r7),er5
    23fc:	00 20 
    23fe:	0b 05       	adds	#1,r5
    2400:	01 00 6f f5 	mov.l	er5,@(0x20:16,r7)
    2404:	00 20 
    2406:	6f 73 00 32 	mov.w	@(0x32:16,r7),r3
    240a:	46 28       	bne	.+40 (0x2434)
    240c:	01 00 6f 74 	mov.l	@(0x20:16,r7),er4
    2410:	00 20 
    2412:	68 48       	mov.b	@r4,r0l
    2414:	6f 75 00 2e 	mov.w	@(0x2e:16,r7),r5
    2418:	1b 95       	subs	#4,r5
    241a:	1b 95       	subs	#4,r5
    241c:	6f f5 00 2e 	mov.w	r5,@(0x2e:16,r7)
    2420:	0d 55       	mov.w	r5,r5
    2422:	58 f0 06 60 	ble	.+1632 (0x2a86)
    2426:	0b 04       	adds	#1,r4
    2428:	01 00 6f f4 	mov.l	er4,@(0x20:16,r7)
    242c:	00 20 
    242e:	68 e8       	mov.b	r0l,@r6
    2430:	0b 06       	adds	#1,r6
    2432:	40 d8       	bra	.-40 (0x240c)
    2434:	6f 73 00 32 	mov.w	@(0x32:16,r7),r3
    2438:	79 23 00 01 	cmp.w	#0x1,r3
    243c:	46 5c       	bne	.+92 (0x249a)
    243e:	01 00 6f 74 	mov.l	@(0x20:16,r7),er4
    2442:	00 20 
    2444:	68 48       	mov.b	@r4,r0l
    2446:	6f 75 00 2e 	mov.w	@(0x2e:16,r7),r5
    244a:	1b 95       	subs	#4,r5
    244c:	1b 95       	subs	#4,r5
    244e:	6f f5 00 2e 	mov.w	r5,@(0x2e:16,r7)
    2452:	0d 55       	mov.w	r5,r5
    2454:	58 f0 06 2e 	ble	.+1582 (0x2a86)
    2458:	0b 04       	adds	#1,r4
    245a:	01 00 6f f4 	mov.l	er4,@(0x20:16,r7)
    245e:	00 20 
    2460:	0c 8a       	mov.b	r0l,r2l
    2462:	f2 00       	mov.b	#0x0,r2h
    2464:	17 72       	extu.l	er2
    2466:	01 00 6f f2 	mov.l	er2,@(0x10:16,r7)
    246a:	00 10 
    246c:	01 00 6f 72 	mov.l	@(0x34:16,r7),er2
    2470:	00 34 
    2472:	01 00 6f 73 	mov.l	@(0x10:16,r7),er3
    2476:	00 10 
    2478:	0a b2       	add.l	er3,er2
    247a:	68 2a       	mov.b	@r2,r2l
    247c:	f2 00       	mov.b	#0x0,r2h
    247e:	6f f2 00 16 	mov.w	r2,@(0x16:16,r7)
    2482:	6e 7a 00 17 	mov.b	@(0x17:16,r7),r2l
    2486:	17 0a       	not.b	r2l
    2488:	68 6c       	mov.b	@r6,r4l
    248a:	16 ca       	and.b	r4l,r2l
    248c:	6e 7d 00 17 	mov.b	@(0x17:16,r7),r5l
    2490:	16 d8       	and.b	r5l,r0l
    2492:	14 8a       	or.b	r0l,r2l
    2494:	68 ea       	mov.b	r2l,@r6
    2496:	0b 06       	adds	#1,r6
    2498:	40 a4       	bra	.-92 (0x243e)
    249a:	01 00 6f 73 	mov.l	@(0x20:16,r7),er3
    249e:	00 20 
    24a0:	68 38       	mov.b	@r3,r0l
    24a2:	6f 74 00 2e 	mov.w	@(0x2e:16,r7),r4
    24a6:	1b 94       	subs	#4,r4
    24a8:	1b 94       	subs	#4,r4
    24aa:	6f f4 00 2e 	mov.w	r4,@(0x2e:16,r7)
    24ae:	0d 44       	mov.w	r4,r4
    24b0:	58 f0 05 d2 	ble	.+1490 (0x2a86)
    24b4:	0b 03       	adds	#1,r3
    24b6:	01 00 6f f3 	mov.l	er3,@(0x20:16,r7)
    24ba:	00 20 
    24bc:	68 6d       	mov.b	@r6,r5l
    24be:	15 d8       	xor.b	r5l,r0l
    24c0:	68 e8       	mov.b	r0l,@r6
    24c2:	0b 06       	adds	#1,r6
    24c4:	40 d4       	bra	.-44 (0x249a)
    24c6:	01 00 6f 73 	mov.l	@(0x20:16,r7),er3
    24ca:	00 20 
    24cc:	1b 03       	subs	#1,r3
    24ce:	01 00 6f f3 	mov.l	er3,@(0x20:16,r7)
    24d2:	00 20 
    24d4:	6f 74 00 32 	mov.w	@(0x32:16,r7),r4
    24d8:	46 34       	bne	.+52 (0x250e)
    24da:	01 00 6f 75 	mov.l	@(0x20:16,r7),er5
    24de:	00 20 
    24e0:	68 5a       	mov.b	@r5,r2l
    24e2:	f2 00       	mov.b	#0x0,r2h
    24e4:	17 72       	extu.l	er2
    24e6:	78 20 6a 28 	mov.b	@(0xfff1fe:32,r2),r0l
    24ea:	00 ff f1 fe 
    24ee:	6f 73 00 2e 	mov.w	@(0x2e:16,r7),r3
    24f2:	1b 93       	subs	#4,r3
    24f4:	1b 93       	subs	#4,r3
    24f6:	6f f3 00 2e 	mov.w	r3,@(0x2e:16,r7)
    24fa:	0d 33       	mov.w	r3,r3
    24fc:	58 f0 05 86 	ble	.+1414 (0x2a86)
    2500:	1b 05       	subs	#1,r5
    2502:	01 00 6f f5 	mov.l	er5,@(0x20:16,r7)
    2506:	00 20 
    2508:	68 e8       	mov.b	r0l,@r6
    250a:	0b 06       	adds	#1,r6
    250c:	40 cc       	bra	.-52 (0x24da)
    250e:	6f 74 00 32 	mov.w	@(0x32:16,r7),r4
    2512:	79 24 00 01 	cmp.w	#0x1,r4
    2516:	46 68       	bne	.+104 (0x2580)
    2518:	01 00 6f 75 	mov.l	@(0x20:16,r7),er5
    251c:	00 20 
    251e:	68 5a       	mov.b	@r5,r2l
    2520:	f2 00       	mov.b	#0x0,r2h
    2522:	17 72       	extu.l	er2
    2524:	78 20 6a 28 	mov.b	@(0xfff1fe:32,r2),r0l
    2528:	00 ff f1 fe 
    252c:	6f 73 00 2e 	mov.w	@(0x2e:16,r7),r3
    2530:	1b 93       	subs	#4,r3
    2532:	1b 93       	subs	#4,r3
    2534:	6f f3 00 2e 	mov.w	r3,@(0x2e:16,r7)
    2538:	0d 33       	mov.w	r3,r3
    253a:	58 f0 05 48 	ble	.+1352 (0x2a86)
    253e:	1b 05       	subs	#1,r5
    2540:	01 00 6f f5 	mov.l	er5,@(0x20:16,r7)
    2544:	00 20 
    2546:	0c 8a       	mov.b	r0l,r2l
    2548:	f2 00       	mov.b	#0x0,r2h
    254a:	17 72       	extu.l	er2
    254c:	01 00 6f f2 	mov.l	er2,@(0x10:16,r7)
    2550:	00 10 
    2552:	01 00 6f 72 	mov.l	@(0x34:16,r7),er2
    2556:	00 34 
    2558:	01 00 6f 74 	mov.l	@(0x10:16,r7),er4
    255c:	00 10 
    255e:	0a c2       	add.l	er4,er2
    2560:	68 2a       	mov.b	@r2,r2l
    2562:	f2 00       	mov.b	#0x0,r2h
    2564:	6f f2 00 16 	mov.w	r2,@(0x16:16,r7)
    2568:	6e 7a 00 17 	mov.b	@(0x17:16,r7),r2l
    256c:	17 0a       	not.b	r2l
    256e:	68 6d       	mov.b	@r6,r5l
    2570:	16 da       	and.b	r5l,r2l
    2572:	6e 7b 00 17 	mov.b	@(0x17:16,r7),r3l
    2576:	16 b8       	and.b	r3l,r0l
    2578:	14 8a       	or.b	r0l,r2l
    257a:	68 ea       	mov.b	r2l,@r6
    257c:	0b 06       	adds	#1,r6
    257e:	40 98       	bra	.-104 (0x2518)
    2580:	01 00 6f 74 	mov.l	@(0x20:16,r7),er4
    2584:	00 20 
    2586:	68 4a       	mov.b	@r4,r2l
    2588:	f2 00       	mov.b	#0x0,r2h
    258a:	17 72       	extu.l	er2
    258c:	78 20 6a 28 	mov.b	@(0xfff1fe:32,r2),r0l
    2590:	00 ff f1 fe 
    2594:	6f 75 00 2e 	mov.w	@(0x2e:16,r7),r5
    2598:	1b 95       	subs	#4,r5
    259a:	1b 95       	subs	#4,r5
    259c:	6f f5 00 2e 	mov.w	r5,@(0x2e:16,r7)
    25a0:	0d 55       	mov.w	r5,r5
    25a2:	58 f0 04 e0 	ble	.+1248 (0x2a86)
    25a6:	1b 04       	subs	#1,r4
    25a8:	01 00 6f f4 	mov.l	er4,@(0x20:16,r7)
    25ac:	00 20 
    25ae:	68 6b       	mov.b	@r6,r3l
    25b0:	15 b8       	xor.b	r3l,r0l
    25b2:	68 e8       	mov.b	r0l,@r6
    25b4:	0b 06       	adds	#1,r6
    25b6:	40 c8       	bra	.-56 (0x2580)
    25b8:	1d 20       	cmp.w	r2,r0
    25ba:	58 d0 00 de 	blt	.+222 (0x269c)
    25be:	6f f1 00 1a 	mov.w	r1,@(0x1a:16,r7)
    25c2:	0d 14       	mov.w	r1,r4
    25c4:	6f 75 00 2a 	mov.w	@(0x2a:16,r7),r5
    25c8:	19 54       	sub.w	r5,r4
    25ca:	6f f4 00 1a 	mov.w	r4,@(0x1a:16,r7)
    25ce:	79 03 00 08 	mov.w	#0x8,r3
    25d2:	19 43       	sub.w	r4,r3
    25d4:	6f f3 00 18 	mov.w	r3,@(0x18:16,r7)
    25d8:	01 00 6f 74 	mov.l	@(0x20:16,r7),er4
    25dc:	00 20 
    25de:	68 4a       	mov.b	@r4,r2l
    25e0:	f2 00       	mov.b	#0x0,r2h
    25e2:	6e 7d 00 3b 	mov.b	@(0x3b:16,r7),r5l
    25e6:	46 12       	bne	.+18 (0x25fa)
    25e8:	0d 20       	mov.w	r2,r0
    25ea:	6e 7b 00 1b 	mov.b	@(0x1b:16,r7),r3l
    25ee:	0c bc       	mov.b	r3l,r4l
    25f0:	4f 06       	ble	.+6 (0x25f8)
    25f2:	10 10       	shll.w	r0
    25f4:	8c ff       	add.b	#0xff,r4l
    25f6:	46 fa       	bne	.-6 (0x25f2)
    25f8:	40 1c       	bra	.+28 (0x2616)
    25fa:	17 72       	extu.l	er2
    25fc:	78 20 6a 2a 	mov.b	@(0xfff1fe:32,r2),r2l
    2600:	00 ff f1 fe 
    2604:	f2 00       	mov.b	#0x0,r2h
    2606:	0d 20       	mov.w	r2,r0
    2608:	6e 7d 00 1b 	mov.b	@(0x1b:16,r7),r5l
    260c:	0c db       	mov.b	r5l,r3l
    260e:	4f 06       	ble	.+6 (0x2616)
    2610:	10 10       	shll.w	r0
    2612:	8b ff       	add.b	#0xff,r3l
    2614:	46 fa       	bne	.-6 (0x2610)
    2616:	6f 74 00 2e 	mov.w	@(0x2e:16,r7),r4
    261a:	1b 94       	subs	#4,r4
    261c:	1b 94       	subs	#4,r4
    261e:	09 14       	add.w	r1,r4
    2620:	6f f4 00 2e 	mov.w	r4,@(0x2e:16,r7)
    2624:	0d 44       	mov.w	r4,r4
    2626:	58 f0 04 5c 	ble	.+1116 (0x2a86)
    262a:	6e 7d 00 3b 	mov.b	@(0x3b:16,r7),r5l
    262e:	46 26       	bne	.+38 (0x2656)
    2630:	01 00 6f 73 	mov.l	@(0x20:16,r7),er3
    2634:	00 20 
    2636:	0b 03       	adds	#1,r3
    2638:	01 00 6f f3 	mov.l	er3,@(0x20:16,r7)
    263c:	00 20 
    263e:	68 3c       	mov.b	@r3,r4l
    2640:	f4 00       	mov.b	#0x0,r4h
    2642:	6e 7d 00 1b 	mov.b	@(0x1b:16,r7),r5l
    2646:	0c db       	mov.b	r5l,r3l
    2648:	4f 06       	ble	.+6 (0x2650)
    264a:	10 14       	shll.w	r4
    264c:	8b ff       	add.b	#0xff,r3l
    264e:	46 fa       	bne	.-6 (0x264a)
    2650:	6f f4 00 0e 	mov.w	r4,@(0xe:16,r7)
    2654:	40 30       	bra	.+48 (0x2686)
    2656:	01 00 6f 74 	mov.l	@(0x20:16,r7),er4
    265a:	00 20 
    265c:	1b 04       	subs	#1,r4
    265e:	01 00 6f f4 	mov.l	er4,@(0x20:16,r7)
    2662:	00 20 
    2664:	68 4a       	mov.b	@r4,r2l
    2666:	f2 00       	mov.b	#0x0,r2h
    2668:	17 72       	extu.l	er2
    266a:	78 20 6a 2a 	mov.b	@(0xfff1fe:32,r2),r2l
    266e:	00 ff f1 fe 
    2672:	f2 00       	mov.b	#0x0,r2h
    2674:	6e 7d 00 1b 	mov.b	@(0x1b:16,r7),r5l
    2678:	0c db       	mov.b	r5l,r3l
    267a:	4f 06       	ble	.+6 (0x2682)
    267c:	10 12       	shll.w	r2
    267e:	8b ff       	add.b	#0xff,r3l
    2680:	46 fa       	bne	.-6 (0x267c)
    2682:	6f f2 00 0e 	mov.w	r2,@(0xe:16,r7)
    2686:	6f 72 00 0e 	mov.w	@(0xe:16,r7),r2
    268a:	0c 2a       	mov.b	r2h,r2l
    268c:	18 22       	sub.b	r2h,r2h
    268e:	14 a8       	or.b	r2l,r0l
    2690:	6f 75 00 2e 	mov.w	@(0x2e:16,r7),r5
    2694:	6f 73 00 1a 	mov.w	@(0x1a:16,r7),r3
    2698:	19 35       	sub.w	r3,r5
    269a:	40 6e       	bra	.+110 (0x270a)
    269c:	6f 74 00 2a 	mov.w	@(0x2a:16,r7),r4
    26a0:	6f f4 00 18 	mov.w	r4,@(0x18:16,r7)
    26a4:	0d 45       	mov.w	r4,r5
    26a6:	19 15       	sub.w	r1,r5
    26a8:	6f f5 00 18 	mov.w	r5,@(0x18:16,r7)
    26ac:	79 03 00 08 	mov.w	#0x8,r3
    26b0:	19 53       	sub.w	r5,r3
    26b2:	6f f3 00 1a 	mov.w	r3,@(0x1a:16,r7)
    26b6:	01 00 6f 74 	mov.l	@(0x20:16,r7),er4
    26ba:	00 20 
    26bc:	68 4a       	mov.b	@r4,r2l
    26be:	f2 00       	mov.b	#0x0,r2h
    26c0:	6e 7d 00 3b 	mov.b	@(0x3b:16,r7),r5l
    26c4:	46 10       	bne	.+16 (0x26d6)
    26c6:	6e 7b 00 1b 	mov.b	@(0x1b:16,r7),r3l
    26ca:	0c bc       	mov.b	r3l,r4l
    26cc:	4f 06       	ble	.+6 (0x26d4)
    26ce:	10 12       	shll.w	r2
    26d0:	8c ff       	add.b	#0xff,r4l
    26d2:	46 fa       	bne	.-6 (0x26ce)
    26d4:	40 1a       	bra	.+26 (0x26f0)
    26d6:	17 72       	extu.l	er2
    26d8:	78 20 6a 2a 	mov.b	@(0xfff1fe:32,r2),r2l
    26dc:	00 ff f1 fe 
    26e0:	f2 00       	mov.b	#0x0,r2h
    26e2:	6e 7d 00 1b 	mov.b	@(0x1b:16,r7),r5l
    26e6:	0c db       	mov.b	r5l,r3l
    26e8:	4f 06       	ble	.+6 (0x26f0)
    26ea:	10 12       	shll.w	r2
    26ec:	8b ff       	add.b	#0xff,r3l
    26ee:	46 fa       	bne	.-6 (0x26ea)
    26f0:	6f f2 00 0e 	mov.w	r2,@(0xe:16,r7)
    26f4:	6f 70 00 0e 	mov.w	@(0xe:16,r7),r0
    26f8:	0c 08       	mov.b	r0h,r0l
    26fa:	18 00       	sub.b	r0h,r0h
    26fc:	6f 75 00 2e 	mov.w	@(0x2e:16,r7),r5
    2700:	1b 95       	subs	#4,r5
    2702:	1b 95       	subs	#4,r5
    2704:	6f 73 00 2a 	mov.w	@(0x2a:16,r7),r3
    2708:	09 35       	add.w	r3,r5
    270a:	6f f5 00 2e 	mov.w	r5,@(0x2e:16,r7)
    270e:	0d 55       	mov.w	r5,r5
    2710:	58 f0 03 72 	ble	.+882 (0x2a86)
    2714:	6f 74 00 32 	mov.w	@(0x32:16,r7),r4
    2718:	46 16       	bne	.+22 (0x2730)
    271a:	6e 7a 00 1d 	mov.b	@(0x1d:16,r7),r2l
    271e:	17 0a       	not.b	r2l
    2720:	68 6d       	mov.b	@r6,r5l
    2722:	16 da       	and.b	r5l,r2l
    2724:	6e 7b 00 1d 	mov.b	@(0x1d:16,r7),r3l
    2728:	16 b8       	and.b	r3l,r0l
    272a:	14 8a       	or.b	r0l,r2l
    272c:	68 ea       	mov.b	r2l,@r6
    272e:	40 58       	bra	.+88 (0x2788)
    2730:	68 69       	mov.b	@r6,r1l
    2732:	6f 74 00 32 	mov.w	@(0x32:16,r7),r4
    2736:	79 24 00 01 	cmp.w	#0x1,r4
    273a:	46 38       	bne	.+56 (0x2774)
    273c:	0c 8a       	mov.b	r0l,r2l
    273e:	f2 00       	mov.b	#0x0,r2h
    2740:	17 72       	extu.l	er2
    2742:	01 00 6f f2 	mov.l	er2,@(0x10:16,r7)
    2746:	00 10 
    2748:	01 00 6f 72 	mov.l	@(0x34:16,r7),er2
    274c:	00 34 
    274e:	01 00 6f 75 	mov.l	@(0x10:16,r7),er5
    2752:	00 10 
    2754:	0a d2       	add.l	er5,er2
    2756:	68 2a       	mov.b	@r2,r2l
    2758:	f2 00       	mov.b	#0x0,r2h
    275a:	6f 73 00 1c 	mov.w	@(0x1c:16,r7),r3
    275e:	66 32       	and.w	r3,r2
    2760:	6f f2 00 16 	mov.w	r2,@(0x16:16,r7)
    2764:	6e 7a 00 17 	mov.b	@(0x17:16,r7),r2l
    2768:	17 0a       	not.b	r2l
    276a:	16 a9       	and.b	r2l,r1l
    276c:	6e 7c 00 17 	mov.b	@(0x17:16,r7),r4l
    2770:	16 c8       	and.b	r4l,r0l
    2772:	40 10       	bra	.+16 (0x2784)
    2774:	15 98       	xor.b	r1l,r0l
    2776:	6e 7a 00 1d 	mov.b	@(0x1d:16,r7),r2l
    277a:	17 0a       	not.b	r2l
    277c:	16 a9       	and.b	r2l,r1l
    277e:	6e 7d 00 1d 	mov.b	@(0x1d:16,r7),r5l
    2782:	16 d8       	and.b	r5l,r0l
    2784:	14 89       	or.b	r0l,r1l
    2786:	68 e9       	mov.b	r1l,@r6
    2788:	0b 06       	adds	#1,r6
    278a:	79 03 ff ff 	mov.w	#0xffff,r3
    278e:	6f f3 00 1c 	mov.w	r3,@(0x1c:16,r7)
    2792:	6e 7c 00 3b 	mov.b	@(0x3b:16,r7),r4l
    2796:	58 60 01 6c 	bne	.+364 (0x2906)
    279a:	6f 75 00 32 	mov.w	@(0x32:16,r7),r5
    279e:	46 60       	bne	.+96 (0x2800)
    27a0:	6e 78 00 0f 	mov.b	@(0xf:16,r7),r0l
    27a4:	6f 73 00 2e 	mov.w	@(0x2e:16,r7),r3
    27a8:	6f 74 00 18 	mov.w	@(0x18:16,r7),r4
    27ac:	19 43       	sub.w	r4,r3
    27ae:	6f f3 00 2e 	mov.w	r3,@(0x2e:16,r7)
    27b2:	0d 33       	mov.w	r3,r3
    27b4:	58 f0 02 ce 	ble	.+718 (0x2a86)
    27b8:	01 00 6f 75 	mov.l	@(0x20:16,r7),er5
    27bc:	00 20 
    27be:	0b 05       	adds	#1,r5
    27c0:	01 00 6f f5 	mov.l	er5,@(0x20:16,r7)
    27c4:	00 20 
    27c6:	68 5b       	mov.b	@r5,r3l
    27c8:	f3 00       	mov.b	#0x0,r3h
    27ca:	6e 7c 00 1b 	mov.b	@(0x1b:16,r7),r4l
    27ce:	0c cd       	mov.b	r4l,r5l
    27d0:	4f 06       	ble	.+6 (0x27d8)
    27d2:	10 13       	shll.w	r3
    27d4:	8d ff       	add.b	#0xff,r5l
    27d6:	46 fa       	bne	.-6 (0x27d2)
    27d8:	6f f3 00 0e 	mov.w	r3,@(0xe:16,r7)
    27dc:	6f 72 00 0e 	mov.w	@(0xe:16,r7),r2
    27e0:	0c 2a       	mov.b	r2h,r2l
    27e2:	18 22       	sub.b	r2h,r2h
    27e4:	14 a8       	or.b	r2l,r0l
    27e6:	6f 74 00 2e 	mov.w	@(0x2e:16,r7),r4
    27ea:	6f 75 00 1a 	mov.w	@(0x1a:16,r7),r5
    27ee:	19 54       	sub.w	r5,r4
    27f0:	6f f4 00 2e 	mov.w	r4,@(0x2e:16,r7)
    27f4:	0d 44       	mov.w	r4,r4
    27f6:	58 f0 02 8c 	ble	.+652 (0x2a86)
    27fa:	68 e8       	mov.b	r0l,@r6
    27fc:	0b 06       	adds	#1,r6
    27fe:	40 a0       	bra	.-96 (0x27a0)
    2800:	6f 73 00 32 	mov.w	@(0x32:16,r7),r3
    2804:	79 23 00 01 	cmp.w	#0x1,r3
    2808:	58 60 00 96 	bne	.+150 (0x28a2)
    280c:	6e 78 00 0f 	mov.b	@(0xf:16,r7),r0l
    2810:	6f 74 00 2e 	mov.w	@(0x2e:16,r7),r4
    2814:	6f 75 00 18 	mov.w	@(0x18:16,r7),r5
    2818:	19 54       	sub.w	r5,r4
    281a:	6f f4 00 2e 	mov.w	r4,@(0x2e:16,r7)
    281e:	0d 44       	mov.w	r4,r4
    2820:	58 f0 02 62 	ble	.+610 (0x2a86)
    2824:	01 00 6f 73 	mov.l	@(0x20:16,r7),er3
    2828:	00 20 
    282a:	0b 03       	adds	#1,r3
    282c:	01 00 6f f3 	mov.l	er3,@(0x20:16,r7)
    2830:	00 20 
    2832:	68 3c       	mov.b	@r3,r4l
    2834:	f4 00       	mov.b	#0x0,r4h
    2836:	6e 7d 00 1b 	mov.b	@(0x1b:16,r7),r5l
    283a:	0c db       	mov.b	r5l,r3l
    283c:	4f 06       	ble	.+6 (0x2844)
    283e:	10 14       	shll.w	r4
    2840:	8b ff       	add.b	#0xff,r3l
    2842:	46 fa       	bne	.-6 (0x283e)
    2844:	6f f4 00 0e 	mov.w	r4,@(0xe:16,r7)
    2848:	6f 72 00 0e 	mov.w	@(0xe:16,r7),r2
    284c:	0c 2a       	mov.b	r2h,r2l
    284e:	18 22       	sub.b	r2h,r2h
    2850:	14 a8       	or.b	r2l,r0l
    2852:	6f 75 00 2e 	mov.w	@(0x2e:16,r7),r5
    2856:	6f 73 00 1a 	mov.w	@(0x1a:16,r7),r3
    285a:	19 35       	sub.w	r3,r5
    285c:	6f f5 00 2e 	mov.w	r5,@(0x2e:16,r7)
    2860:	0d 55       	mov.w	r5,r5
    2862:	58 f0 02 20 	ble	.+544 (0x2a86)
    2866:	0c 8a       	mov.b	r0l,r2l
    2868:	f2 00       	mov.b	#0x0,r2h
    286a:	17 72       	extu.l	er2
    286c:	01 00 6f f2 	mov.l	er2,@(0x10:16,r7)
    2870:	00 10 
    2872:	01 00 6f 72 	mov.l	@(0x34:16,r7),er2
    2876:	00 34 
    2878:	01 00 6f 74 	mov.l	@(0x10:16,r7),er4
    287c:	00 10 
    287e:	0a c2       	add.l	er4,er2
    2880:	68 2a       	mov.b	@r2,r2l
    2882:	f2 00       	mov.b	#0x0,r2h
    2884:	6f f2 00 16 	mov.w	r2,@(0x16:16,r7)
    2888:	6e 7a 00 17 	mov.b	@(0x17:16,r7),r2l
    288c:	17 0a       	not.b	r2l
    288e:	68 6d       	mov.b	@r6,r5l
    2890:	16 da       	and.b	r5l,r2l
    2892:	6e 7b 00 17 	mov.b	@(0x17:16,r7),r3l
    2896:	16 b8       	and.b	r3l,r0l
    2898:	14 8a       	or.b	r0l,r2l
    289a:	68 ea       	mov.b	r2l,@r6
    289c:	0b 06       	adds	#1,r6
    289e:	58 00 ff 6a 	bra	.-150 (0x280c)
    28a2:	6e 78 00 0f 	mov.b	@(0xf:16,r7),r0l
    28a6:	6f 74 00 2e 	mov.w	@(0x2e:16,r7),r4
    28aa:	6f 75 00 18 	mov.w	@(0x18:16,r7),r5
    28ae:	19 54       	sub.w	r5,r4
    28b0:	6f f4 00 2e 	mov.w	r4,@(0x2e:16,r7)
    28b4:	0d 44       	mov.w	r4,r4
    28b6:	58 f0 01 cc 	ble	.+460 (0x2a86)
    28ba:	01 00 6f 73 	mov.l	@(0x20:16,r7),er3
    28be:	00 20 
    28c0:	0b 03       	adds	#1,r3
    28c2:	01 00 6f f3 	mov.l	er3,@(0x20:16,r7)
    28c6:	00 20 
    28c8:	68 3c       	mov.b	@r3,r4l
    28ca:	f4 00       	mov.b	#0x0,r4h
    28cc:	6e 7d 00 1b 	mov.b	@(0x1b:16,r7),r5l
    28d0:	0c db       	mov.b	r5l,r3l
    28d2:	4f 06       	ble	.+6 (0x28da)
    28d4:	10 14       	shll.w	r4
    28d6:	8b ff       	add.b	#0xff,r3l
    28d8:	46 fa       	bne	.-6 (0x28d4)
    28da:	6f f4 00 0e 	mov.w	r4,@(0xe:16,r7)
    28de:	6f 72 00 0e 	mov.w	@(0xe:16,r7),r2
    28e2:	0c 2a       	mov.b	r2h,r2l
    28e4:	18 22       	sub.b	r2h,r2h
    28e6:	14 a8       	or.b	r2l,r0l
    28e8:	6f 75 00 2e 	mov.w	@(0x2e:16,r7),r5
    28ec:	6f 73 00 1a 	mov.w	@(0x1a:16,r7),r3
    28f0:	19 35       	sub.w	r3,r5
    28f2:	6f f5 00 2e 	mov.w	r5,@(0x2e:16,r7)
    28f6:	0d 55       	mov.w	r5,r5
    28f8:	58 f0 01 8a 	ble	.+394 (0x2a86)
    28fc:	68 6c       	mov.b	@r6,r4l
    28fe:	15 c8       	xor.b	r4l,r0l
    2900:	68 e8       	mov.b	r0l,@r6
    2902:	0b 06       	adds	#1,r6
    2904:	40 9c       	bra	.-100 (0x28a2)
    2906:	6f 75 00 32 	mov.w	@(0x32:16,r7),r5
    290a:	46 68       	bne	.+104 (0x2974)
    290c:	6e 78 00 0f 	mov.b	@(0xf:16,r7),r0l
    2910:	6f 73 00 2e 	mov.w	@(0x2e:16,r7),r3
    2914:	6f 74 00 18 	mov.w	@(0x18:16,r7),r4
    2918:	19 43       	sub.w	r4,r3
    291a:	6f f3 00 2e 	mov.w	r3,@(0x2e:16,r7)
    291e:	0d 33       	mov.w	r3,r3
    2920:	58 f0 01 62 	ble	.+354 (0x2a86)
    2924:	01 00 6f 75 	mov.l	@(0x20:16,r7),er5
    2928:	00 20 
    292a:	1b 05       	subs	#1,r5
    292c:	01 00 6f f5 	mov.l	er5,@(0x20:16,r7)
    2930:	00 20 
    2932:	68 5a       	mov.b	@r5,r2l
    2934:	f2 00       	mov.b	#0x0,r2h
    2936:	17 72       	extu.l	er2
    2938:	78 20 6a 2a 	mov.b	@(0xfff1fe:32,r2),r2l
    293c:	00 ff f1 fe 
    2940:	f2 00       	mov.b	#0x0,r2h
    2942:	6e 7b 00 1b 	mov.b	@(0x1b:16,r7),r3l
    2946:	0c bc       	mov.b	r3l,r4l
    2948:	4f 06       	ble	.+6 (0x2950)
    294a:	10 12       	shll.w	r2
    294c:	8c ff       	add.b	#0xff,r4l
    294e:	46 fa       	bne	.-6 (0x294a)
    2950:	6f f2 00 0e 	mov.w	r2,@(0xe:16,r7)
    2954:	0c 2a       	mov.b	r2h,r2l
    2956:	18 22       	sub.b	r2h,r2h
    2958:	14 a8       	or.b	r2l,r0l
    295a:	6f 73 00 2e 	mov.w	@(0x2e:16,r7),r3
    295e:	6f 74 00 1a 	mov.w	@(0x1a:16,r7),r4
    2962:	19 43       	sub.w	r4,r3
    2964:	6f f3 00 2e 	mov.w	r3,@(0x2e:16,r7)
    2968:	0d 33       	mov.w	r3,r3
    296a:	58 f0 01 18 	ble	.+280 (0x2a86)
    296e:	68 e8       	mov.b	r0l,@r6
    2970:	0b 06       	adds	#1,r6
    2972:	40 98       	bra	.-104 (0x290c)
    2974:	6f 75 00 32 	mov.w	@(0x32:16,r7),r5
    2978:	79 25 00 01 	cmp.w	#0x1,r5
    297c:	58 60 00 9e 	bne	.+158 (0x2a1e)
    2980:	6e 78 00 0f 	mov.b	@(0xf:16,r7),r0l
    2984:	6f 73 00 2e 	mov.w	@(0x2e:16,r7),r3
    2988:	6f 74 00 18 	mov.w	@(0x18:16,r7),r4
    298c:	19 43       	sub.w	r4,r3
    298e:	6f f3 00 2e 	mov.w	r3,@(0x2e:16,r7)
    2992:	0d 33       	mov.w	r3,r3
    2994:	58 f0 00 ee 	ble	.+238 (0x2a86)
    2998:	01 00 6f 75 	mov.l	@(0x20:16,r7),er5
    299c:	00 20 
    299e:	1b 05       	subs	#1,r5
    29a0:	01 00 6f f5 	mov.l	er5,@(0x20:16,r7)
    29a4:	00 20 
    29a6:	68 5a       	mov.b	@r5,r2l
    29a8:	f2 00       	mov.b	#0x0,r2h
    29aa:	17 72       	extu.l	er2
    29ac:	78 20 6a 2a 	mov.b	@(0xfff1fe:32,r2),r2l
    29b0:	00 ff f1 fe 
    29b4:	f2 00       	mov.b	#0x0,r2h
    29b6:	6e 7b 00 1b 	mov.b	@(0x1b:16,r7),r3l
    29ba:	0c bc       	mov.b	r3l,r4l
    29bc:	4f 06       	ble	.+6 (0x29c4)
    29be:	10 12       	shll.w	r2
    29c0:	8c ff       	add.b	#0xff,r4l
    29c2:	46 fa       	bne	.-6 (0x29be)
    29c4:	6f f2 00 0e 	mov.w	r2,@(0xe:16,r7)
    29c8:	0c 2a       	mov.b	r2h,r2l
    29ca:	18 22       	sub.b	r2h,r2h
    29cc:	14 a8       	or.b	r2l,r0l
    29ce:	6f 73 00 2e 	mov.w	@(0x2e:16,r7),r3
    29d2:	6f 74 00 1a 	mov.w	@(0x1a:16,r7),r4
    29d6:	19 43       	sub.w	r4,r3
    29d8:	6f f3 00 2e 	mov.w	r3,@(0x2e:16,r7)
    29dc:	0d 33       	mov.w	r3,r3
    29de:	58 f0 00 a4 	ble	.+164 (0x2a86)
    29e2:	0c 8a       	mov.b	r0l,r2l
    29e4:	f2 00       	mov.b	#0x0,r2h
    29e6:	17 72       	extu.l	er2
    29e8:	01 00 6f f2 	mov.l	er2,@(0x10:16,r7)
    29ec:	00 10 
    29ee:	01 00 6f 72 	mov.l	@(0x34:16,r7),er2
    29f2:	00 34 
    29f4:	01 00 6f 75 	mov.l	@(0x10:16,r7),er5
    29f8:	00 10 
    29fa:	0a d2       	add.l	er5,er2
    29fc:	68 2a       	mov.b	@r2,r2l
    29fe:	f2 00       	mov.b	#0x0,r2h
    2a00:	6f f2 00 16 	mov.w	r2,@(0x16:16,r7)
    2a04:	6e 7a 00 17 	mov.b	@(0x17:16,r7),r2l
    2a08:	17 0a       	not.b	r2l
    2a0a:	68 6b       	mov.b	@r6,r3l
    2a0c:	16 ba       	and.b	r3l,r2l
    2a0e:	6e 7c 00 17 	mov.b	@(0x17:16,r7),r4l
    2a12:	16 c8       	and.b	r4l,r0l
    2a14:	14 8a       	or.b	r0l,r2l
    2a16:	68 ea       	mov.b	r2l,@r6
    2a18:	0b 06       	adds	#1,r6
    2a1a:	58 00 ff 62 	bra	.-158 (0x2980)
    2a1e:	6e 78 00 0f 	mov.b	@(0xf:16,r7),r0l
    2a22:	6f 75 00 2e 	mov.w	@(0x2e:16,r7),r5
    2a26:	6f 73 00 18 	mov.w	@(0x18:16,r7),r3
    2a2a:	19 35       	sub.w	r3,r5
    2a2c:	6f f5 00 2e 	mov.w	r5,@(0x2e:16,r7)
    2a30:	0d 55       	mov.w	r5,r5
    2a32:	4f 52       	ble	.+82 (0x2a86)
    2a34:	01 00 6f 74 	mov.l	@(0x20:16,r7),er4
    2a38:	00 20 
    2a3a:	1b 04       	subs	#1,r4
    2a3c:	01 00 6f f4 	mov.l	er4,@(0x20:16,r7)
    2a40:	00 20 
    2a42:	68 4a       	mov.b	@r4,r2l
    2a44:	f2 00       	mov.b	#0x0,r2h
    2a46:	17 72       	extu.l	er2
    2a48:	78 20 6a 2a 	mov.b	@(0xfff1fe:32,r2),r2l
    2a4c:	00 ff f1 fe 
    2a50:	f2 00       	mov.b	#0x0,r2h
    2a52:	6e 7d 00 1b 	mov.b	@(0x1b:16,r7),r5l
    2a56:	0c db       	mov.b	r5l,r3l
    2a58:	4f 06       	ble	.+6 (0x2a60)
    2a5a:	10 12       	shll.w	r2
    2a5c:	8b ff       	add.b	#0xff,r3l
    2a5e:	46 fa       	bne	.-6 (0x2a5a)
    2a60:	6f f2 00 0e 	mov.w	r2,@(0xe:16,r7)
    2a64:	0c 2a       	mov.b	r2h,r2l
    2a66:	18 22       	sub.b	r2h,r2h
    2a68:	14 a8       	or.b	r2l,r0l
    2a6a:	6f 75 00 2e 	mov.w	@(0x2e:16,r7),r5
    2a6e:	6f 73 00 1a 	mov.w	@(0x1a:16,r7),r3
    2a72:	19 35       	sub.w	r3,r5
    2a74:	6f f5 00 2e 	mov.w	r5,@(0x2e:16,r7)
    2a78:	0d 55       	mov.w	r5,r5
    2a7a:	4f 0a       	ble	.+10 (0x2a86)
    2a7c:	68 6c       	mov.b	@r6,r4l
    2a7e:	15 c8       	xor.b	r4l,r0l
    2a80:	68 e8       	mov.b	r0l,@r6
    2a82:	0b 06       	adds	#1,r6
    2a84:	40 98       	bra	.-104 (0x2a1e)
    2a86:	6f 75 00 1c 	mov.w	@(0x1c:16,r7),r5
    2a8a:	6f 73 00 1e 	mov.w	@(0x1e:16,r7),r3
    2a8e:	66 35       	and.w	r3,r5
    2a90:	6f f5 00 1c 	mov.w	r5,@(0x1c:16,r7)
    2a94:	6f 74 00 32 	mov.w	@(0x32:16,r7),r4
    2a98:	46 16       	bne	.+22 (0x2ab0)
    2a9a:	6e 7a 00 1d 	mov.b	@(0x1d:16,r7),r2l
    2a9e:	17 0a       	not.b	r2l
    2aa0:	68 6d       	mov.b	@r6,r5l
    2aa2:	16 da       	and.b	r5l,r2l
    2aa4:	6e 7b 00 1d 	mov.b	@(0x1d:16,r7),r3l
    2aa8:	16 b8       	and.b	r3l,r0l
    2aaa:	14 8a       	or.b	r0l,r2l
    2aac:	68 ea       	mov.b	r2l,@r6
    2aae:	40 4c       	bra	.+76 (0x2afc)
    2ab0:	68 69       	mov.b	@r6,r1l
    2ab2:	6f 74 00 32 	mov.w	@(0x32:16,r7),r4
    2ab6:	79 24 00 01 	cmp.w	#0x1,r4
    2aba:	46 2c       	bne	.+44 (0x2ae8)
    2abc:	0c 8a       	mov.b	r0l,r2l
    2abe:	f2 00       	mov.b	#0x0,r2h
    2ac0:	17 72       	extu.l	er2
    2ac2:	01 00 6f 75 	mov.l	@(0x34:16,r7),er5
    2ac6:	00 34 
    2ac8:	0a a5       	add.l	er2,er5
    2aca:	68 5b       	mov.b	@r5,r3l
    2acc:	f3 00       	mov.b	#0x0,r3h
    2ace:	6f 74 00 1c 	mov.w	@(0x1c:16,r7),r4
    2ad2:	66 43       	and.w	r4,r3
    2ad4:	6f f3 00 16 	mov.w	r3,@(0x16:16,r7)
    2ad8:	6e 7a 00 17 	mov.b	@(0x17:16,r7),r2l
    2adc:	17 0a       	not.b	r2l
    2ade:	16 a9       	and.b	r2l,r1l
    2ae0:	6e 7d 00 17 	mov.b	@(0x17:16,r7),r5l
    2ae4:	16 d8       	and.b	r5l,r0l
    2ae6:	40 10       	bra	.+16 (0x2af8)
    2ae8:	15 98       	xor.b	r1l,r0l
    2aea:	6e 7a 00 1d 	mov.b	@(0x1d:16,r7),r2l
    2aee:	17 0a       	not.b	r2l
    2af0:	16 a9       	and.b	r2l,r1l
    2af2:	6e 7b 00 1d 	mov.b	@(0x1d:16,r7),r3l
    2af6:	16 b8       	and.b	r3l,r0l
    2af8:	14 89       	or.b	r0l,r1l
    2afa:	68 e9       	mov.b	r1l,@r6
    2afc:	01 20 6d 76 	ldm.l	@sp+,er4-er6
    2b00:	7a 17 00 00 	add.l	#0x18,er7
    2b04:	00 18 
    2b06:	54 70       	rts	
    2b08:	7a 37 00 00 	sub.l	#0x10,er7
    2b0c:	00 10 
    2b0e:	01 20 6d f4 	stm.l	er4-er6,@-sp
    2b12:	0f 86       	mov.l	er0,er6
    2b14:	6f f1 00 1a 	mov.w	r1,@(0x1a:16,r7)
    2b18:	01 00 6f f2 	mov.l	er2,@(0xc:16,r7)
    2b1c:	00 0c 
    2b1e:	6f 73 00 26 	mov.w	@(0x26:16,r7),r3
    2b22:	58 f0 02 04 	ble	.+516 (0x2d2a)
    2b26:	6f 71 00 22 	mov.w	@(0x22:16,r7),r1
    2b2a:	09 31       	add.w	r3,r1
    2b2c:	0d 12       	mov.w	r1,r2
    2b2e:	1b 02       	subs	#1,r2
    2b30:	0d 20       	mov.w	r2,r0
    2b32:	0d 22       	mov.w	r2,r2
    2b34:	4c 04       	bge	.+4 (0x2b3a)
    2b36:	0d 10       	mov.w	r1,r0
    2b38:	0b 80       	adds	#2,r0
    2b3a:	e8 fc       	and.b	#0xfc,r0l
    2b3c:	19 02       	sub.w	r0,r2
    2b3e:	17 f2       	exts.l	er2
    2b40:	78 20 6a 2a 	mov.b	@(0xffed08:32,r2),r2l
    2b44:	00 ff ed 08 
    2b48:	f2 00       	mov.b	#0x0,r2h
    2b4a:	6f f2 00 18 	mov.w	r2,@(0x18:16,r7)
    2b4e:	6f 72 00 22 	mov.w	@(0x22:16,r7),r2
    2b52:	17 f2       	exts.l	er2
    2b54:	78 20 6a 2a 	mov.b	@(0xffed04:32,r2),r2l
    2b58:	00 ff ed 04 
    2b5c:	f2 00       	mov.b	#0x0,r2h
    2b5e:	6f f2 00 16 	mov.w	r2,@(0x16:16,r7)
    2b62:	0d 32       	mov.w	r3,r2
    2b64:	10 12       	shll.w	r2
    2b66:	0d 23       	mov.w	r2,r3
    2b68:	6f 71 00 1a 	mov.w	@(0x1a:16,r7),r1
    2b6c:	10 11       	shll.w	r1
    2b6e:	6f f1 00 1a 	mov.w	r1,@(0x1a:16,r7)
    2b72:	6f 70 00 22 	mov.w	@(0x22:16,r7),r0
    2b76:	10 10       	shll.w	r0
    2b78:	6f f0 00 22 	mov.w	r0,@(0x22:16,r7)
    2b7c:	1d 01       	cmp.w	r0,r1
    2b7e:	46 5a       	bne	.+90 (0x2bda)
    2b80:	68 68       	mov.b	@r6,r0l
    2b82:	1b 93       	subs	#4,r3
    2b84:	1b 93       	subs	#4,r3
    2b86:	6f 74 00 22 	mov.w	@(0x22:16,r7),r4
    2b8a:	09 43       	add.w	r4,r3
    2b8c:	0d 33       	mov.w	r3,r3
    2b8e:	58 f0 01 6a 	ble	.+362 (0x2cfc)
    2b92:	6e 7a 00 17 	mov.b	@(0x17:16,r7),r2l
    2b96:	17 0a       	not.b	r2l
    2b98:	01 00 6f 75 	mov.l	@(0xc:16,r7),er5
    2b9c:	00 0c 
    2b9e:	68 5d       	mov.b	@r5,r5l
    2ba0:	16 da       	and.b	r5l,r2l
    2ba2:	6e 7c 00 17 	mov.b	@(0x17:16,r7),r4l
    2ba6:	16 c8       	and.b	r4l,r0l
    2ba8:	14 8a       	or.b	r0l,r2l
    2baa:	01 00 6f 75 	mov.l	@(0xc:16,r7),er5
    2bae:	00 0c 
    2bb0:	68 da       	mov.b	r2l,@r5
    2bb2:	79 04 ff ff 	mov.w	#0xffff,r4
    2bb6:	6f f4 00 16 	mov.w	r4,@(0x16:16,r7)
    2bba:	01 00 6f 75 	mov.l	@(0xc:16,r7),er5
    2bbe:	00 0c 
    2bc0:	0b 05       	adds	#1,r5
    2bc2:	01 00 6f f5 	mov.l	er5,@(0xc:16,r7)
    2bc6:	00 0c 
    2bc8:	0b 06       	adds	#1,r6
    2bca:	68 68       	mov.b	@r6,r0l
    2bcc:	1b 93       	subs	#4,r3
    2bce:	1b 93       	subs	#4,r3
    2bd0:	0d 33       	mov.w	r3,r3
    2bd2:	58 f0 01 26 	ble	.+294 (0x2cfc)
    2bd6:	68 d8       	mov.b	r0l,@r5
    2bd8:	40 e0       	bra	.-32 (0x2bba)
    2bda:	0d 23       	mov.w	r2,r3
    2bdc:	1b 93       	subs	#4,r3
    2bde:	1b 93       	subs	#4,r3
    2be0:	68 6a       	mov.b	@r6,r2l
    2be2:	f2 00       	mov.b	#0x0,r2h
    2be4:	1d 01       	cmp.w	r0,r1
    2be6:	4d 60       	blt	.+96 (0x2c48)
    2be8:	6f 74 00 1a 	mov.w	@(0x1a:16,r7),r4
    2bec:	6f f4 00 12 	mov.w	r4,@(0x12:16,r7)
    2bf0:	6f 75 00 12 	mov.w	@(0x12:16,r7),r5
    2bf4:	6f 74 00 22 	mov.w	@(0x22:16,r7),r4
    2bf8:	19 45       	sub.w	r4,r5
    2bfa:	6f f5 00 12 	mov.w	r5,@(0x12:16,r7)
    2bfe:	79 04 00 08 	mov.w	#0x8,r4
    2c02:	19 54       	sub.w	r5,r4
    2c04:	6f f4 00 14 	mov.w	r4,@(0x14:16,r7)
    2c08:	0d 20       	mov.w	r2,r0
    2c0a:	6e 7d 00 13 	mov.b	@(0x13:16,r7),r5l
    2c0e:	0c dc       	mov.b	r5l,r4l
    2c10:	4f 06       	ble	.+6 (0x2c18)
    2c12:	10 10       	shll.w	r0
    2c14:	8c ff       	add.b	#0xff,r4l
    2c16:	46 fa       	bne	.-6 (0x2c12)
    2c18:	6f 75 00 1a 	mov.w	@(0x1a:16,r7),r5
    2c1c:	09 53       	add.w	r5,r3
    2c1e:	0d 33       	mov.w	r3,r3
    2c20:	58 f0 00 d8 	ble	.+216 (0x2cfc)
    2c24:	0b 06       	adds	#1,r6
    2c26:	68 69       	mov.b	@r6,r1l
    2c28:	f1 00       	mov.b	#0x0,r1h
    2c2a:	6e 7c 00 13 	mov.b	@(0x13:16,r7),r4l
    2c2e:	0c cd       	mov.b	r4l,r5l
    2c30:	4f 06       	ble	.+6 (0x2c38)
    2c32:	10 11       	shll.w	r1
    2c34:	8d ff       	add.b	#0xff,r5l
    2c36:	46 fa       	bne	.-6 (0x2c32)
    2c38:	0d 12       	mov.w	r1,r2
    2c3a:	0c 2a       	mov.b	r2h,r2l
    2c3c:	18 22       	sub.b	r2h,r2h
    2c3e:	14 a8       	or.b	r2l,r0l
    2c40:	6f 75 00 12 	mov.w	@(0x12:16,r7),r5
    2c44:	19 53       	sub.w	r5,r3
    2c46:	40 3c       	bra	.+60 (0x2c84)
    2c48:	6f 74 00 22 	mov.w	@(0x22:16,r7),r4
    2c4c:	6f f4 00 14 	mov.w	r4,@(0x14:16,r7)
    2c50:	6f 75 00 14 	mov.w	@(0x14:16,r7),r5
    2c54:	6f 74 00 1a 	mov.w	@(0x1a:16,r7),r4
    2c58:	19 45       	sub.w	r4,r5
    2c5a:	6f f5 00 14 	mov.w	r5,@(0x14:16,r7)
    2c5e:	79 04 00 08 	mov.w	#0x8,r4
    2c62:	19 54       	sub.w	r5,r4
    2c64:	6f f4 00 12 	mov.w	r4,@(0x12:16,r7)
    2c68:	0d 21       	mov.w	r2,r1
    2c6a:	6e 7d 00 13 	mov.b	@(0x13:16,r7),r5l
    2c6e:	0c dc       	mov.b	r5l,r4l
    2c70:	4f 06       	ble	.+6 (0x2c78)
    2c72:	10 11       	shll.w	r1
    2c74:	8c ff       	add.b	#0xff,r4l
    2c76:	46 fa       	bne	.-6 (0x2c72)
    2c78:	0d 10       	mov.w	r1,r0
    2c7a:	0c 08       	mov.b	r0h,r0l
    2c7c:	18 00       	sub.b	r0h,r0h
    2c7e:	6f 74 00 22 	mov.w	@(0x22:16,r7),r4
    2c82:	09 43       	add.w	r4,r3
    2c84:	0d 33       	mov.w	r3,r3
    2c86:	4f 74       	ble	.+116 (0x2cfc)
    2c88:	6e 7a 00 17 	mov.b	@(0x17:16,r7),r2l
    2c8c:	17 0a       	not.b	r2l
    2c8e:	01 00 6f 75 	mov.l	@(0xc:16,r7),er5
    2c92:	00 0c 
    2c94:	68 5d       	mov.b	@r5,r5l
    2c96:	16 da       	and.b	r5l,r2l
    2c98:	6e 7c 00 17 	mov.b	@(0x17:16,r7),r4l
    2c9c:	16 c8       	and.b	r4l,r0l
    2c9e:	14 8a       	or.b	r0l,r2l
    2ca0:	01 00 6f 75 	mov.l	@(0xc:16,r7),er5
    2ca4:	00 0c 
    2ca6:	68 da       	mov.b	r2l,@r5
    2ca8:	0b 05       	adds	#1,r5
    2caa:	01 00 6f f5 	mov.l	er5,@(0xc:16,r7)
    2cae:	00 0c 
    2cb0:	79 04 ff ff 	mov.w	#0xffff,r4
    2cb4:	6f f4 00 16 	mov.w	r4,@(0x16:16,r7)
    2cb8:	0c 98       	mov.b	r1l,r0l
    2cba:	6f 75 00 14 	mov.w	@(0x14:16,r7),r5
    2cbe:	19 53       	sub.w	r5,r3
    2cc0:	0d 33       	mov.w	r3,r3
    2cc2:	4f 38       	ble	.+56 (0x2cfc)
    2cc4:	0b 06       	adds	#1,r6
    2cc6:	68 69       	mov.b	@r6,r1l
    2cc8:	f1 00       	mov.b	#0x0,r1h
    2cca:	6e 7c 00 13 	mov.b	@(0x13:16,r7),r4l
    2cce:	0c cd       	mov.b	r4l,r5l
    2cd0:	4f 06       	ble	.+6 (0x2cd8)
    2cd2:	10 11       	shll.w	r1
    2cd4:	8d ff       	add.b	#0xff,r5l
    2cd6:	46 fa       	bne	.-6 (0x2cd2)
    2cd8:	0d 12       	mov.w	r1,r2
    2cda:	0c 2a       	mov.b	r2h,r2l
    2cdc:	18 22       	sub.b	r2h,r2h
    2cde:	14 a8       	or.b	r2l,r0l
    2ce0:	6f 75 00 12 	mov.w	@(0x12:16,r7),r5
    2ce4:	19 53       	sub.w	r5,r3
    2ce6:	0d 33       	mov.w	r3,r3
    2ce8:	4f 12       	ble	.+18 (0x2cfc)
    2cea:	01 00 6f 74 	mov.l	@(0xc:16,r7),er4
    2cee:	00 0c 
    2cf0:	68 c8       	mov.b	r0l,@r4
    2cf2:	0b 04       	adds	#1,r4
    2cf4:	01 00 6f f4 	mov.l	er4,@(0xc:16,r7)
    2cf8:	00 0c 
    2cfa:	40 bc       	bra	.-68 (0x2cb8)
    2cfc:	6f 75 00 16 	mov.w	@(0x16:16,r7),r5
    2d00:	6f 74 00 18 	mov.w	@(0x18:16,r7),r4
    2d04:	66 45       	and.w	r4,r5
    2d06:	6f f5 00 16 	mov.w	r5,@(0x16:16,r7)
    2d0a:	6e 7a 00 17 	mov.b	@(0x17:16,r7),r2l
    2d0e:	17 0a       	not.b	r2l
    2d10:	01 00 6f 75 	mov.l	@(0xc:16,r7),er5
    2d14:	00 0c 
    2d16:	68 5d       	mov.b	@r5,r5l
    2d18:	16 da       	and.b	r5l,r2l
    2d1a:	6e 7c 00 17 	mov.b	@(0x17:16,r7),r4l
    2d1e:	16 c8       	and.b	r4l,r0l
    2d20:	14 8a       	or.b	r0l,r2l
    2d22:	01 00 6f 75 	mov.l	@(0xc:16,r7),er5
    2d26:	00 0c 
    2d28:	68 da       	mov.b	r2l,@r5
    2d2a:	01 20 6d 76 	ldm.l	@sp+,er4-er6
    2d2e:	7a 17 00 00 	add.l	#0x10,er7
    2d32:	00 10 
    2d34:	54 70       	rts	
    2d36:	7a 37 00 00 	sub.l	#0x14,er7
    2d3a:	00 14 
    2d3c:	01 20 6d f4 	stm.l	er4-er6,@-sp
    2d40:	01 00 6f f0 	mov.l	er0,@(0x1c:16,r7)
    2d44:	00 1c 
    2d46:	0d 16       	mov.w	r1,r6
    2d48:	01 00 6f f2 	mov.l	er2,@(0xc:16,r7)
    2d4c:	00 0c 
    2d4e:	6f 71 00 2a 	mov.w	@(0x2a:16,r7),r1
    2d52:	58 f0 02 54 	ble	.+596 (0x2faa)
    2d56:	6f 72 00 26 	mov.w	@(0x26:16,r7),r2
    2d5a:	17 f2       	exts.l	er2
    2d5c:	78 20 6a 2a 	mov.b	@(0xffed04:32,r2),r2l
    2d60:	00 ff ed 04 
    2d64:	f2 00       	mov.b	#0x0,r2h
    2d66:	6f f2 00 1a 	mov.w	r2,@(0x1a:16,r7)
    2d6a:	0d 13       	mov.w	r1,r3
    2d6c:	1b 03       	subs	#1,r3
    2d6e:	09 36       	add.w	r3,r6
    2d70:	6f f6 00 12 	mov.w	r6,@(0x12:16,r7)
    2d74:	6f 72 00 12 	mov.w	@(0x12:16,r7),r2
    2d78:	0d 66       	mov.w	r6,r6
    2d7a:	4c 04       	bge	.+4 (0x2d80)
    2d7c:	0b 82       	adds	#2,r2
    2d7e:	0b 02       	adds	#1,r2
    2d80:	0d 26       	mov.w	r2,r6
    2d82:	11 d6       	shar.w	#2,r6
    2d84:	0d 62       	mov.w	r6,r2
    2d86:	17 f2       	exts.l	er2
    2d88:	01 00 6f 74 	mov.l	@(0x1c:16,r7),er4
    2d8c:	00 1c 
    2d8e:	0a a4       	add.l	er2,er4
    2d90:	01 00 6f f4 	mov.l	er4,@(0x1c:16,r7)
    2d94:	00 1c 
    2d96:	6f 70 00 26 	mov.w	@(0x26:16,r7),r0
    2d9a:	09 30       	add.w	r3,r0
    2d9c:	0d 02       	mov.w	r0,r2
    2d9e:	0d 00       	mov.w	r0,r0
    2da0:	4c 04       	bge	.+4 (0x2da6)
    2da2:	0b 82       	adds	#2,r2
    2da4:	0b 02       	adds	#1,r2
    2da6:	0d 23       	mov.w	r2,r3
    2da8:	11 d3       	shar.w	#2,r3
    2daa:	0d 32       	mov.w	r3,r2
    2dac:	17 f2       	exts.l	er2
    2dae:	01 00 6f 75 	mov.l	@(0xc:16,r7),er5
    2db2:	00 0c 
    2db4:	0a a5       	add.l	er2,er5
    2db6:	01 00 6f f5 	mov.l	er5,@(0xc:16,r7)
    2dba:	00 0c 
    2dbc:	6f 74 00 12 	mov.w	@(0x12:16,r7),r4
    2dc0:	10 56       	shll.w	#2,r6
    2dc2:	6f 75 00 12 	mov.w	@(0x12:16,r7),r5
    2dc6:	19 65       	sub.w	r6,r5
    2dc8:	0d 56       	mov.w	r5,r6
    2dca:	10 53       	shll.w	#2,r3
    2dcc:	19 30       	sub.w	r3,r0
    2dce:	6f f0 00 26 	mov.w	r0,@(0x26:16,r7)
    2dd2:	0d 02       	mov.w	r0,r2
    2dd4:	17 f2       	exts.l	er2
    2dd6:	78 20 6a 2a 	mov.b	@(0xffed08:32,r2),r2l
    2dda:	00 ff ed 08 
    2dde:	f2 00       	mov.b	#0x0,r2h
    2de0:	6f f2 00 18 	mov.w	r2,@(0x18:16,r7)
    2de4:	0d 12       	mov.w	r1,r2
    2de6:	10 12       	shll.w	r2
    2de8:	0d 21       	mov.w	r2,r1
    2dea:	0d 60       	mov.w	r6,r0
    2dec:	10 10       	shll.w	r0
    2dee:	0d 06       	mov.w	r0,r6
    2df0:	6f 73 00 26 	mov.w	@(0x26:16,r7),r3
    2df4:	10 13       	shll.w	r3
    2df6:	6f f3 00 26 	mov.w	r3,@(0x26:16,r7)
    2dfa:	1d 63       	cmp.w	r6,r3
    2dfc:	46 66       	bne	.+102 (0x2e64)
    2dfe:	01 00 6f 74 	mov.l	@(0x1c:16,r7),er4
    2e02:	00 1c 
    2e04:	68 48       	mov.b	@r4,r0l
    2e06:	1b 81       	subs	#2,r1
    2e08:	19 31       	sub.w	r3,r1
    2e0a:	0d 11       	mov.w	r1,r1
    2e0c:	58 f0 01 6c 	ble	.+364 (0x2f7c)
    2e10:	6e 7a 00 19 	mov.b	@(0x19:16,r7),r2l
    2e14:	17 0a       	not.b	r2l
    2e16:	01 00 6f 75 	mov.l	@(0xc:16,r7),er5
    2e1a:	00 0c 
    2e1c:	68 5d       	mov.b	@r5,r5l
    2e1e:	16 da       	and.b	r5l,r2l
    2e20:	6e 7c 00 19 	mov.b	@(0x19:16,r7),r4l
    2e24:	16 c8       	and.b	r4l,r0l
    2e26:	14 8a       	or.b	r0l,r2l
    2e28:	01 00 6f 75 	mov.l	@(0xc:16,r7),er5
    2e2c:	00 0c 
    2e2e:	68 da       	mov.b	r2l,@r5
    2e30:	79 04 ff ff 	mov.w	#0xffff,r4
    2e34:	6f f4 00 18 	mov.w	r4,@(0x18:16,r7)
    2e38:	01 00 6f 75 	mov.l	@(0xc:16,r7),er5
    2e3c:	00 0c 
    2e3e:	1b 05       	subs	#1,r5
    2e40:	01 00 6f f5 	mov.l	er5,@(0xc:16,r7)
    2e44:	00 0c 
    2e46:	01 00 6f 74 	mov.l	@(0x1c:16,r7),er4
    2e4a:	00 1c 
    2e4c:	1b 04       	subs	#1,r4
    2e4e:	01 00 6f f4 	mov.l	er4,@(0x1c:16,r7)
    2e52:	00 1c 
    2e54:	68 48       	mov.b	@r4,r0l
    2e56:	1b 91       	subs	#4,r1
    2e58:	1b 91       	subs	#4,r1
    2e5a:	0d 11       	mov.w	r1,r1
    2e5c:	58 f0 01 1c 	ble	.+284 (0x2f7c)
    2e60:	68 d8       	mov.b	r0l,@r5
    2e62:	40 d4       	bra	.-44 (0x2e38)
    2e64:	01 00 6f 75 	mov.l	@(0x1c:16,r7),er5
    2e68:	00 1c 
    2e6a:	68 59       	mov.b	@r5,r1l
    2e6c:	f1 00       	mov.b	#0x0,r1h
    2e6e:	1b 82       	subs	#2,r2
    2e70:	1d 03       	cmp.w	r0,r3
    2e72:	4d 58       	blt	.+88 (0x2ecc)
    2e74:	6f 74 00 26 	mov.w	@(0x26:16,r7),r4
    2e78:	19 64       	sub.w	r6,r4
    2e7a:	6f f4 00 16 	mov.w	r4,@(0x16:16,r7)
    2e7e:	79 05 00 08 	mov.w	#0x8,r5
    2e82:	19 45       	sub.w	r4,r5
    2e84:	6f f5 00 14 	mov.w	r5,@(0x14:16,r7)
    2e88:	0d 10       	mov.w	r1,r0
    2e8a:	6e 7c 00 17 	mov.b	@(0x17:16,r7),r4l
    2e8e:	0c cd       	mov.b	r4l,r5l
    2e90:	4f 06       	ble	.+6 (0x2e98)
    2e92:	11 90       	shar.w	r0
    2e94:	8d ff       	add.b	#0xff,r5l
    2e96:	46 fa       	bne	.-6 (0x2e92)
    2e98:	0d 21       	mov.w	r2,r1
    2e9a:	19 61       	sub.w	r6,r1
    2e9c:	0d 11       	mov.w	r1,r1
    2e9e:	58 f0 00 da 	ble	.+218 (0x2f7c)
    2ea2:	01 00 6f 74 	mov.l	@(0x1c:16,r7),er4
    2ea6:	00 1c 
    2ea8:	1b 04       	subs	#1,r4
    2eaa:	01 00 6f f4 	mov.l	er4,@(0x1c:16,r7)
    2eae:	00 1c 
    2eb0:	68 4b       	mov.b	@r4,r3l
    2eb2:	f3 00       	mov.b	#0x0,r3h
    2eb4:	6e 7d 00 15 	mov.b	@(0x15:16,r7),r5l
    2eb8:	0c dc       	mov.b	r5l,r4l
    2eba:	4f 06       	ble	.+6 (0x2ec2)
    2ebc:	10 13       	shll.w	r3
    2ebe:	8c ff       	add.b	#0xff,r4l
    2ec0:	46 fa       	bne	.-6 (0x2ebc)
    2ec2:	14 b8       	or.b	r3l,r0l
    2ec4:	6f 75 00 16 	mov.w	@(0x16:16,r7),r5
    2ec8:	19 51       	sub.w	r5,r1
    2eca:	40 2e       	bra	.+46 (0x2efa)
    2ecc:	6f 74 00 26 	mov.w	@(0x26:16,r7),r4
    2ed0:	19 46       	sub.w	r4,r6
    2ed2:	6f f6 00 14 	mov.w	r6,@(0x14:16,r7)
    2ed6:	79 05 00 08 	mov.w	#0x8,r5
    2eda:	19 65       	sub.w	r6,r5
    2edc:	6f f5 00 16 	mov.w	r5,@(0x16:16,r7)
    2ee0:	0d 13       	mov.w	r1,r3
    2ee2:	6e 7c 00 15 	mov.b	@(0x15:16,r7),r4l
    2ee6:	0c cd       	mov.b	r4l,r5l
    2ee8:	4f 06       	ble	.+6 (0x2ef0)
    2eea:	10 13       	shll.w	r3
    2eec:	8d ff       	add.b	#0xff,r5l
    2eee:	46 fa       	bne	.-6 (0x2eea)
    2ef0:	0c b8       	mov.b	r3l,r0l
    2ef2:	0d 21       	mov.w	r2,r1
    2ef4:	6f 74 00 26 	mov.w	@(0x26:16,r7),r4
    2ef8:	19 41       	sub.w	r4,r1
    2efa:	0d 11       	mov.w	r1,r1
    2efc:	4f 7e       	ble	.+126 (0x2f7c)
    2efe:	6e 7a 00 19 	mov.b	@(0x19:16,r7),r2l
    2f02:	17 0a       	not.b	r2l
    2f04:	01 00 6f 75 	mov.l	@(0xc:16,r7),er5
    2f08:	00 0c 
    2f0a:	68 5d       	mov.b	@r5,r5l
    2f0c:	16 da       	and.b	r5l,r2l
    2f0e:	6e 7c 00 19 	mov.b	@(0x19:16,r7),r4l
    2f12:	16 c8       	and.b	r4l,r0l
    2f14:	14 8a       	or.b	r0l,r2l
    2f16:	01 00 6f 75 	mov.l	@(0xc:16,r7),er5
    2f1a:	00 0c 
    2f1c:	68 da       	mov.b	r2l,@r5
    2f1e:	1b 05       	subs	#1,r5
    2f20:	01 00 6f f5 	mov.l	er5,@(0xc:16,r7)
    2f24:	00 0c 
    2f26:	79 04 ff ff 	mov.w	#0xffff,r4
    2f2a:	6f f4 00 18 	mov.w	r4,@(0x18:16,r7)
    2f2e:	0d 30       	mov.w	r3,r0
    2f30:	0c 08       	mov.b	r0h,r0l
    2f32:	18 00       	sub.b	r0h,r0h
    2f34:	6f 74 00 14 	mov.w	@(0x14:16,r7),r4
    2f38:	19 41       	sub.w	r4,r1
    2f3a:	0d 11       	mov.w	r1,r1
    2f3c:	4f 3e       	ble	.+62 (0x2f7c)
    2f3e:	01 00 6f 75 	mov.l	@(0x1c:16,r7),er5
    2f42:	00 1c 
    2f44:	1b 05       	subs	#1,r5
    2f46:	01 00 6f f5 	mov.l	er5,@(0x1c:16,r7)
    2f4a:	00 1c 
    2f4c:	68 5b       	mov.b	@r5,r3l
    2f4e:	f3 00       	mov.b	#0x0,r3h
    2f50:	6e 7c 00 15 	mov.b	@(0x15:16,r7),r4l
    2f54:	0c cd       	mov.b	r4l,r5l
    2f56:	4f 06       	ble	.+6 (0x2f5e)
    2f58:	10 13       	shll.w	r3
    2f5a:	8d ff       	add.b	#0xff,r5l
    2f5c:	46 fa       	bne	.-6 (0x2f58)
    2f5e:	14 b8       	or.b	r3l,r0l
    2f60:	6f 74 00 16 	mov.w	@(0x16:16,r7),r4
    2f64:	19 41       	sub.w	r4,r1
    2f66:	0d 11       	mov.w	r1,r1
    2f68:	4f 12       	ble	.+18 (0x2f7c)
    2f6a:	01 00 6f 75 	mov.l	@(0xc:16,r7),er5
    2f6e:	00 0c 
    2f70:	68 d8       	mov.b	r0l,@r5
    2f72:	1b 05       	subs	#1,r5
    2f74:	01 00 6f f5 	mov.l	er5,@(0xc:16,r7)
    2f78:	00 0c 
    2f7a:	40 b2       	bra	.-78 (0x2f2e)
    2f7c:	6f 74 00 18 	mov.w	@(0x18:16,r7),r4
    2f80:	6f 75 00 1a 	mov.w	@(0x1a:16,r7),r5
    2f84:	66 54       	and.w	r5,r4
    2f86:	6f f4 00 18 	mov.w	r4,@(0x18:16,r7)
    2f8a:	6e 7a 00 19 	mov.b	@(0x19:16,r7),r2l
    2f8e:	17 0a       	not.b	r2l
    2f90:	01 00 6f 74 	mov.l	@(0xc:16,r7),er4
    2f94:	00 0c 
    2f96:	68 4c       	mov.b	@r4,r4l
    2f98:	16 ca       	and.b	r4l,r2l
    2f9a:	6e 7d 00 19 	mov.b	@(0x19:16,r7),r5l
    2f9e:	16 d8       	and.b	r5l,r0l
    2fa0:	14 8a       	or.b	r0l,r2l
    2fa2:	01 00 6f 74 	mov.l	@(0xc:16,r7),er4
    2fa6:	00 0c 
    2fa8:	68 ca       	mov.b	r2l,@r4
    2faa:	01 20 6d 76 	ldm.l	@sp+,er4-er6
    2fae:	7a 17 00 00 	add.l	#0x14,er7
    2fb2:	00 14 
    2fb4:	54 70       	rts	
    2fb6:	7a 37 00 00 	sub.l	#0xc,er7
    2fba:	00 0c 
    2fbc:	01 20 6d f4 	stm.l	er4-er6,@-sp
    2fc0:	01 00 6f f0 	mov.l	er0,@(0xc:16,r7)
    2fc4:	00 0c 
    2fc6:	6f f1 00 16 	mov.w	r1,@(0x16:16,r7)
    2fca:	6f f2 00 14 	mov.w	r2,@(0x14:16,r7)
    2fce:	01 00 6f 76 	mov.l	@(0x1c:16,r7),er6
    2fd2:	00 1c 
    2fd4:	6f 72 00 22 	mov.w	@(0x22:16,r7),r2
    2fd8:	4c 04       	bge	.+4 (0x2fde)
    2fda:	79 12 00 07 	add.w	#0x7,r2
    2fde:	11 d2       	shar.w	#2,r2
    2fe0:	11 92       	shar.w	r2
    2fe2:	0d 23       	mov.w	r2,r3
    2fe4:	17 f3       	exts.l	er3
    2fe6:	0a b6       	add.l	er3,er6
    2fe8:	10 52       	shll.w	#2,r2
    2fea:	10 12       	shll.w	r2
    2fec:	6f 74 00 22 	mov.w	@(0x22:16,r7),r4
    2ff0:	19 24       	sub.w	r2,r4
    2ff2:	6f f4 00 22 	mov.w	r4,@(0x22:16,r7)
    2ff6:	01 00 6f 75 	mov.l	@(0xc:16,r7),er5
    2ffa:	00 0c 
    2ffc:	68 58       	mov.b	@r5,r0l
    2ffe:	68 69       	mov.b	@r6,r1l
    3000:	f1 00       	mov.b	#0x0,r1h
    3002:	6e 7c 00 23 	mov.b	@(0x23:16,r7),r4l
    3006:	0c cd       	mov.b	r4l,r5l
    3008:	4f 06       	ble	.+6 (0x3010)
    300a:	10 11       	shll.w	r1
    300c:	8d ff       	add.b	#0xff,r5l
    300e:	46 fa       	bne	.-6 (0x300a)
    3010:	6a 0c ed 00 	mov.b	@0xed00:16,r4l
    3014:	0c c4       	mov.b	r4l,r4h
    3016:	18 cc       	sub.b	r4l,r4l
    3018:	6f 72 00 26 	mov.w	@(0x26:16,r7),r2
    301c:	17 f2       	exts.l	er2
    301e:	10 72       	shll.l	#2,er2
    3020:	78 20 6a 2a 	mov.b	@(0xffed10:32,r2),r2l
    3024:	00 ff ed 10 
    3028:	f2 00       	mov.b	#0x0,r2h
    302a:	64 24       	or.w	r2,r4
    302c:	6f f4 00 12 	mov.w	r4,@(0x12:16,r7)
    3030:	6f 74 00 16 	mov.w	@(0x16:16,r7),r4
    3034:	09 44       	add.w	r4,r4
    3036:	6f f4 00 16 	mov.w	r4,@(0x16:16,r7)
    303a:	6f 73 00 12 	mov.w	@(0x12:16,r7),r3
    303e:	6e 7d 00 17 	mov.b	@(0x17:16,r7),r5l
    3042:	0c dc       	mov.b	r5l,r4l
    3044:	4f 06       	ble	.+6 (0x304c)
    3046:	11 13       	shlr.w	r3
    3048:	8c ff       	add.b	#0xff,r4l
    304a:	46 fa       	bne	.-6 (0x3046)
    304c:	6f 72 00 14 	mov.w	@(0x14:16,r7),r2
    3050:	0d 25       	mov.w	r2,r5
    3052:	1b 05       	subs	#1,r5
    3054:	6f f5 00 14 	mov.w	r5,@(0x14:16,r7)
    3058:	0d 22       	mov.w	r2,r2
    305a:	4f 60       	ble	.+96 (0x30bc)
    305c:	10 11       	shll.w	r1
    305e:	73 01       	btst	#0x0,r1h
    3060:	47 0c       	beq	.+12 (0x306e)
    3062:	0d 32       	mov.w	r3,r2
    3064:	0c 2a       	mov.b	r2h,r2l
    3066:	18 22       	sub.b	r2h,r2h
    3068:	17 0a       	not.b	r2l
    306a:	16 a8       	and.b	r2l,r0l
    306c:	14 b8       	or.b	r3l,r0l
    306e:	6f 75 00 22 	mov.w	@(0x22:16,r7),r5
    3072:	0b 05       	adds	#1,r5
    3074:	6f f5 00 22 	mov.w	r5,@(0x22:16,r7)
    3078:	11 53       	shlr.w	#2,r3
    307a:	0d 32       	mov.w	r3,r2
    307c:	0c 2a       	mov.b	r2h,r2l
    307e:	18 22       	sub.b	r2h,r2h
    3080:	0d 22       	mov.w	r2,r2
    3082:	46 16       	bne	.+22 (0x309a)
    3084:	01 00 6f 75 	mov.l	@(0xc:16,r7),er5
    3088:	00 0c 
    308a:	68 d8       	mov.b	r0l,@r5
    308c:	0b 05       	adds	#1,r5
    308e:	01 00 6f f5 	mov.l	er5,@(0xc:16,r7)
    3092:	00 0c 
    3094:	68 58       	mov.b	@r5,r0l
    3096:	6f 73 00 12 	mov.w	@(0x12:16,r7),r3
    309a:	6f 72 00 22 	mov.w	@(0x22:16,r7),r2
    309e:	ea 07       	and.b	#0x7,r2l
    30a0:	e2 00       	and.b	#0x0,r2h
    30a2:	0d 22       	mov.w	r2,r2
    30a4:	46 06       	bne	.+6 (0x30ac)
    30a6:	0b 06       	adds	#1,r6
    30a8:	68 69       	mov.b	@r6,r1l
    30aa:	f1 00       	mov.b	#0x0,r1h
    30ac:	6f 72 00 14 	mov.w	@(0x14:16,r7),r2
    30b0:	0d 24       	mov.w	r2,r4
    30b2:	1b 04       	subs	#1,r4
    30b4:	6f f4 00 14 	mov.w	r4,@(0x14:16,r7)
    30b8:	0d 22       	mov.w	r2,r2
    30ba:	4e a0       	bgt	.-96 (0x305c)
    30bc:	0c 3b       	mov.b	r3h,r3l
    30be:	18 33       	sub.b	r3h,r3h
    30c0:	0d 33       	mov.w	r3,r3
    30c2:	47 08       	beq	.+8 (0x30cc)
    30c4:	01 00 6f 74 	mov.l	@(0xc:16,r7),er4
    30c8:	00 0c 
    30ca:	68 c8       	mov.b	r0l,@r4
    30cc:	01 20 6d 76 	ldm.l	@sp+,er4-er6
    30d0:	7a 17 00 00 	add.l	#0xc,er7
    30d4:	00 0c 
    30d6:	54 70       	rts	
    30d8:	03 0c       	ldc	r4l,ccr
    30da:	30 c0       	mov.b	r0h,@0xc0:8
    30dc:	7a 37 00 00 	sub.l	#0x12,er7
    30e0:	00 12 
    30e2:	01 00 69 f3 	mov.l	er3,@r7
    30e6:	01 00 6f f1 	mov.l	er1,@(0x4:16,r7)
    30ea:	00 04 
    30ec:	0f 86       	mov.l	er0,er6
    30ee:	6f f0 00 0e 	mov.w	r0,@(0xe:16,r7)
    30f2:	1a 80       	sub.l	er0,er0
    30f4:	f0 64       	mov.b	#0x64,r0h
    30f6:	53 60       	divxu.w	r6,er0
    30f8:	6f f0 00 0c 	mov.w	r0,@(0xc:16,r7)
    30fc:	19 99       	sub.w	e1,e1
    30fe:	0d 61       	mov.w	r6,r1
    3100:	79 0b 00 03 	mov.w	#0x3,e3
    3104:	53 b1       	divxu.w	e3,er1
    3106:	0d 1b       	mov.w	r1,e3
    3108:	19 55       	sub.w	r5,r5
    310a:	79 0d 00 64 	mov.w	#0x64,e5
    310e:	19 0d       	sub.w	r0,e5
    3110:	11 9d       	shar.w	e5
    3112:	64 dd       	or.w	e5,e5
    3114:	4a 0a       	bpl	.+10 (0x3120)
    3116:	17 9d       	neg.w	e5
    3118:	0d b1       	mov.w	e3,r1
    311a:	52 d1       	mulxu.w	e5,er1
    311c:	0d 15       	mov.w	r1,r5
    311e:	19 dd       	sub.w	e5,e5
    3120:	6f f5 00 10 	mov.w	r5,@(0x10:16,r7)
    3124:	1a c4       	sub.l	er4,er4
    3126:	fc 28       	mov.b	#0x28,r4l
    3128:	52 d4       	mulxu.w	e5,er4
    312a:	17 74       	extu.l	er4
    312c:	0a a4       	add.l	er2,er4
    312e:	01 00 6f f4 	mov.l	er4,@(0x8:16,r7)
    3132:	00 08 
    3134:	0d e8       	mov.w	e6,e0
    3136:	10 de       	shal.w	#2,e6
    3138:	09 8e       	add.w	e0,e6
    313a:	11 de       	shar.w	#2,e6
    313c:	0d 64       	mov.w	r6,r4
    313e:	09 e6       	add.w	e6,r6
    3140:	79 0e 00 50 	mov.w	#0x50,e6
    3144:	01 c0 52 e6 	mulxs.w	e6,er6
    3148:	01 d0 53 46 	divxs.w	r4,er6
    314c:	11 90       	shar.w	r0
    314e:	19 06       	sub.w	r0,r6
    3150:	0d 6e       	mov.w	r6,e6
    3152:	19 66       	sub.w	r6,r6
    3154:	64 ee       	or.w	e6,e6
    3156:	4a 0a       	bpl	.+10 (0x3162)
    3158:	17 9e       	neg.w	e6
    315a:	0d b0       	mov.w	e3,r0
    315c:	52 e0       	mulxu.w	e6,er0
    315e:	0d 06       	mov.w	r0,r6
    3160:	19 ee       	sub.w	e6,e6
    3162:	6f 70 00 0c 	mov.w	@(0xc:16,r7),r0
    3166:	79 20 00 64 	cmp.w	#0x64,r0
    316a:	4b 08       	bmi	.+8 (0x3174)
    316c:	79 00 00 64 	mov.w	#0x64,r0
    3170:	6f f0 00 0c 	mov.w	r0,@(0xc:16,r7)
    3174:	01 00 6f 70 	mov.l	@(0x4:16,r7),er0
    3178:	00 04 
    317a:	0d e1       	mov.w	e6,r1
    317c:	10 11       	shll.w	r1
    317e:	17 71       	extu.l	er1
    3180:	0a 90       	add.l	er1,er0
    3182:	01 00 6f f0 	mov.l	er0,@(0x4:16,r7)
    3186:	00 04 
    3188:	1a 80       	sub.l	er0,er0
    318a:	0d e0       	mov.w	e6,r0
    318c:	e8 03       	and.b	#0x3,r0l
    318e:	d8 03       	xor.b	#0x3,r0l
    3190:	78 00 6a 2a 	mov.b	@(0x30d8:32,r0),r2l
    3194:	00 00 30 d8 
    3198:	17 0a       	not.b	r2l
    319a:	a6 20       	cmp.b	#0x20,r6h
    319c:	4d 04       	blt	.+4 (0x31a2)
    319e:	5a 00 32 70 	jmp	@0x3270:24
    31a2:	79 2e 00 a0 	cmp.w	#0xa0,e6
    31a6:	4d 04       	blt	.+4 (0x31ac)
    31a8:	5a 00 32 70 	jmp	@0x3270:24
    31ac:	6f 7c 00 0e 	mov.w	@(0xe:16,r7),e4
    31b0:	01 00 6f 70 	mov.l	@(0x4:16,r7),er0
    31b4:	00 04 
    31b6:	69 04       	mov.w	@r0,r4
    31b8:	0b f0       	inc.l	#2,er0
    31ba:	01 00 6f f0 	mov.l	er0,@(0x4:16,r7)
    31be:	00 04 
    31c0:	1d 4c       	cmp.w	r4,e4
    31c2:	4d 04       	blt	.+4 (0x31c8)
    31c4:	5a 00 32 66 	jmp	@0x3266:24
    31c8:	01 00 6f 74 	mov.l	@(0x8:16,r7),er4
    31cc:	00 08 
    31ce:	0d e5       	mov.w	e6,r5
    31d0:	11 55       	shlr.w	#2,r5
    31d2:	17 75       	extu.l	er5
    31d4:	0a d4       	add.l	er5,er4
    31d6:	01 00 69 71 	mov.l	@r7,er1
    31da:	6d f6       	mov.w	r6,@-r7
    31dc:	64 99       	or.w	e1,e1
    31de:	4a 08       	bpl	.+8 (0x31e8)
    31e0:	17 31       	not.l	er1
    31e2:	fe 1f       	mov.b	#0x1f,r6l
    31e4:	18 e6       	sub.b	r6l,r6h
    31e6:	17 86       	neg.b	r6h
    31e8:	1a 80       	sub.l	er0,er0
    31ea:	0c 68       	mov.b	r6h,r0l
    31ec:	e8 fc       	and.b	#0xfc,r0l
    31ee:	10 48       	shll.b	#2,r0l
    31f0:	10 08       	shll.b	r0l
    31f2:	0a 90       	add.l	er1,er0
    31f4:	1a d5       	sub.l	er5,er5
    31f6:	f9 03       	mov.b	#0x3,r1l
    31f8:	0c 6d       	mov.b	r6h,r5l
    31fa:	16 9d       	and.b	r1l,r5l
    31fc:	15 9d       	xor.b	r1l,r5l
    31fe:	78 50 6a 22 	mov.b	@(0x30d8:32,r5),r2h
    3202:	00 00 30 d8 
    3206:	0c d1       	mov.b	r5l,r1h
    3208:	0d e5       	mov.w	e6,r5
    320a:	16 9d       	and.b	r1l,r5l
    320c:	15 9d       	xor.b	r1l,r5l
    320e:	18 1d       	sub.b	r1h,r5l
    3210:	f5 02       	mov.b	#0x2,r5h
    3212:	0c 1e       	mov.b	r1h,r6l
    3214:	14 ee       	or.b	r6l,r6l
    3216:	47 06       	beq	.+6 (0x321e)
    3218:	10 45       	shll.b	#2,r5h
    321a:	1a 0e       	dec.b	r6l
    321c:	40 f6       	bra	.-10 (0x3214)
    321e:	6d 76       	mov.w	@r7+,r6
    3220:	0d 5d       	mov.w	r5,e5
    3222:	0f 81       	mov.l	er0,er1
    3224:	6f 73 00 10 	mov.w	@(0x10:16,r7),r3
    3228:	6f 7a 00 0c 	mov.w	@(0xc:16,r7),e2
    322c:	1a 80       	sub.l	er0,er0
    322e:	0c 38       	mov.b	r3h,r0l
    3230:	0a 90       	add.l	er1,er0
    3232:	68 05       	mov.b	@r0,r5h
    3234:	16 25       	and.b	r2h,r5h
    3236:	0d d0       	mov.w	e5,r0
    3238:	1c 05       	cmp.b	r0h,r5h
    323a:	47 1e       	beq	.+30 (0x325a)
    323c:	14 88       	or.b	r0l,r0l
    323e:	47 12       	beq	.+18 (0x3252)
    3240:	4b 08       	bmi	.+8 (0x324a)
    3242:	10 45       	shll.b	#2,r5h
    3244:	1a 08       	dec.b	r0l
    3246:	46 fa       	bne	.-6 (0x3242)
    3248:	40 08       	bra	.+8 (0x3252)
    324a:	17 88       	neg.b	r0l
    324c:	11 45       	shlr.b	#2,r5h
    324e:	1a 08       	dec.b	r0l
    3250:	46 fa       	bne	.-6 (0x324c)
    3252:	68 4d       	mov.b	@r4,r5l
    3254:	16 ad       	and.b	r2l,r5l
    3256:	14 5d       	or.b	r5h,r5l
    3258:	68 cd       	mov.b	r5l,@r4
    325a:	7a 14 00 00 	add.l	#0x28,er4
    325e:	00 28 
    3260:	09 b3       	add.w	e3,r3
    3262:	1b 5a       	dec.w	#1,e2
    3264:	46 c6       	bne	.-58 (0x322c)
    3266:	09 b6       	add.w	e3,r6
    3268:	0b 5e       	inc.w	#1,e6
    326a:	13 ca       	rotr.b	#2,r2l
    326c:	5a 00 31 9a 	jmp	@0x319a:24
    3270:	7a 17 00 00 	add.l	#0x12,er7
    3274:	00 12 
    3276:	54 70       	rts	
    3278:	79 20 00 40 	cmp.w	#0x40,r0
    327c:	4a 02       	bpl	.+2 (0x3280)
    327e:	54 70       	rts	
    3280:	7a 37 00 00 	sub.l	#0x4,er7
    3284:	00 04 
    3286:	0d 86       	mov.w	e0,r6
    3288:	01 00 69 f5 	mov.l	er5,@r7
    328c:	0c bd       	mov.b	r3l,r5l
    328e:	17 53       	extu.w	r3
    3290:	0d 3e       	mov.w	r3,e6
    3292:	11 5e       	shlr.w	#2,e6
    3294:	17 73       	extu.l	er3
    3296:	10 33       	shll.l	er3
    3298:	0a c3       	add.l	er4,er3
    329a:	69 b0       	mov.w	r0,@r3
    329c:	f2 03       	mov.b	#0x3,r2h
    329e:	16 2d       	and.b	r2h,r5l
    32a0:	15 2d       	xor.b	r2h,r5l
    32a2:	16 2a       	and.b	r2h,r2l
    32a4:	15 2a       	xor.b	r2h,r2l
    32a6:	0c db       	mov.b	r5l,r3l
    32a8:	18 ad       	sub.b	r2l,r5l
    32aa:	0d 5d       	mov.w	r5,e5
    32ac:	17 52       	extu.w	r2
    32ae:	17 72       	extu.l	er2
    32b0:	78 20 6a 22 	mov.b	@(0x30d8:32,r2),r2h
    32b4:	00 00 30 d8 
    32b8:	17 53       	extu.w	r3
    32ba:	17 73       	extu.l	er3
    32bc:	78 30 6a 2a 	mov.b	@(0x30d8:32,r3),r2l
    32c0:	00 00 30 d8 
    32c4:	17 0a       	not.b	r2l
    32c6:	79 04 64 00 	mov.w	#0x6400,r4
    32ca:	17 74       	extu.l	er4
    32cc:	53 04       	divxu.w	r0,er4
    32ce:	79 0a 00 64 	mov.w	#0x64,e2
    32d2:	19 a4       	sub.w	e2,r4
    32d4:	17 94       	neg.w	r4
    32d6:	79 03 00 52 	mov.w	#0x52,r3
    32da:	52 30       	mulxu.w	r3,er0
    32dc:	0c 08       	mov.b	r0h,r0l
    32de:	0d 83       	mov.w	e0,r3
    32e0:	0c b0       	mov.b	r3l,r0h
    32e2:	0d 0b       	mov.w	r0,e3
    32e4:	19 33       	sub.w	r3,r3
    32e6:	11 94       	shar.w	r4
    32e8:	4a 08       	bpl	.+8 (0x32f2)
    32ea:	17 94       	neg.w	r4
    32ec:	52 b4       	mulxu.w	e3,er4
    32ee:	0d 43       	mov.w	r4,r3
    32f0:	19 44       	sub.w	r4,r4
    32f2:	0d 4c       	mov.w	r4,e4
    32f4:	10 1c       	shll.w	e4
    32f6:	19 ca       	sub.w	e4,e2
    32f8:	79 0c 00 28 	mov.w	#0x28,e4
    32fc:	52 c4       	mulxu.w	e4,er4
    32fe:	09 e4       	add.w	e6,r4
    3300:	01 00 69 70 	mov.l	@r7,er0
    3304:	0a 84       	add.l	er0,er4
    3306:	1a 80       	sub.l	er0,er0
    3308:	0c 38       	mov.b	r3h,r0l
    330a:	08 e8       	add.b	r6l,r0l
    330c:	e8 1f       	and.b	#0x1f,r0l
    330e:	0a 90       	add.l	er1,er0
    3310:	68 05       	mov.b	@r0,r5h
    3312:	16 25       	and.b	r2h,r5h
    3314:	0d d0       	mov.w	e5,r0
    3316:	14 88       	or.b	r0l,r0l
    3318:	47 12       	beq	.+18 (0x332c)
    331a:	4b 08       	bmi	.+8 (0x3324)
    331c:	10 45       	shll.b	#2,r5h
    331e:	1a 08       	dec.b	r0l
    3320:	46 fa       	bne	.-6 (0x331c)
    3322:	40 08       	bra	.+8 (0x332c)
    3324:	17 88       	neg.b	r0l
    3326:	11 45       	shlr.b	#2,r5h
    3328:	1a 08       	dec.b	r0l
    332a:	46 fa       	bne	.-6 (0x3326)
    332c:	68 4d       	mov.b	@r4,r5l
    332e:	16 ad       	and.b	r2l,r5l
    3330:	14 5d       	or.b	r5h,r5l
    3332:	68 cd       	mov.b	r5l,@r4
    3334:	7a 14 00 00 	add.l	#0x28,er4
    3338:	00 28 
    333a:	09 b3       	add.w	e3,r3
    333c:	1b 5a       	dec.w	#1,e2
    333e:	46 c6       	bne	.-58 (0x3306)
    3340:	7a 17 00 00 	add.l	#0x4,er7
    3344:	00 04 
    3346:	54 70       	rts	
    3348:	0f e2       	mov.l	er6,er2
    334a:	0c cb       	mov.b	r4l,r3l
    334c:	ec 03       	and.b	#0x3,r4l
    334e:	18 dd       	sub.b	r5l,r5l
    3350:	f5 04       	mov.b	#0x4,r5h
    3352:	14 cd       	or.b	r4l,r5l
    3354:	10 4c       	shll.b	#2,r4l
    3356:	1a 05       	dec.b	r5h
    3358:	46 f8       	bne	.-8 (0x3352)
    335a:	0c d5       	mov.b	r5l,r5h
    335c:	0d 5d       	mov.w	r5,e5
    335e:	79 04 01 f4 	mov.w	#0x1f4,r4
    3362:	01 00 69 e5 	mov.l	er5,@r6
    3366:	0b f6       	inc.l	#2,er6
    3368:	0b f6       	inc.l	#2,er6
    336a:	1b 54       	dec.w	#1,r4
    336c:	46 f4       	bne	.-12 (0x3362)
    336e:	0c bc       	mov.b	r3l,r4l
    3370:	11 4c       	shlr.b	#2,r4l
    3372:	7a 06 00 00 	mov.l	#0x7d0,er6
    3376:	07 d0 
    3378:	0a a6       	add.l	er2,er6
    337a:	ec 03       	and.b	#0x3,r4l
    337c:	18 dd       	sub.b	r5l,r5l
    337e:	f5 04       	mov.b	#0x4,r5h
    3380:	14 cd       	or.b	r4l,r5l
    3382:	10 4c       	shll.b	#2,r4l
    3384:	1a 05       	dec.b	r5h
    3386:	46 f8       	bne	.-8 (0x3380)
    3388:	0c d5       	mov.b	r5l,r5h
    338a:	0d 5d       	mov.w	r5,e5
    338c:	79 04 01 f4 	mov.w	#0x1f4,r4
    3390:	01 00 69 e5 	mov.l	er5,@r6
    3394:	0b f6       	inc.l	#2,er6
    3396:	0b f6       	inc.l	#2,er6
    3398:	1b 54       	dec.w	#1,r4
    339a:	46 f4       	bne	.-12 (0x3390)
    339c:	54 70       	rts	
    339e:	0c 1c       	mov.b	r1h,r4l
    33a0:	17 54       	extu.w	r4
    33a2:	fd 28       	mov.b	#0x28,r5l
    33a4:	50 d4       	mulxu.b	r5l,r4
    33a6:	11 49       	shlr.b	#2,r1l
    33a8:	17 51       	extu.w	r1
    33aa:	09 14       	add.w	r1,r4
    33ac:	17 74       	extu.l	er4
    33ae:	0a e4       	add.l	er6,er4
    33b0:	0f c6       	mov.l	er4,er6
    33b2:	0c 89       	mov.b	r0l,r1l
    33b4:	17 51       	extu.w	r1
    33b6:	11 51       	shlr.w	#2,r1
    33b8:	0d 18       	mov.w	r1,e0
    33ba:	f9 03       	mov.b	#0x3,r1l
    33bc:	f1 fc       	mov.b	#0xfc,r1h
    33be:	f8 02       	mov.b	#0x2,r0l
    33c0:	0f a5       	mov.l	er2,er5
    33c2:	64 88       	or.w	e0,e0
    33c4:	47 3e       	beq	.+62 (0x3404)
    33c6:	0f e4       	mov.l	er6,er4
    33c8:	0c 03       	mov.b	r0h,r3h
    33ca:	14 33       	or.b	r3h,r3h
    33cc:	47 30       	beq	.+48 (0x33fe)
    33ce:	79 0b 00 04 	mov.w	#0x4,e3
    33d2:	68 4a       	mov.b	@r4,r2l
    33d4:	68 5b       	mov.b	@r5,r3l
    33d6:	0c b2       	mov.b	r3l,r2h
    33d8:	16 92       	and.b	r1l,r2h
    33da:	1c 82       	cmp.b	r0l,r2h
    33dc:	46 04       	bne	.+4 (0x33e2)
    33de:	16 1b       	and.b	r1h,r3l
    33e0:	40 02       	bra	.+2 (0x33e4)
    33e2:	16 1a       	and.b	r1h,r2l
    33e4:	12 c9       	rotl.b	#2,r1l
    33e6:	12 c1       	rotl.b	#2,r1h
    33e8:	12 c8       	rotl.b	#2,r0l
    33ea:	1b 5b       	dec.w	#1,e3
    33ec:	46 e8       	bne	.-24 (0x33d6)
    33ee:	14 ab       	or.b	r2l,r3l
    33f0:	68 cb       	mov.b	r3l,@r4
    33f2:	7a 14 00 00 	add.l	#0x28,er4
    33f6:	00 28 
    33f8:	0b 75       	inc.l	#1,er5
    33fa:	1a 03       	dec.b	r3h
    33fc:	40 ce       	bra	.-50 (0x33cc)
    33fe:	0b 76       	inc.l	#1,er6
    3400:	1b 58       	dec.w	#1,e0
    3402:	40 c0       	bra	.-64 (0x33c4)
    3404:	54 70       	rts	
    3406:	79 03 03 e8 	mov.w	#0x3e8,r3
    340a:	01 00 6d 12 	mov.l	@r1+,er2
    340e:	01 00 6d 04 	mov.l	@r0+,er4
    3412:	01 f0 64 24 	or.l	er2,er4
    3416:	01 00 6f 84 	mov.l	er4,@(0xfffc:16,r0)
    341a:	ff fc 
    341c:	1b 53       	dec.w	#1,r3
    341e:	46 ea       	bne	.-22 (0x340a)
    3420:	54 70       	rts	
    3422:	79 03 03 e8 	mov.w	#0x3e8,r3
    3426:	01 00 6d 12 	mov.l	@r1+,er2
    342a:	01 00 6d 04 	mov.l	@r0+,er4
    342e:	01 f0 65 24 	xor.l	er2,er4
    3432:	01 00 6f 84 	mov.l	er4,@(0xfffc:16,r0)
    3436:	ff fc 
    3438:	1b 53       	dec.w	#1,r3
    343a:	46 ea       	bne	.-22 (0x3426)
    343c:	54 70       	rts	
    343e:	03 0c       	ldc	r4l,ccr
    3440:	30 c0       	mov.b	r0h,@0xc0:8
    3442:	7a 37 00 00 	sub.l	#0x12,er7
    3446:	00 12 
    3448:	01 00 69 f3 	mov.l	er3,@r7
    344c:	01 00 6f f1 	mov.l	er1,@(0x4:16,r7)
    3450:	00 04 
    3452:	0f 86       	mov.l	er0,er6
    3454:	6f f0 00 0e 	mov.w	r0,@(0xe:16,r7)
    3458:	1a 80       	sub.l	er0,er0
    345a:	f0 64       	mov.b	#0x64,r0h
    345c:	53 60       	divxu.w	r6,er0
    345e:	6f f0 00 0c 	mov.w	r0,@(0xc:16,r7)
    3462:	19 99       	sub.w	e1,e1
    3464:	0d 61       	mov.w	r6,r1
    3466:	79 0b 00 03 	mov.w	#0x3,e3
    346a:	53 b1       	divxu.w	e3,er1
    346c:	0d 1b       	mov.w	r1,e3
    346e:	19 55       	sub.w	r5,r5
    3470:	79 0d 00 64 	mov.w	#0x64,e5
    3474:	19 0d       	sub.w	r0,e5
    3476:	11 9d       	shar.w	e5
    3478:	64 dd       	or.w	e5,e5
    347a:	4a 0a       	bpl	.+10 (0x3486)
    347c:	17 9d       	neg.w	e5
    347e:	0d b1       	mov.w	e3,r1
    3480:	52 d1       	mulxu.w	e5,er1
    3482:	0d 15       	mov.w	r1,r5
    3484:	19 dd       	sub.w	e5,e5
    3486:	6f f5 00 10 	mov.w	r5,@(0x10:16,r7)
    348a:	1a c4       	sub.l	er4,er4
    348c:	fc 28       	mov.b	#0x28,r4l
    348e:	52 d4       	mulxu.w	e5,er4
    3490:	17 74       	extu.l	er4
    3492:	0a a4       	add.l	er2,er4
    3494:	01 00 6f f4 	mov.l	er4,@(0x8:16,r7)
    3498:	00 08 
    349a:	0d e8       	mov.w	e6,e0
    349c:	10 de       	shal.w	#2,e6
    349e:	09 8e       	add.w	e0,e6
    34a0:	11 de       	shar.w	#2,e6
    34a2:	0d 64       	mov.w	r6,r4
    34a4:	09 e6       	add.w	e6,r6
    34a6:	79 0e 00 50 	mov.w	#0x50,e6
    34aa:	01 c0 52 e6 	mulxs.w	e6,er6
    34ae:	01 d0 53 46 	divxs.w	r4,er6
    34b2:	11 90       	shar.w	r0
    34b4:	19 06       	sub.w	r0,r6
    34b6:	0d 6e       	mov.w	r6,e6
    34b8:	19 66       	sub.w	r6,r6
    34ba:	64 ee       	or.w	e6,e6
    34bc:	4a 0a       	bpl	.+10 (0x34c8)
    34be:	17 9e       	neg.w	e6
    34c0:	0d b0       	mov.w	e3,r0
    34c2:	52 e0       	mulxu.w	e6,er0
    34c4:	0d 06       	mov.w	r0,r6
    34c6:	19 ee       	sub.w	e6,e6
    34c8:	6f 70 00 0c 	mov.w	@(0xc:16,r7),r0
    34cc:	79 20 00 64 	cmp.w	#0x64,r0
    34d0:	4b 08       	bmi	.+8 (0x34da)
    34d2:	79 00 00 64 	mov.w	#0x64,r0
    34d6:	6f f0 00 0c 	mov.w	r0,@(0xc:16,r7)
    34da:	01 00 6f 70 	mov.l	@(0x4:16,r7),er0
    34de:	00 04 
    34e0:	0d e1       	mov.w	e6,r1
    34e2:	10 11       	shll.w	r1
    34e4:	17 71       	extu.l	er1
    34e6:	0a 90       	add.l	er1,er0
    34e8:	01 00 6f f0 	mov.l	er0,@(0x4:16,r7)
    34ec:	00 04 
    34ee:	1a 80       	sub.l	er0,er0
    34f0:	0d e0       	mov.w	e6,r0
    34f2:	e8 03       	and.b	#0x3,r0l
    34f4:	d8 03       	xor.b	#0x3,r0l
    34f6:	78 00 6a 2a 	mov.b	@(0x343e:32,r0),r2l
    34fa:	00 00 34 3e 
    34fe:	17 0a       	not.b	r2l
    3500:	a6 20       	cmp.b	#0x20,r6h
    3502:	4d 04       	blt	.+4 (0x3508)
    3504:	5a 00 35 d6 	jmp	@0x35d6:24
    3508:	79 2e 00 a0 	cmp.w	#0xa0,e6
    350c:	4d 04       	blt	.+4 (0x3512)
    350e:	5a 00 35 d6 	jmp	@0x35d6:24
    3512:	6f 7c 00 0e 	mov.w	@(0xe:16,r7),e4
    3516:	01 00 6f 70 	mov.l	@(0x4:16,r7),er0
    351a:	00 04 
    351c:	69 04       	mov.w	@r0,r4
    351e:	0b f0       	inc.l	#2,er0
    3520:	01 00 6f f0 	mov.l	er0,@(0x4:16,r7)
    3524:	00 04 
    3526:	1d 4c       	cmp.w	r4,e4
    3528:	4d 04       	blt	.+4 (0x352e)
    352a:	5a 00 35 cc 	jmp	@0x35cc:24
    352e:	01 00 6f 74 	mov.l	@(0x8:16,r7),er4
    3532:	00 08 
    3534:	0d e5       	mov.w	e6,r5
    3536:	11 55       	shlr.w	#2,r5
    3538:	17 75       	extu.l	er5
    353a:	0a d4       	add.l	er5,er4
    353c:	01 00 69 71 	mov.l	@r7,er1
    3540:	6d f6       	mov.w	r6,@-r7
    3542:	64 99       	or.w	e1,e1
    3544:	4a 08       	bpl	.+8 (0x354e)
    3546:	17 31       	not.l	er1
    3548:	fe 1f       	mov.b	#0x1f,r6l
    354a:	18 e6       	sub.b	r6l,r6h
    354c:	17 86       	neg.b	r6h
    354e:	1a 80       	sub.l	er0,er0
    3550:	0c 68       	mov.b	r6h,r0l
    3552:	e8 fc       	and.b	#0xfc,r0l
    3554:	10 48       	shll.b	#2,r0l
    3556:	10 08       	shll.b	r0l
    3558:	0a 90       	add.l	er1,er0
    355a:	1a d5       	sub.l	er5,er5
    355c:	f9 03       	mov.b	#0x3,r1l
    355e:	0c 6d       	mov.b	r6h,r5l
    3560:	16 9d       	and.b	r1l,r5l
    3562:	15 9d       	xor.b	r1l,r5l
    3564:	78 50 6a 22 	mov.b	@(0x343e:32,r5),r2h
    3568:	00 00 34 3e 
    356c:	0c d1       	mov.b	r5l,r1h
    356e:	0d e5       	mov.w	e6,r5
    3570:	16 9d       	and.b	r1l,r5l
    3572:	15 9d       	xor.b	r1l,r5l
    3574:	18 1d       	sub.b	r1h,r5l
    3576:	f5 02       	mov.b	#0x2,r5h
    3578:	0c 1e       	mov.b	r1h,r6l
    357a:	14 ee       	or.b	r6l,r6l
    357c:	47 06       	beq	.+6 (0x3584)
    357e:	10 45       	shll.b	#2,r5h
    3580:	1a 0e       	dec.b	r6l
    3582:	40 f6       	bra	.-10 (0x357a)
    3584:	6d 76       	mov.w	@r7+,r6
    3586:	0d 5d       	mov.w	r5,e5
    3588:	0f 81       	mov.l	er0,er1
    358a:	6f 73 00 10 	mov.w	@(0x10:16,r7),r3
    358e:	6f 7a 00 0c 	mov.w	@(0xc:16,r7),e2
    3592:	1a 80       	sub.l	er0,er0
    3594:	0c 38       	mov.b	r3h,r0l
    3596:	0a 90       	add.l	er1,er0
    3598:	68 05       	mov.b	@r0,r5h
    359a:	16 25       	and.b	r2h,r5h
    359c:	0d d0       	mov.w	e5,r0
    359e:	1c 05       	cmp.b	r0h,r5h
    35a0:	47 1e       	beq	.+30 (0x35c0)
    35a2:	14 88       	or.b	r0l,r0l
    35a4:	47 12       	beq	.+18 (0x35b8)
    35a6:	4b 08       	bmi	.+8 (0x35b0)
    35a8:	10 45       	shll.b	#2,r5h
    35aa:	1a 08       	dec.b	r0l
    35ac:	46 fa       	bne	.-6 (0x35a8)
    35ae:	40 08       	bra	.+8 (0x35b8)
    35b0:	17 88       	neg.b	r0l
    35b2:	11 45       	shlr.b	#2,r5h
    35b4:	1a 08       	dec.b	r0l
    35b6:	46 fa       	bne	.-6 (0x35b2)
    35b8:	68 4d       	mov.b	@r4,r5l
    35ba:	16 ad       	and.b	r2l,r5l
    35bc:	14 5d       	or.b	r5h,r5l
    35be:	68 cd       	mov.b	r5l,@r4
    35c0:	7a 14 00 00 	add.l	#0x28,er4
    35c4:	00 28 
    35c6:	09 b3       	add.w	e3,r3
    35c8:	1b 5a       	dec.w	#1,e2
    35ca:	46 c6       	bne	.-58 (0x3592)
    35cc:	09 b6       	add.w	e3,r6
    35ce:	0b 5e       	inc.w	#1,e6
    35d0:	13 ca       	rotr.b	#2,r2l
    35d2:	5a 00 35 00 	jmp	@0x3500:24
    35d6:	7a 17 00 00 	add.l	#0x12,er7
    35da:	00 12 
    35dc:	54 70       	rts	
    35de:	79 20 00 40 	cmp.w	#0x40,r0
    35e2:	4a 02       	bpl	.+2 (0x35e6)
    35e4:	54 70       	rts	
    35e6:	7a 37 00 00 	sub.l	#0x4,er7
    35ea:	00 04 
    35ec:	01 00 69 f5 	mov.l	er5,@r7
    35f0:	0c bd       	mov.b	r3l,r5l
    35f2:	17 53       	extu.w	r3
    35f4:	0d 36       	mov.w	r3,r6
    35f6:	11 56       	shlr.w	#2,r6
    35f8:	17 73       	extu.l	er3
    35fa:	10 33       	shll.l	er3
    35fc:	0a c3       	add.l	er4,er3
    35fe:	69 b0       	mov.w	r0,@r3
    3600:	f2 03       	mov.b	#0x3,r2h
    3602:	16 2d       	and.b	r2h,r5l
    3604:	15 2d       	xor.b	r2h,r5l
    3606:	16 2a       	and.b	r2h,r2l
    3608:	15 2a       	xor.b	r2h,r2l
    360a:	0c db       	mov.b	r5l,r3l
    360c:	18 ad       	sub.b	r2l,r5l
    360e:	0d 5d       	mov.w	r5,e5
    3610:	17 52       	extu.w	r2
    3612:	17 72       	extu.l	er2
    3614:	78 20 6a 22 	mov.b	@(0x343e:32,r2),r2h
    3618:	00 00 34 3e 
    361c:	17 53       	extu.w	r3
    361e:	17 73       	extu.l	er3
    3620:	78 30 6a 2a 	mov.b	@(0x343e:32,r3),r2l
    3624:	00 00 34 3e 
    3628:	17 0a       	not.b	r2l
    362a:	79 04 64 00 	mov.w	#0x6400,r4
    362e:	17 74       	extu.l	er4
    3630:	53 04       	divxu.w	r0,er4
    3632:	79 0a 00 64 	mov.w	#0x64,e2
    3636:	19 a4       	sub.w	e2,r4
    3638:	17 94       	neg.w	r4
    363a:	79 03 00 52 	mov.w	#0x52,r3
    363e:	52 30       	mulxu.w	r3,er0
    3640:	0c 08       	mov.b	r0h,r0l
    3642:	0d 83       	mov.w	e0,r3
    3644:	0c b0       	mov.b	r3l,r0h
    3646:	0d 0b       	mov.w	r0,e3
    3648:	19 33       	sub.w	r3,r3
    364a:	11 94       	shar.w	r4
    364c:	4a 08       	bpl	.+8 (0x3656)
    364e:	17 94       	neg.w	r4
    3650:	52 b4       	mulxu.w	e3,er4
    3652:	0d 43       	mov.w	r4,r3
    3654:	19 44       	sub.w	r4,r4
    3656:	0d 4c       	mov.w	r4,e4
    3658:	10 1c       	shll.w	e4
    365a:	19 ca       	sub.w	e4,e2
    365c:	11 1a       	shlr.w	e2
    365e:	79 0c 00 28 	mov.w	#0x28,e4
    3662:	52 c4       	mulxu.w	e4,er4
    3664:	09 64       	add.w	r6,r4
    3666:	01 00 69 70 	mov.l	@r7,er0
    366a:	0a 84       	add.l	er0,er4
    366c:	1a 80       	sub.l	er0,er0
    366e:	0c 38       	mov.b	r3h,r0l
    3670:	0a 90       	add.l	er1,er0
    3672:	68 05       	mov.b	@r0,r5h
    3674:	16 25       	and.b	r2h,r5h
    3676:	0d d0       	mov.w	e5,r0
    3678:	14 88       	or.b	r0l,r0l
    367a:	47 12       	beq	.+18 (0x368e)
    367c:	4b 08       	bmi	.+8 (0x3686)
    367e:	10 45       	shll.b	#2,r5h
    3680:	1a 08       	dec.b	r0l
    3682:	46 fa       	bne	.-6 (0x367e)
    3684:	40 08       	bra	.+8 (0x368e)
    3686:	17 88       	neg.b	r0l
    3688:	11 45       	shlr.b	#2,r5h
    368a:	1a 08       	dec.b	r0l
    368c:	46 fa       	bne	.-6 (0x3688)
    368e:	68 4d       	mov.b	@r4,r5l
    3690:	16 ad       	and.b	r2l,r5l
    3692:	14 5d       	or.b	r5h,r5l
    3694:	68 cd       	mov.b	r5l,@r4
    3696:	7a 14 00 00 	add.l	#0x28,er4
    369a:	00 28 
    369c:	09 b3       	add.w	e3,r3
    369e:	1b 5a       	dec.w	#1,e2
    36a0:	46 ca       	bne	.-54 (0x366c)
    36a2:	7a 17 00 00 	add.l	#0x4,er7
    36a6:	00 04 
    36a8:	54 70       	rts	
    36aa:	ec 03       	and.b	#0x3,r4l
    36ac:	18 dd       	sub.b	r5l,r5l
    36ae:	f5 04       	mov.b	#0x4,r5h
    36b0:	14 cd       	or.b	r4l,r5l
    36b2:	10 4c       	shll.b	#2,r4l
    36b4:	1a 05       	dec.b	r5h
    36b6:	46 f8       	bne	.-8 (0x36b0)
    36b8:	0c d5       	mov.b	r5l,r5h
    36ba:	0d 5d       	mov.w	r5,e5
    36bc:	79 04 01 f4 	mov.w	#0x1f4,r4
    36c0:	01 00 69 e5 	mov.l	er5,@r6
    36c4:	0b f6       	inc.l	#2,er6
    36c6:	0b f6       	inc.l	#2,er6
    36c8:	1b 54       	dec.w	#1,r4
    36ca:	46 f4       	bne	.-12 (0x36c0)
    36cc:	54 70       	rts	
    36ce:	0f 81       	mov.l	er0,er1
    36d0:	7a 11 00 00 	add.l	#0xf78,er1
    36d4:	0f 78 
    36d6:	f2 32       	mov.b	#0x32,r2h
    36d8:	fa 0a       	mov.b	#0xa,r2l
    36da:	01 00 69 03 	mov.l	@r0,er3
    36de:	01 00 69 93 	mov.l	er3,@r1
    36e2:	0b f0       	inc.l	#2,er0
    36e4:	0b f0       	inc.l	#2,er0
    36e6:	0b f1       	inc.l	#2,er1
    36e8:	0b f1       	inc.l	#2,er1
    36ea:	1a 0a       	dec.b	r2l
    36ec:	46 ec       	bne	.-20 (0x36da)
    36ee:	7a 31 00 00 	sub.l	#0x50,er1
    36f2:	00 50 
    36f4:	1a 02       	dec.b	r2h
    36f6:	46 e0       	bne	.-32 (0x36d8)
    36f8:	54 70       	rts	
    36fa:	0c 1c       	mov.b	r1h,r4l
    36fc:	17 54       	extu.w	r4
    36fe:	fd 28       	mov.b	#0x28,r5l
    3700:	50 d4       	mulxu.b	r5l,r4
    3702:	11 49       	shlr.b	#2,r1l
    3704:	17 51       	extu.w	r1
    3706:	09 14       	add.w	r1,r4
    3708:	17 74       	extu.l	er4
    370a:	79 05 00 a0 	mov.w	#0xa0,r5
    370e:	18 8d       	sub.b	r0l,r5l
    3710:	11 55       	shlr.w	#2,r5
    3712:	17 75       	extu.l	er5
    3714:	11 48       	shlr.b	#2,r0l
    3716:	0c 83       	mov.b	r0l,r3h
    3718:	0d 38       	mov.w	r3,e0
    371a:	0a e4       	add.l	er6,er4
    371c:	0f a6       	mov.l	er2,er6
    371e:	f9 03       	mov.b	#0x3,r1l
    3720:	f1 fc       	mov.b	#0xfc,r1h
    3722:	f8 02       	mov.b	#0x2,r0l
    3724:	0d 83       	mov.w	e0,r3
    3726:	68 6b       	mov.b	@r6,r3l
    3728:	68 4a       	mov.b	@r4,r2l
    372a:	79 0b 00 04 	mov.w	#0x4,e3
    372e:	0c b2       	mov.b	r3l,r2h
    3730:	16 92       	and.b	r1l,r2h
    3732:	1c 82       	cmp.b	r0l,r2h
    3734:	46 04       	bne	.+4 (0x373a)
    3736:	16 1b       	and.b	r1h,r3l
    3738:	40 02       	bra	.+2 (0x373c)
    373a:	16 1a       	and.b	r1h,r2l
    373c:	12 c9       	rotl.b	#2,r1l
    373e:	12 c1       	rotl.b	#2,r1h
    3740:	12 c8       	rotl.b	#2,r0l
    3742:	1b 5b       	dec.w	#1,e3
    3744:	46 e8       	bne	.-24 (0x372e)
    3746:	14 ab       	or.b	r2l,r3l
    3748:	68 cb       	mov.b	r3l,@r4
    374a:	0b 76       	inc.l	#1,er6
    374c:	0b 74       	inc.l	#1,er4
    374e:	1a 03       	dec.b	r3h
    3750:	46 d4       	bne	.-44 (0x3726)
    3752:	0a d4       	add.l	er5,er4
    3754:	1a 00       	dec.b	r0h
    3756:	46 cc       	bne	.-52 (0x3724)
    3758:	54 70       	rts	
    375a:	79 03 03 e8 	mov.w	#0x3e8,r3
    375e:	01 00 6d 12 	mov.l	@r1+,er2
    3762:	01 00 6d 04 	mov.l	@r0+,er4
    3766:	01 f0 64 24 	or.l	er2,er4
    376a:	01 00 6f 84 	mov.l	er4,@(0xfffc:16,r0)
    376e:	ff fc 
    3770:	1b 53       	dec.w	#1,r3
    3772:	46 ea       	bne	.-22 (0x375e)
    3774:	54 70       	rts	
    3776:	79 03 03 e8 	mov.w	#0x3e8,r3
    377a:	01 00 6d 12 	mov.l	@r1+,er2
    377e:	01 00 6d 04 	mov.l	@r0+,er4
    3782:	01 f0 65 24 	xor.l	er2,er4
    3786:	01 00 6f 84 	mov.l	er4,@(0xfffc:16,r0)
    378a:	ff fc 
    378c:	1b 53       	dec.w	#1,r3
    378e:	46 ea       	bne	.-22 (0x377a)
    3790:	54 70       	rts	
    3792:	03 0c       	ldc	r4l,ccr
    3794:	30 c0       	mov.b	r0h,@0xc0:8
    3796:	79 28 01 00 	cmp.w	#0x100,e0
    379a:	4e 02       	bgt	.+2 (0x379e)
    379c:	54 70       	rts	
    379e:	17 50       	extu.w	r0
    37a0:	79 03 32 00 	mov.w	#0x3200,r3
    37a4:	17 73       	extu.l	er3
    37a6:	53 83       	divxu.w	e0,er3
    37a8:	0d 38       	mov.w	r3,e0
    37aa:	79 04 00 32 	mov.w	#0x32,r4
    37ae:	19 84       	sub.w	e0,r4
    37b0:	0f a5       	mov.l	er2,er5
    37b2:	0c 8a       	mov.b	r0l,r2l
    37b4:	17 0a       	not.b	r2l
    37b6:	ea 03       	and.b	#0x3,r2l
    37b8:	17 52       	extu.w	r2
    37ba:	17 72       	extu.l	er2
    37bc:	78 20 6a 22 	mov.b	@(0x3792:32,r2),r2h
    37c0:	00 00 37 92 
    37c4:	17 02       	not.b	r2h
    37c6:	11 50       	shlr.w	#2,r0
    37c8:	79 03 00 28 	mov.w	#0x28,r3
    37cc:	52 83       	mulxu.w	e0,er3
    37ce:	09 03       	add.w	r0,r3
    37d0:	79 13 07 d0 	add.w	#0x7d0,r3
    37d4:	17 73       	extu.l	er3
    37d6:	0a b6       	add.l	er3,er6
    37d8:	0d 4a       	mov.w	r4,e2
    37da:	0d 83       	mov.w	e0,r3
    37dc:	1b 53       	dec.w	#1,r3
    37de:	10 53       	shll.w	#2,r3
    37e0:	10 13       	shll.w	r3
    37e2:	17 73       	extu.l	er3
    37e4:	0a b1       	add.l	er3,er1
    37e6:	64 aa       	or.w	e2,e2
    37e8:	47 5a       	beq	.+90 (0x3844)
    37ea:	01 00 6d 13 	mov.l	@r1+,er3
    37ee:	01 00 6d 14 	mov.l	@r1+,er4
    37f2:	0c 3b       	mov.b	r3h,r3l
    37f4:	e3 e0       	and.b	#0xe0,r3h
    37f6:	0c 4c       	mov.b	r4h,r4l
    37f8:	18 44       	sub.b	r4h,r4h
    37fa:	11 4c       	shlr.b	#2,r4l
    37fc:	11 0c       	shlr.b	r4l
    37fe:	14 3c       	or.b	r3h,r4l
    3800:	17 54       	extu.w	r4
    3802:	17 74       	extu.l	er4
    3804:	0a d4       	add.l	er5,er4
    3806:	11 4b       	shlr.b	#2,r3l
    3808:	11 0b       	shlr.b	r3l
    380a:	17 0b       	not.b	r3l
    380c:	eb 03       	and.b	#0x3,r3l
    380e:	17 53       	extu.w	r3
    3810:	17 73       	extu.l	er3
    3812:	78 30 6a 23 	mov.b	@(0x3792:32,r3),r3h
    3816:	00 00 37 92 
    381a:	68 4c       	mov.b	@r4,r4l
    381c:	16 3c       	and.b	r3h,r4l
    381e:	0c b4       	mov.b	r3l,r4h
    3820:	40 0a       	bra	.+10 (0x382c)
    3822:	10 4c       	shll.b	#2,r4l
    3824:	0a 04       	inc	r4h
    3826:	40 04       	bra	.+4 (0x382c)
    3828:	11 4c       	shlr.b	#2,r4l
    382a:	1a 04       	dec.b	r4h
    382c:	1c 4a       	cmp.b	r4h,r2l
    382e:	4e f2       	bgt	.-14 (0x3822)
    3830:	4d f6       	blt	.-10 (0x3828)
    3832:	68 64       	mov.b	@r6,r4h
    3834:	16 24       	and.b	r2h,r4h
    3836:	14 c4       	or.b	r4l,r4h
    3838:	68 e4       	mov.b	r4h,@r6
    383a:	7a 16 00 00 	add.l	#0x28,er6
    383e:	00 28 
    3840:	1b 5a       	dec.w	#1,e2
    3842:	40 a2       	bra	.-94 (0x37e6)
    3844:	54 70       	rts	
    3846:	79 08 00 01 	mov.w	#0x1,e0
    384a:	6d 53       	mov.w	@r5+,r3
    384c:	17 f3       	exts.l	er3
    384e:	01 00 6d 64 	mov.l	@r6+,er4
    3852:	0a b4       	add.l	er3,er4
    3854:	01 00 6f e4 	mov.l	er4,@(0xfffc:16,r6)
    3858:	ff fc 
    385a:	6d 53       	mov.w	@r5+,r3
    385c:	17 f3       	exts.l	er3
    385e:	01 00 6d 64 	mov.l	@r6+,er4
    3862:	0a b4       	add.l	er3,er4
    3864:	01 00 6f e4 	mov.l	er4,@(0xfffc:16,r6)
    3868:	ff fc 
    386a:	0b 58       	inc.w	#1,e0
    386c:	79 28 00 32 	cmp.w	#0x32,e0
    3870:	46 d8       	bne	.-40 (0x384a)
    3872:	54 70       	rts	
    3874:	0c 66       	mov.b	r6h,r6h
    3876:	46 06       	bne	.+6 (0x387e)
    3878:	6c 4e       	mov.b	@r4+,r6l
    387a:	f6 ff       	mov.b	#0xff,r6h
    387c:	1b 05       	subs	#1,r5
    387e:	11 16       	shlr.w	r6
    3880:	12 30       	rotxl.l	er0
    3882:	0c 66       	mov.b	r6h,r6h
    3884:	46 06       	bne	.+6 (0x388c)
    3886:	6c 4e       	mov.b	@r4+,r6l
    3888:	f6 ff       	mov.b	#0xff,r6h
    388a:	1b 05       	subs	#1,r5
    388c:	11 16       	shlr.w	r6
    388e:	12 30       	rotxl.l	er0
    3890:	0c 66       	mov.b	r6h,r6h
    3892:	46 06       	bne	.+6 (0x389a)
    3894:	6c 4e       	mov.b	@r4+,r6l
    3896:	f6 ff       	mov.b	#0xff,r6h
    3898:	1b 05       	subs	#1,r5
    389a:	11 16       	shlr.w	r6
    389c:	12 30       	rotxl.l	er0
    389e:	0c 66       	mov.b	r6h,r6h
    38a0:	46 06       	bne	.+6 (0x38a8)
    38a2:	6c 4e       	mov.b	@r4+,r6l
    38a4:	f6 ff       	mov.b	#0xff,r6h
    38a6:	1b 05       	subs	#1,r5
    38a8:	11 16       	shlr.w	r6
    38aa:	12 30       	rotxl.l	er0
    38ac:	0c 66       	mov.b	r6h,r6h
    38ae:	46 06       	bne	.+6 (0x38b6)
    38b0:	6c 4e       	mov.b	@r4+,r6l
    38b2:	f6 ff       	mov.b	#0xff,r6h
    38b4:	1b 05       	subs	#1,r5
    38b6:	11 16       	shlr.w	r6
    38b8:	12 30       	rotxl.l	er0
    38ba:	0c 66       	mov.b	r6h,r6h
    38bc:	46 06       	bne	.+6 (0x38c4)
    38be:	6c 4e       	mov.b	@r4+,r6l
    38c0:	f6 ff       	mov.b	#0xff,r6h
    38c2:	1b 05       	subs	#1,r5
    38c4:	11 16       	shlr.w	r6
    38c6:	12 30       	rotxl.l	er0
    38c8:	0c 66       	mov.b	r6h,r6h
    38ca:	46 06       	bne	.+6 (0x38d2)
    38cc:	6c 4e       	mov.b	@r4+,r6l
    38ce:	f6 ff       	mov.b	#0xff,r6h
    38d0:	1b 05       	subs	#1,r5
    38d2:	11 16       	shlr.w	r6
    38d4:	12 30       	rotxl.l	er0
    38d6:	0c 66       	mov.b	r6h,r6h
    38d8:	46 06       	bne	.+6 (0x38e0)
    38da:	6c 4e       	mov.b	@r4+,r6l
    38dc:	f6 ff       	mov.b	#0xff,r6h
    38de:	1b 05       	subs	#1,r5
    38e0:	11 16       	shlr.w	r6
    38e2:	12 30       	rotxl.l	er0
    38e4:	0c 66       	mov.b	r6h,r6h
    38e6:	46 06       	bne	.+6 (0x38ee)
    38e8:	6c 4e       	mov.b	@r4+,r6l
    38ea:	f6 ff       	mov.b	#0xff,r6h
    38ec:	1b 05       	subs	#1,r5
    38ee:	11 16       	shlr.w	r6
    38f0:	12 30       	rotxl.l	er0
    38f2:	0c 66       	mov.b	r6h,r6h
    38f4:	46 06       	bne	.+6 (0x38fc)
    38f6:	6c 4e       	mov.b	@r4+,r6l
    38f8:	f6 ff       	mov.b	#0xff,r6h
    38fa:	1b 05       	subs	#1,r5
    38fc:	11 16       	shlr.w	r6
    38fe:	12 30       	rotxl.l	er0
    3900:	0c 66       	mov.b	r6h,r6h
    3902:	46 06       	bne	.+6 (0x390a)
    3904:	6c 4e       	mov.b	@r4+,r6l
    3906:	f6 ff       	mov.b	#0xff,r6h
    3908:	1b 05       	subs	#1,r5
    390a:	11 16       	shlr.w	r6
    390c:	12 30       	rotxl.l	er0
    390e:	0c 66       	mov.b	r6h,r6h
    3910:	46 06       	bne	.+6 (0x3918)
    3912:	6c 4e       	mov.b	@r4+,r6l
    3914:	f6 ff       	mov.b	#0xff,r6h
    3916:	1b 05       	subs	#1,r5
    3918:	11 16       	shlr.w	r6
    391a:	12 30       	rotxl.l	er0
    391c:	54 70       	rts	
    391e:	0c 66       	mov.b	r6h,r6h
    3920:	46 06       	bne	.+6 (0x3928)
    3922:	6c 4e       	mov.b	@r4+,r6l
    3924:	f6 ff       	mov.b	#0xff,r6h
    3926:	1b 05       	subs	#1,r5
    3928:	11 16       	shlr.w	r6
    392a:	12 0b       	rotxl.b	r3l
    392c:	0c 66       	mov.b	r6h,r6h
    392e:	46 06       	bne	.+6 (0x3936)
    3930:	6c 4e       	mov.b	@r4+,r6l
    3932:	f6 ff       	mov.b	#0xff,r6h
    3934:	1b 05       	subs	#1,r5
    3936:	11 16       	shlr.w	r6
    3938:	12 0b       	rotxl.b	r3l
    393a:	0c 66       	mov.b	r6h,r6h
    393c:	46 06       	bne	.+6 (0x3944)
    393e:	6c 4e       	mov.b	@r4+,r6l
    3940:	f6 ff       	mov.b	#0xff,r6h
    3942:	1b 05       	subs	#1,r5
    3944:	11 16       	shlr.w	r6
    3946:	12 0b       	rotxl.b	r3l
    3948:	0c 66       	mov.b	r6h,r6h
    394a:	46 06       	bne	.+6 (0x3952)
    394c:	6c 4e       	mov.b	@r4+,r6l
    394e:	f6 ff       	mov.b	#0xff,r6h
    3950:	1b 05       	subs	#1,r5
    3952:	11 16       	shlr.w	r6
    3954:	12 0b       	rotxl.b	r3l
    3956:	0c 66       	mov.b	r6h,r6h
    3958:	46 06       	bne	.+6 (0x3960)
    395a:	6c 4e       	mov.b	@r4+,r6l
    395c:	f6 ff       	mov.b	#0xff,r6h
    395e:	1b 05       	subs	#1,r5
    3960:	11 16       	shlr.w	r6
    3962:	12 0b       	rotxl.b	r3l
    3964:	0c 66       	mov.b	r6h,r6h
    3966:	46 06       	bne	.+6 (0x396e)
    3968:	6c 4e       	mov.b	@r4+,r6l
    396a:	f6 ff       	mov.b	#0xff,r6h
    396c:	1b 05       	subs	#1,r5
    396e:	11 16       	shlr.w	r6
    3970:	12 0b       	rotxl.b	r3l
    3972:	0c 66       	mov.b	r6h,r6h
    3974:	46 06       	bne	.+6 (0x397c)
    3976:	6c 4e       	mov.b	@r4+,r6l
    3978:	f6 ff       	mov.b	#0xff,r6h
    397a:	1b 05       	subs	#1,r5
    397c:	11 16       	shlr.w	r6
    397e:	12 0b       	rotxl.b	r3l
    3980:	0c 66       	mov.b	r6h,r6h
    3982:	46 06       	bne	.+6 (0x398a)
    3984:	6c 4e       	mov.b	@r4+,r6l
    3986:	f6 ff       	mov.b	#0xff,r6h
    3988:	1b 05       	subs	#1,r5
    398a:	11 16       	shlr.w	r6
    398c:	12 0b       	rotxl.b	r3l
    398e:	54 70       	rts	
    3990:	19 33       	sub.w	r3,r3
    3992:	0c 66       	mov.b	r6h,r6h
    3994:	46 06       	bne	.+6 (0x399c)
    3996:	6c 4e       	mov.b	@r4+,r6l
    3998:	f6 ff       	mov.b	#0xff,r6h
    399a:	1b 05       	subs	#1,r5
    399c:	11 16       	shlr.w	r6
    399e:	45 10       	bcs	.+16 (0x39b0)
    39a0:	0c 66       	mov.b	r6h,r6h
    39a2:	46 06       	bne	.+6 (0x39aa)
    39a4:	6c 4e       	mov.b	@r4+,r6l
    39a6:	f6 ff       	mov.b	#0xff,r6h
    39a8:	1b 05       	subs	#1,r5
    39aa:	11 16       	shlr.w	r6
    39ac:	9b 02       	addx	#0x2,r3l
    39ae:	54 70       	rts	
    39b0:	0c 66       	mov.b	r6h,r6h
    39b2:	46 06       	bne	.+6 (0x39ba)
    39b4:	6c 4e       	mov.b	@r4+,r6l
    39b6:	f6 ff       	mov.b	#0xff,r6h
    39b8:	1b 05       	subs	#1,r5
    39ba:	11 16       	shlr.w	r6
    39bc:	45 10       	bcs	.+16 (0x39ce)
    39be:	0c 66       	mov.b	r6h,r6h
    39c0:	46 06       	bne	.+6 (0x39c8)
    39c2:	6c 4e       	mov.b	@r4+,r6l
    39c4:	f6 ff       	mov.b	#0xff,r6h
    39c6:	1b 05       	subs	#1,r5
    39c8:	11 16       	shlr.w	r6
    39ca:	9b 04       	addx	#0x4,r3l
    39cc:	54 70       	rts	
    39ce:	0c 66       	mov.b	r6h,r6h
    39d0:	46 06       	bne	.+6 (0x39d8)
    39d2:	6c 4e       	mov.b	@r4+,r6l
    39d4:	f6 ff       	mov.b	#0xff,r6h
    39d6:	1b 05       	subs	#1,r5
    39d8:	11 16       	shlr.w	r6
    39da:	45 22       	bcs	.+34 (0x39fe)
    39dc:	0c 66       	mov.b	r6h,r6h
    39de:	46 06       	bne	.+6 (0x39e6)
    39e0:	6c 4e       	mov.b	@r4+,r6l
    39e2:	f6 ff       	mov.b	#0xff,r6h
    39e4:	1b 05       	subs	#1,r5
    39e6:	11 16       	shlr.w	r6
    39e8:	45 04       	bcs	.+4 (0x39ee)
    39ea:	fb 06       	mov.b	#0x6,r3l
    39ec:	54 70       	rts	
    39ee:	0c 66       	mov.b	r6h,r6h
    39f0:	46 06       	bne	.+6 (0x39f8)
    39f2:	6c 4e       	mov.b	@r4+,r6l
    39f4:	f6 ff       	mov.b	#0xff,r6h
    39f6:	1b 05       	subs	#1,r5
    39f8:	11 16       	shlr.w	r6
    39fa:	9b 08       	addx	#0x8,r3l
    39fc:	54 70       	rts	
    39fe:	0c 66       	mov.b	r6h,r6h
    3a00:	46 06       	bne	.+6 (0x3a08)
    3a02:	6c 4e       	mov.b	@r4+,r6l
    3a04:	f6 ff       	mov.b	#0xff,r6h
    3a06:	1b 05       	subs	#1,r5
    3a08:	11 16       	shlr.w	r6
    3a0a:	45 22       	bcs	.+34 (0x3a2e)
    3a0c:	0c 66       	mov.b	r6h,r6h
    3a0e:	46 06       	bne	.+6 (0x3a16)
    3a10:	6c 4e       	mov.b	@r4+,r6l
    3a12:	f6 ff       	mov.b	#0xff,r6h
    3a14:	1b 05       	subs	#1,r5
    3a16:	11 16       	shlr.w	r6
    3a18:	45 04       	bcs	.+4 (0x3a1e)
    3a1a:	fb 07       	mov.b	#0x7,r3l
    3a1c:	54 70       	rts	
    3a1e:	0c 66       	mov.b	r6h,r6h
    3a20:	46 06       	bne	.+6 (0x3a28)
    3a22:	6c 4e       	mov.b	@r4+,r6l
    3a24:	f6 ff       	mov.b	#0xff,r6h
    3a26:	1b 05       	subs	#1,r5
    3a28:	11 16       	shlr.w	r6
    3a2a:	9b 0a       	addx	#0xa,r3l
    3a2c:	54 70       	rts	
    3a2e:	1a 80       	sub.l	er0,er0
    3a30:	5e 00 38 f2 	jsr	@0x38f2:24
    3a34:	10 70       	shll.l	#2,er0
    3a36:	01 00 78 00 	mov.l	@(0x8e0:32,r0),er0
    3a3a:	6b 20 00 00 
    3a3e:	08 e0 
    3a40:	59 00       	jmp	@r0
    3a42:	fb 0c       	mov.b	#0xc,r3l
    3a44:	54 70       	rts	
    3a46:	fb 0d       	mov.b	#0xd,r3l
    3a48:	54 70       	rts	
    3a4a:	5e 00 39 72 	jsr	@0x3972:24
    3a4e:	8b 14       	add.b	#0x14,r3l
    3a50:	54 70       	rts	
    3a52:	0c 66       	mov.b	r6h,r6h
    3a54:	46 06       	bne	.+6 (0x3a5c)
    3a56:	6c 4e       	mov.b	@r4+,r6l
    3a58:	f6 ff       	mov.b	#0xff,r6h
    3a5a:	1b 05       	subs	#1,r5
    3a5c:	11 16       	shlr.w	r6
    3a5e:	9b 10       	addx	#0x10,r3l
    3a60:	54 70       	rts	
    3a62:	5e 00 39 64 	jsr	@0x3964:24
    3a66:	8b 18       	add.b	#0x18,r3l
    3a68:	54 70       	rts	
    3a6a:	fb 0e       	mov.b	#0xe,r3l
    3a6c:	54 70       	rts	
    3a6e:	0c 66       	mov.b	r6h,r6h
    3a70:	46 06       	bne	.+6 (0x3a78)
    3a72:	6c 4e       	mov.b	@r4+,r6l
    3a74:	f6 ff       	mov.b	#0xff,r6h
    3a76:	1b 05       	subs	#1,r5
    3a78:	11 16       	shlr.w	r6
    3a7a:	45 08       	bcs	.+8 (0x3a84)
    3a7c:	5e 00 39 48 	jsr	@0x3948:24
    3a80:	8b 20       	add.b	#0x20,r3l
    3a82:	54 70       	rts	
    3a84:	0c 66       	mov.b	r6h,r6h
    3a86:	46 06       	bne	.+6 (0x3a8e)
    3a88:	6c 4e       	mov.b	@r4+,r6l
    3a8a:	f6 ff       	mov.b	#0xff,r6h
    3a8c:	1b 05       	subs	#1,r5
    3a8e:	11 16       	shlr.w	r6
    3a90:	9b 12       	addx	#0x12,r3l
    3a92:	54 70       	rts	
    3a94:	0c 66       	mov.b	r6h,r6h
    3a96:	46 06       	bne	.+6 (0x3a9e)
    3a98:	6c 4e       	mov.b	@r4+,r6l
    3a9a:	f6 ff       	mov.b	#0xff,r6h
    3a9c:	1b 05       	subs	#1,r5
    3a9e:	11 16       	shlr.w	r6
    3aa0:	45 04       	bcs	.+4 (0x3aa6)
    3aa2:	fb 0f       	mov.b	#0xf,r3l
    3aa4:	54 70       	rts	
    3aa6:	0c 66       	mov.b	r6h,r6h
    3aa8:	46 06       	bne	.+6 (0x3ab0)
    3aaa:	6c 4e       	mov.b	@r4+,r6l
    3aac:	f6 ff       	mov.b	#0xff,r6h
    3aae:	1b 05       	subs	#1,r5
    3ab0:	11 16       	shlr.w	r6
    3ab2:	45 08       	bcs	.+8 (0x3abc)
    3ab4:	5e 00 39 3a 	jsr	@0x393a:24
    3ab8:	8b 40       	add.b	#0x40,r3l
    3aba:	54 70       	rts	
    3abc:	0c 66       	mov.b	r6h,r6h
    3abe:	46 06       	bne	.+6 (0x3ac6)
    3ac0:	6c 4e       	mov.b	@r4+,r6l
    3ac2:	f6 ff       	mov.b	#0xff,r6h
    3ac4:	1b 05       	subs	#1,r5
    3ac6:	11 16       	shlr.w	r6
    3ac8:	45 08       	bcs	.+8 (0x3ad2)
    3aca:	5e 00 39 2c 	jsr	@0x392c:24
    3ace:	8b 80       	add.b	#0x80,r3l
    3ad0:	54 70       	rts	
    3ad2:	f3 01       	mov.b	#0x1,r3h
    3ad4:	54 70       	rts	
    3ad6:	1a 80       	sub.l	er0,er0
    3ad8:	5e 00 38 f2 	jsr	@0x38f2:24
    3adc:	10 70       	shll.l	#2,er0
    3ade:	01 00 78 00 	mov.l	@(0x900:32,r0),er0
    3ae2:	6b 20 00 00 
    3ae6:	09 00 
    3ae8:	59 00       	jmp	@r0
    3aea:	1a 80       	sub.l	er0,er0
    3aec:	5e 00 38 90 	jsr	@0x3890:24
    3af0:	79 10 04 00 	add.w	#0x400,r0
    3af4:	54 70       	rts	
    3af6:	1a 80       	sub.l	er0,er0
    3af8:	5e 00 38 9e 	jsr	@0x389e:24
    3afc:	79 10 02 00 	add.w	#0x200,r0
    3b00:	54 70       	rts	
    3b02:	1a 80       	sub.l	er0,er0
    3b04:	5e 00 38 ac 	jsr	@0x38ac:24
    3b08:	79 10 01 00 	add.w	#0x100,r0
    3b0c:	54 70       	rts	
    3b0e:	1a 80       	sub.l	er0,er0
    3b10:	5e 00 38 c8 	jsr	@0x38c8:24
    3b14:	88 40       	add.b	#0x40,r0l
    3b16:	54 70       	rts	
    3b18:	1a 80       	sub.l	er0,er0
    3b1a:	5e 00 38 ba 	jsr	@0x38ba:24
    3b1e:	88 80       	add.b	#0x80,r0l
    3b20:	54 70       	rts	
    3b22:	1a 80       	sub.l	er0,er0
    3b24:	0c 66       	mov.b	r6h,r6h
    3b26:	46 06       	bne	.+6 (0x3b2e)
    3b28:	6c 4e       	mov.b	@r4+,r6l
    3b2a:	f6 ff       	mov.b	#0xff,r6h
    3b2c:	1b 05       	subs	#1,r5
    3b2e:	11 16       	shlr.w	r6
    3b30:	45 0a       	bcs	.+10 (0x3b3c)
    3b32:	5e 00 38 82 	jsr	@0x3882:24
    3b36:	79 10 08 00 	add.w	#0x800,r0
    3b3a:	54 70       	rts	
    3b3c:	5e 00 38 74 	jsr	@0x3874:24
    3b40:	79 10 10 00 	add.w	#0x1000,r0
    3b44:	54 70       	rts	
    3b46:	1a 80       	sub.l	er0,er0
    3b48:	0c 66       	mov.b	r6h,r6h
    3b4a:	46 06       	bne	.+6 (0x3b52)
    3b4c:	6c 4e       	mov.b	@r4+,r6l
    3b4e:	f6 ff       	mov.b	#0xff,r6h
    3b50:	1b 05       	subs	#1,r5
    3b52:	11 16       	shlr.w	r6
    3b54:	45 08       	bcs	.+8 (0x3b5e)
    3b56:	5e 00 38 d6 	jsr	@0x38d6:24
    3b5a:	88 20       	add.b	#0x20,r0l
    3b5c:	54 70       	rts	
    3b5e:	5e 00 38 e4 	jsr	@0x38e4:24
    3b62:	88 10       	add.b	#0x10,r0l
    3b64:	54 70       	rts	
    3b66:	1a 80       	sub.l	er0,er0
    3b68:	5e 00 39 00 	jsr	@0x3900:24
    3b6c:	10 70       	shll.l	#2,er0
    3b6e:	01 00 78 00 	mov.l	@(0x920:32,r0),er0
    3b72:	6b 20 00 00 
    3b76:	09 20 
    3b78:	59 00       	jmp	@r0
    3b7a:	1a 80       	sub.l	er0,er0
    3b7c:	5a 00 39 0e 	jmp	@0x390e:24
    3b80:	1a 80       	sub.l	er0,er0
    3b82:	5e 00 39 00 	jsr	@0x3900:24
    3b86:	88 06       	add.b	#0x6,r0l
    3b88:	54 70       	rts	
    3b8a:	1a 80       	sub.l	er0,er0
    3b8c:	0c 66       	mov.b	r6h,r6h
    3b8e:	46 06       	bne	.+6 (0x3b96)
    3b90:	6c 4e       	mov.b	@r4+,r6l
    3b92:	f6 ff       	mov.b	#0xff,r6h
    3b94:	1b 05       	subs	#1,r5
    3b96:	11 16       	shlr.w	r6
    3b98:	45 10       	bcs	.+16 (0x3baa)
    3b9a:	0c 66       	mov.b	r6h,r6h
    3b9c:	46 06       	bne	.+6 (0x3ba4)
    3b9e:	6c 4e       	mov.b	@r4+,r6l
    3ba0:	f6 ff       	mov.b	#0xff,r6h
    3ba2:	1b 05       	subs	#1,r5
    3ba4:	11 16       	shlr.w	r6
    3ba6:	98 04       	addx	#0x4,r0l
    3ba8:	54 70       	rts	
    3baa:	f8 02       	mov.b	#0x2,r0l
    3bac:	54 70       	rts	
    3bae:	1a 80       	sub.l	er0,er0
    3bb0:	0c 66       	mov.b	r6h,r6h
    3bb2:	46 06       	bne	.+6 (0x3bba)
    3bb4:	6c 4e       	mov.b	@r4+,r6l
    3bb6:	f6 ff       	mov.b	#0xff,r6h
    3bb8:	1b 05       	subs	#1,r5
    3bba:	11 16       	shlr.w	r6
    3bbc:	45 08       	bcs	.+8 (0x3bc6)
    3bbe:	5e 00 39 00 	jsr	@0x3900:24
    3bc2:	88 0c       	add.b	#0xc,r0l
    3bc4:	54 70       	rts	
    3bc6:	0c 66       	mov.b	r6h,r6h
    3bc8:	46 06       	bne	.+6 (0x3bd0)
    3bca:	6c 4e       	mov.b	@r4+,r6l
    3bcc:	f6 ff       	mov.b	#0xff,r6h
    3bce:	1b 05       	subs	#1,r5
    3bd0:	11 16       	shlr.w	r6
    3bd2:	45 04       	bcs	.+4 (0x3bd8)
    3bd4:	f8 03       	mov.b	#0x3,r0l
    3bd6:	54 70       	rts	
    3bd8:	0c 66       	mov.b	r6h,r6h
    3bda:	46 06       	bne	.+6 (0x3be2)
    3bdc:	6c 4e       	mov.b	@r4+,r6l
    3bde:	f6 ff       	mov.b	#0xff,r6h
    3be0:	1b 05       	subs	#1,r5
    3be2:	11 16       	shlr.w	r6
    3be4:	98 0a       	addx	#0xa,r0l
    3be6:	54 70       	rts	
    3be8:	01 20 6d f4 	stm.l	er4-er6,@-sp
    3bec:	01 10 6d f0 	stm.l	er0-er1,@-sp
    3bf0:	01 00 69 04 	mov.l	@r0,er4
    3bf4:	01 00 6f 03 	mov.l	@(0x4:16,r0),er3
    3bf8:	00 04 
    3bfa:	0a b4       	add.l	er3,er4
    3bfc:	01 00 6f 75 	mov.l	@(0x1c:16,r7),er5
    3c00:	00 1c 
    3c02:	1a b5       	sub.l	er3,er5
    3c04:	6f 06 00 08 	mov.w	@(0x8:16,r0),r6
    3c08:	01 00 6f 73 	mov.l	@(0x18:16,r7),er3
    3c0c:	00 18 
    3c0e:	0d 3e       	mov.w	r3,e6
    3c10:	0c 66       	mov.b	r6h,r6h
    3c12:	46 06       	bne	.+6 (0x3c1a)
    3c14:	6c 4e       	mov.b	@r4+,r6l
    3c16:	f6 ff       	mov.b	#0xff,r6h
    3c18:	1b 05       	subs	#1,r5
    3c1a:	11 16       	shlr.w	r6
    3c1c:	45 12       	bcs	.+18 (0x3c30)
    3c1e:	5e 00 39 1e 	jsr	@0x391e:24
    3c22:	0f a0       	mov.l	er2,er0
    3c24:	66 e0       	and.w	e6,r0
    3c26:	66 b8       	and.w	e3,e0
    3c28:	0a 90       	add.l	er1,er0
    3c2a:	68 8b       	mov.b	r3l,@r0
    3c2c:	0b 02       	adds	#1,r2
    3c2e:	40 32       	bra	.+50 (0x3c62)
    3c30:	5e 00 39 90 	jsr	@0x3990:24
    3c34:	5e 00 3a d6 	jsr	@0x3ad6:24
    3c38:	01 00 69 f5 	mov.l	er5,@r7
    3c3c:	09 30       	add.w	r3,r0
    3c3e:	1b 53       	dec.w	#1,r3
    3c40:	0f a5       	mov.l	er2,er5
    3c42:	1a 85       	sub.l	er0,er5
    3c44:	66 e5       	and.w	e6,r5
    3c46:	66 bd       	and.w	e3,e5
    3c48:	0a 95       	add.l	er1,er5
    3c4a:	68 53       	mov.b	@r5,r3h
    3c4c:	0f a5       	mov.l	er2,er5
    3c4e:	66 e5       	and.w	e6,r5
    3c50:	66 bd       	and.w	e3,e5
    3c52:	0a 95       	add.l	er1,er5
    3c54:	68 d3       	mov.b	r3h,@r5
    3c56:	0b 02       	adds	#1,r2
    3c58:	f3 01       	mov.b	#0x1,r3h
    3c5a:	18 3b       	sub.b	r3h,r3l
    3c5c:	44 e2       	bcc	.-30 (0x3c40)
    3c5e:	01 00 69 75 	mov.l	@r7,er5
    3c62:	0f d5       	mov.l	er5,er5
    3c64:	4e aa       	bgt	.-86 (0x3c10)
    3c66:	01 10 6d 71 	ldm.l	@sp+,er0-er1
    3c6a:	01 00 69 01 	mov.l	@r0,er1
    3c6e:	1a 94       	sub.l	er1,er4
    3c70:	01 00 6f 84 	mov.l	er4,@(0x4:16,r0)
    3c74:	00 04 
    3c76:	6f 86 00 08 	mov.w	r6,@(0x8:16,r0)
    3c7a:	01 20 6d 76 	ldm.l	@sp+,er4-er6
    3c7e:	0f a0       	mov.l	er2,er0
    3c80:	54 70       	rts	
    3c82:	1a b3       	sub.l	er3,er3
    3c84:	01 00 6d f3 	mov.l	er3,@-r7
    3c88:	01 00 6d f3 	mov.l	er3,@-r7
    3c8c:	01 00 6d f1 	mov.l	er1,@-r7
    3c90:	0f 81       	mov.l	er0,er1
    3c92:	0f f0       	mov.l	er7,er0
    3c94:	01 00 6d f2 	mov.l	er2,@-r7
    3c98:	17 33       	not.l	er3
    3c9a:	01 00 6d f3 	mov.l	er3,@-r7
    3c9e:	1a a2       	sub.l	er2,er2
    3ca0:	5e 00 3b e8 	jsr	@0x3be8:24
    3ca4:	7a 17 00 00 	add.l	#0x14,er7
    3ca8:	00 14 
    3caa:	54 70       	rts	
    3cac:	7a 37 00 00 	sub.l	#0x10,er7
    3cb0:	00 10 
    3cb2:	01 20 6d f4 	stm.l	er4-er6,@-sp
    3cb6:	0f 84       	mov.l	er0,er4
    3cb8:	01 00 6f f1 	mov.l	er1,@(0x18:16,r7)
    3cbc:	00 18 
    3cbe:	01 00 6f f2 	mov.l	er2,@(0x14:16,r7)
    3cc2:	00 14 
    3cc4:	1a e6       	sub.l	er6,er6
    3cc6:	1f a6       	cmp.l	er2,er6
    3cc8:	58 c0 01 46 	bge	.+326 (0x3e12)
    3ccc:	58 00 00 8a 	bra	.+138 (0x3d5a)
    3cd0:	1a a2       	sub.l	er2,er2
    3cd2:	01 00 6f c2 	mov.l	er2,@(0x4:16,r4)
    3cd6:	00 04 
    3cd8:	01 00 6f 40 	mov.l	@(0xc:16,r4),er0
    3cdc:	00 0c 
    3cde:	0f c1       	mov.l	er4,er1
    3ce0:	7a 11 00 00 	add.l	#0x14,er1
    3ce4:	00 14 
    3ce6:	01 00 6f 72 	mov.l	@(0x10:16,r7),er2
    3cea:	00 10 
    3cec:	7a 22 00 00 	cmp.l	#0x3f,er2
    3cf0:	00 3f 
    3cf2:	4f 04       	ble	.+4 (0x3cf8)
    3cf4:	1a a2       	sub.l	er2,er2
    3cf6:	8a 3f       	add.b	#0x3f,r2l
    3cf8:	01 00 6d f2 	mov.l	er2,@-r7
    3cfc:	7a 02 00 00 	mov.l	#0x1fff,er2
    3d00:	1f ff 
    3d02:	01 00 6d f2 	mov.l	er2,@-r7
    3d06:	0f 82       	mov.l	er0,er2
    3d08:	0f c0       	mov.l	er4,er0
    3d0a:	5e 00 3b e8 	jsr	@0x3be8:24
    3d0e:	01 00 6f c0 	mov.l	er0,@(0xc:16,r4)
    3d12:	00 0c 
    3d14:	01 00 6f 41 	mov.l	@(0x4:16,r4),er1
    3d18:	00 04 
    3d1a:	01 00 6f 73 	mov.l	@(0x18:16,r7),er3
    3d1e:	00 18 
    3d20:	1a 93       	sub.l	er1,er3
    3d22:	01 00 6f f3 	mov.l	er3,@(0x18:16,r7)
    3d26:	00 18 
    3d28:	0b 97       	adds	#4,r7
    3d2a:	0b 97       	adds	#4,r7
    3d2c:	01 00 6f 75 	mov.l	@(0x10:16,r7),er5
    3d30:	00 10 
    3d32:	47 1a       	beq	.+26 (0x3d4e)
    3d34:	0a c1       	add.l	er4,er1
    3d36:	7a 11 00 00 	add.l	#0x2014,er1
    3d3a:	20 14 
    3d3c:	01 00 6f 72 	mov.l	@(0x10:16,r7),er2
    3d40:	00 10 
    3d42:	0f c0       	mov.l	er4,er0
    3d44:	7a 10 00 00 	add.l	#0x2014,er0
    3d48:	20 14 
    3d4a:	5e 00 12 0c 	jsr	@0x120c:24
    3d4e:	01 00 6f 73 	mov.l	@(0x10:16,r7),er3
    3d52:	00 10 
    3d54:	01 00 6f c3 	mov.l	er3,@(0x4:16,r4)
    3d58:	00 04 
    3d5a:	01 00 6f 43 	mov.l	@(0x10:16,r4),er3
    3d5e:	00 10 
    3d60:	01 00 6f 42 	mov.l	@(0xc:16,r4),er2
    3d64:	00 0c 
    3d66:	1f a3       	cmp.l	er2,er3
    3d68:	4c 5e       	bge	.+94 (0x3dc8)
    3d6a:	01 00 6f f6 	mov.l	er6,@(0x10:16,r7)
    3d6e:	00 10 
    3d70:	0f e5       	mov.l	er6,er5
    3d72:	01 00 6f 73 	mov.l	@(0x18:16,r7),er3
    3d76:	00 18 
    3d78:	0a b5       	add.l	er3,er5
    3d7a:	01 00 6f f5 	mov.l	er5,@(0x10:16,r7)
    3d7e:	00 10 
    3d80:	0f c0       	mov.l	er4,er0
    3d82:	7a 10 00 00 	add.l	#0x10,er0
    3d86:	00 10 
    3d88:	01 00 69 01 	mov.l	@r0,er1
    3d8c:	0f 95       	mov.l	er1,er5
    3d8e:	7a 65 00 00 	and.l	#0x1fff,er5
    3d92:	1f ff 
    3d94:	0f c2       	mov.l	er4,er2
    3d96:	0a d2       	add.l	er5,er2
    3d98:	6e 2a 00 14 	mov.b	@(0x14:16,r2),r2l
    3d9c:	01 00 6f 73 	mov.l	@(0x10:16,r7),er3
    3da0:	00 10 
    3da2:	68 ba       	mov.b	r2l,@r3
    3da4:	0b 03       	adds	#1,r3
    3da6:	01 00 6f f3 	mov.l	er3,@(0x10:16,r7)
    3daa:	00 10 
    3dac:	0b 01       	adds	#1,r1
    3dae:	01 00 69 81 	mov.l	er1,@r0
    3db2:	0b 06       	adds	#1,r6
    3db4:	01 00 6f 75 	mov.l	@(0x14:16,r7),er5
    3db8:	00 14 
    3dba:	1f d6       	cmp.l	er5,er6
    3dbc:	47 54       	beq	.+84 (0x3e12)
    3dbe:	01 00 6f 42 	mov.l	@(0xc:16,r4),er2
    3dc2:	00 0c 
    3dc4:	1f a1       	cmp.l	er2,er1
    3dc6:	4d b8       	blt	.-72 (0x3d80)
    3dc8:	01 00 6f 42 	mov.l	@(0x4:16,r4),er2
    3dcc:	00 04 
    3dce:	7a 12 00 00 	add.l	#0x2014,er2
    3dd2:	20 14 
    3dd4:	0f c1       	mov.l	er4,er1
    3dd6:	0a a1       	add.l	er2,er1
    3dd8:	7a 12 ff ff 	add.l	#0xffffdfec,er2
    3ddc:	df ec 
    3dde:	01 00 6f 43 	mov.l	@(0x2058:16,r4),er3
    3de2:	20 58 
    3de4:	01 00 6f 33 	mov.l	@(0x8:16,r3),er3
    3de8:	00 08 
    3dea:	1a d5       	sub.l	er5,er5
    3dec:	8d 44       	add.b	#0x44,r5l
    3dee:	1a a5       	sub.l	er2,er5
    3df0:	0f d2       	mov.l	er5,er2
    3df2:	0f c0       	mov.l	er4,er0
    3df4:	5d 30       	jsr	@r3
    3df6:	01 00 6f f0 	mov.l	er0,@(0x10:16,r7)
    3dfa:	00 10 
    3dfc:	01 00 6f 42 	mov.l	@(0x4:16,r4),er2
    3e00:	00 04 
    3e02:	0f 83       	mov.l	er0,er3
    3e04:	0a a3       	add.l	er2,er3
    3e06:	01 00 6f f3 	mov.l	er3,@(0x10:16,r7)
    3e0a:	00 10 
    3e0c:	0f b3       	mov.l	er3,er3
    3e0e:	58 60 fe be 	bne	.-322 (0x3cd0)
    3e12:	0f e0       	mov.l	er6,er0
    3e14:	01 20 6d 76 	ldm.l	@sp+,er4-er6
    3e18:	7a 17 00 00 	add.l	#0x10,er7
    3e1c:	00 10 
    3e1e:	54 70       	rts	
    3e20:	6b 81 f3 04 	mov.w	r1,@0xf304:16
    3e24:	0d 11       	mov.w	r1,r1
    3e26:	4f 1a       	ble	.+26 (0x3e42)
    3e28:	01 00 6b 02 	mov.l	@0xf2fe:16,er2
    3e2c:	f2 fe 
    3e2e:	69 22       	mov.w	@r2,r2
    3e30:	6b 82 f3 02 	mov.w	r2,@0xf302:16
    3e34:	6b 02 f3 04 	mov.w	@0xf304:16,r2
    3e38:	1b 02       	subs	#1,r2
    3e3a:	6b 82 f3 04 	mov.w	r2,@0xf304:16
    3e3e:	0d 22       	mov.w	r2,r2
    3e40:	4e e6       	bgt	.-26 (0x3e28)
    3e42:	6b 00 f3 02 	mov.w	@0xf302:16,r0
    3e46:	54 70       	rts	
    3e48:	7a 02 00 e0 	mov.l	#0xe00000,er2
    3e4c:	00 00 
    3e4e:	01 00 6b 82 	mov.l	er2,@0xf2fe:16
    3e52:	f2 fe 
    3e54:	69 22       	mov.w	@r2,r2
    3e56:	6b 82 f3 02 	mov.w	r2,@0xf302:16
    3e5a:	01 80       	sleep	
    3e5c:	54 70       	rts	
    3e5e:	00 47       	.word	H'0,H'47
    3e60:	66 61       	and.w	r6,r1
    3e62:	69 6c       	mov.w	@r6,e4
    3e64:	65 64       	xor.w	r6,r4
    3e66:	20 28       	mov.b	@0x28:8,r0h
    3e68:	30 78       	mov.b	r0h,@0x78:8
    3e6a:	25 58       	mov.b	@0x58:8,r5h
    3e6c:	29 2c       	mov.b	@0x2c:8,r1l
    3e6e:	20 61       	mov.b	@0x61:8,r0h
    3e70:	73 73       	btst	#0x7,r3h
    3e72:	75 6d       	bxor	#0x6,r5l
    3e74:	69 6e       	mov.w	@r6,e6
    3e76:	67 20       	bst	#0x2,r0h
    3e78:	00 70       	.word	H'0,H'70
    3e7a:	6c 61       	mov.b	@r6+,r1h
    3e7c:	69 6e       	mov.w	@r6,e6
    3e7e:	20 69       	mov.b	@0x69:8,r0h
    3e80:	6d 61       	mov.w	@r6+,r1
    3e82:	67 65       	bst	#0x6,r5h
    3e84:	3a 20       	mov.b	r2l,@0x20:8
    3e86:	6c 65       	mov.b	@r6+,r5h
    3e88:	6e 67 74 68 	mov.b	@(0x7468:16,r6),r7h
    3e8c:	20 3d       	mov.b	@0x3d:8,r0h
    3e8e:	20 25       	mov.b	@0x25:8,r0h
    3e90:	6c 64       	mov.b	@r6+,r4h
    3e92:	2c 20       	mov.b	@0x20:8,r4l
    3e94:	63 68       	btst	r6h,r0l
    3e96:	65 63       	xor.w	r6,r3
    3e98:	6b 73       	.word	H'6b,H'73
    3e9a:	75 6d       	bxor	#0x6,r5l
    3e9c:	20 69       	mov.b	@0x69:8,r0h
    3e9e:	73 20       	btst	#0x2,r0h
    3ea0:	00 4f       	.word	H'0,H'4f
    3ea2:	4b 20       	bmi	.+32 (0x3ec4)
    3ea4:	28 30       	mov.b	@0x30:8,r0l
    3ea6:	78 25       	.word	H'78,H'25
    3ea8:	30 38       	mov.b	r0h,@0x38:8
    3eaa:	6c 58       	mov.b	@r5+,r0l
    3eac:	29 00       	mov.b	@0x0:8,r1l
    3eae:	57 52       	.word	H'57,H'52
    3eb0:	4f 4e       	ble	.+78 (0x3f00)
    3eb2:	47 20       	beq	.+32 (0x3ed4)
    3eb4:	28 30       	mov.b	@0x30:8,r0l
    3eb6:	78 25       	.word	H'78,H'25
    3eb8:	30 38       	mov.b	r0h,@0x38:8
    3eba:	6c 58       	mov.b	@r5+,r0l
    3ebc:	29 00       	mov.b	@0x0:8,r1l
    3ebe:	0a 53       	add.w	#0x5,r3
    3ec0:	74 61       	bor	#0x6,r1h
    3ec2:	72 74       	bclr	#0x7,r4h
    3ec4:	69 6e       	mov.w	@r6,e6
    3ec6:	67 20       	bst	#0x2,r0h
    3ec8:	30 78       	mov.b	r0h,@0x78:8
    3eca:	25 6c       	mov.b	@0x6c:8,r5h
    3ecc:	78 2e       	.word	H'78,H'2e
    3ece:	2e 2e       	mov.b	@0x2e:8,r6l
    3ed0:	0a 00       	inc	r0h
    3ed2:	25 73       	mov.b	@0x73:8,r5h
    3ed4:	20 63       	mov.b	@0x63:8,r0h
    3ed6:	6f 6d 70 72 	mov.w	@(0x7072:16,r6),e5
    3eda:	65 73       	xor.w	r7,r3
    3edc:	73 65       	btst	#0x6,r5h
    3ede:	64 20       	or.w	r2,r0
    3ee0:	69 6d       	mov.w	@r6,e5
    3ee2:	61 67       	bnot	r6h,r7h
    3ee4:	65 0a       	xor.w	r0,e2
    3ee6:	64 65       	or.w	r6,r5
    3ee8:	63 6f       	btst	r6h,r7l
    3eea:	6d 70       	mov.w	@r7+,r0
    3eec:	72 65       	bclr	#0x6,r5h
    3eee:	73 73       	btst	#0x7,r3h
    3ef0:	69 6e       	mov.w	@r6,e6
    3ef2:	67 2e       	bst	#0x2,r6l
    3ef4:	2e 2e       	mov.b	@0x2e:8,r6l
    3ef6:	00 0a       	.word	H'0,H'a
    3ef8:	47 6f       	.word	H'47,H'6f
    3efa:	74 20       	bor	#0x2,r0h
    3efc:	68 65       	mov.b	@r6,r5h
    3efe:	61 64       	bnot	r6h,r4h
    3f00:	65 72       	xor.w	r7,r2
    3f02:	3a 20       	mov.b	r2l,@0x20:8
    3f04:	6d 61       	mov.w	@r6+,r1
    3f06:	67 69       	bst	#0x6,r1l
    3f08:	63 20       	btst	r2h,r0h
    3f0a:	25 6c       	mov.b	@0x6c:8,r5h
    3f0c:	58 20 3a 20 	bhi	.+14880 (0x7930)
    3f10:	00 49       	.word	H'0,H'49
    3f12:	4e 56       	bgt	.+86 (0x3f6a)
    3f14:	41 4c       	brn	.+76 (0x3f62)
    3f16:	49 44       	bvs	.+68 (0x3f5c)
    3f18:	21 00       	mov.b	@0x0:8,r1h
    3f1a:	00 4c       	.word	H'0,H'4c
    3f1c:	5a 53 53 00 	jmp	@0x535300:24
    3f20:	42 4d       	.word	H'42,H'4d
    3f22:	43 00       	bls	.0 (0x3f24)
    3f24:	0a 44       	add.w	#0x4,r4
    3f26:	65 63       	xor.w	r6,r3
    3f28:	6f 6d 70 72 	mov.w	@(0x7072:16,r6),e5
    3f2c:	65 73       	xor.w	r7,r3
    3f2e:	73 69       	btst	#0x6,r1l
    3f30:	6f 6e 20 65 	mov.w	@(0x2065:16,r6),e6
    3f34:	72 72       	bclr	#0x7,r2h
    3f36:	6f 72 2c 20 	mov.w	@(0x2c20:16,r7),r2
    3f3a:	72 65       	bclr	#0x6,r5h
    3f3c:	73 75       	btst	#0x7,r5h
    3f3e:	6c 74       	mov.b	@r7+,r4h
    3f40:	69 6e       	mov.w	@r6,e6
    3f42:	67 20       	bst	#0x2,r0h
    3f44:	73 69       	btst	#0x6,r1l
    3f46:	7a 65 20 69 	and.l	#0x20697320,er5
    3f4a:	73 20 
    3f4c:	25 6c       	mov.b	@0x6c:8,r5h
    3f4e:	64 00       	or.w	r0,r0
    3f50:	70 6c       	bset	#0x6,r4l
    3f52:	61 69       	bnot	r6h,r1l
    3f54:	6e 20 69 6d 	mov.b	@(0x696d:16,r2),r0h
    3f58:	61 67       	bnot	r6h,r7h
    3f5a:	65 00       	xor.w	r0,r0
    3f5c:	0a 53       	add.w	#0x5,r3
    3f5e:	63 61       	btst	r6h,r1h
    3f60:	6e 6e 69 6e 	mov.b	@(0x696e:16,r6),r6l
    3f64:	67 20       	bst	#0x2,r0h
    3f66:	66 6c       	and.w	r6,e4
    3f68:	61 73       	bnot	r7h,r3h
    3f6a:	68 3a       	mov.b	@r3,r2l
    3f6c:	20 00       	mov.b	@0x0:8,r0h
    3f6e:	70 6c       	bset	#0x6,r4l
    3f70:	61 69       	bnot	r6h,r1l
    3f72:	6e 20 69 6d 	mov.b	@(0x696d:16,r2),r0h
    3f76:	61 67       	bnot	r6h,r7h
    3f78:	65 20       	xor.w	r2,r0
    3f7a:	66 6f       	and.w	r6,e7
    3f7c:	75 6e       	bxor	#0x6,r6l
    3f7e:	64 00       	or.w	r0,r0
    3f80:	6e 6f 20 76 	mov.b	@(0x2076:16,r6),r7l
    3f84:	61 6c       	bnot	r6h,r4l
    3f86:	69 64       	mov.w	@r6,r4
    3f88:	20 69       	mov.b	@0x69:8,r0h
    3f8a:	6d 61       	mov.w	@r6+,r1
    3f8c:	67 65       	bst	#0x6,r5h
    3f8e:	20 66       	mov.b	@0x66:8,r0h
    3f90:	6f 75 6e 64 	mov.w	@(0x6e64:16,r7),r5
    3f94:	20 28       	mov.b	@0x28:8,r0h
    3f96:	6d 61       	mov.w	@r6+,r1
    3f98:	67 69       	bst	#0x6,r1l
    3f9a:	63 20       	btst	r2h,r0h
    3f9c:	3d 20       	mov.b	r5l,@0x20:8
    3f9e:	30 78       	mov.b	r0h,@0x78:8
    3fa0:	25 30       	mov.b	@0x30:8,r5h
    3fa2:	38 6c       	mov.b	r0l,@0x6c:8
    3fa4:	58 29       	.word	H'58,H'29
    3fa6:	00 0a       	.word	H'0,H'a
    3fa8:	50 72       	mulxu.b	r7h,r2
    3faa:	65 70       	xor.w	r7,r0
    3fac:	61 72       	bnot	r7h,r2h
    3fae:	69 6e       	mov.w	@r6,e6
    3fb0:	67 20       	bst	#0x2,r0h
    3fb2:	74 6f       	bor	#0x6,r7l
    3fb4:	20 6c       	mov.b	@0x6c:8,r0h
    3fb6:	6f 61 64 20 	mov.w	@(0x6420:16,r6),r1
    3fba:	43 79       	.word	H'43,H'79
    3fbc:	4f 53       	.word	H'4f,H'53
    3fbe:	0a 00       	inc	r0h
    3fc0:	72 63       	bclr	#0x6,r3h
    3fc2:	76 00       	band	#0x0,r0h
    3fc4:	75 62       	bxor	#0x6,r2h
    3fc6:	6f 6f 74 2e 	mov.w	@(0x742e:16,r6),e7
    3fca:	62 6f       	bclr	r6h,r7l
    3fcc:	6f 74 00 0a 	mov.w	@(0xa:16,r7),r4
    3fd0:	46 61       	.word	H'46,H'61
    3fd2:	74 61       	bor	#0x6,r1h
    3fd4:	6c 20       	mov.b	@r2+,r0h
    3fd6:	45 52       	bcs	.+82 (0x402a)
    3fd8:	52 4f       	.word	H'52,H'4f
    3fda:	52 3a       	.word	H'52,H'3a
    3fdc:	20 6e       	mov.b	@0x6e:8,r0h
    3fde:	6f 20 44 52 	mov.w	@(0x4452:16,r2),r0
    3fe2:	41 4d       	.word	H'41,H'4d
    3fe4:	20 69       	mov.b	@0x69:8,r0h
    3fe6:	73 20       	btst	#0x2,r0h
    3fe8:	64 65       	or.w	r6,r5
    3fea:	74 65       	bor	#0x6,r5h
    3fec:	63 74       	btst	r7h,r4h
    3fee:	65 64       	xor.w	r6,r4
    3ff0:	20 2d       	mov.b	@0x2d:8,r0h
    3ff2:	20 73       	mov.b	@0x73:8,r0h
    3ff4:	79 73       	.word	H'79,H'73
    3ff6:	74 65       	bor	#0x6,r5h
    3ff8:	6d 20       	mov.w	@r2+,r0
    3ffa:	68 61       	mov.b	@r6,r1h
    3ffc:	6c 74       	mov.b	@r7+,r4h
    3ffe:	65 64       	xor.w	r6,r4
    4000:	21 00       	mov.b	@0x0:8,r1h
    4002:	52 65       	mulxu.w	r6,er5
    4004:	63 65       	btst	r6h,r5h
    4006:	69 76       	mov.w	@r7,r6
    4008:	65 64       	xor.w	r6,r4
    400a:	20 66       	mov.b	@0x66:8,r0h
    400c:	69 6c       	mov.w	@r6,e4
    400e:	65 20       	xor.w	r2,r0
    4010:	28 25       	mov.b	@0x25:8,r0l
    4012:	6c 64       	mov.b	@r6+,r4h
    4014:	20 62       	mov.b	@0x62:8,r0h
    4016:	79 74 65 73 	mov.w	#0x6573,@(0x4:2,r1)
    401a:	29 0a 
    401c:	00 0a       	.word	H'0,H'a
    401e:	46 41       	.word	H'46,H'41
    4020:	49 4c       	bvs	.+76 (0x406e)
    4022:	45 44       	bcs	.+68 (0x4068)
    4024:	20 74       	mov.b	@0x74:8,r0h
    4026:	6f 20 64 6f 	mov.w	@(0x646f:16,r2),r0
    402a:	77 6e       	bld	#0x6,r6l
    402c:	6c 6f       	mov.b	@r6+,r7l
    402e:	61 64       	bnot	r6h,r4h
    4030:	20 4f       	mov.b	@0x4f:8,r0h
    4032:	53 20       	divxu.w	r2,er0
    4034:	66 69       	and.w	r6,e1
    4036:	6c 65       	mov.b	@r6+,r5h
    4038:	0a 00       	inc	r0h
    403a:	0a 0a       	inc	r2l
    403c:	53 74       	divxu.w	r7,er4
    403e:	61 72       	bnot	r7h,r2h
    4040:	74 69       	bor	#0x6,r1l
    4042:	6e 67 20 43 	mov.b	@(0x2043:16,r6),r7h
    4046:	79 4f 53 20 	or.w	#0x5320,e7
    404a:	62 6f       	bclr	r6h,r7l
    404c:	6f 74 20 6c 	mov.w	@(0x206c:16,r7),r4
    4050:	6f 61 64 65 	mov.w	@(0x6465:16,r6),r1
    4054:	72 20       	bclr	#0x2,r0h
    4056:	76 25       	band	#0x2,r5h
    4058:	73 0a       	btst	#0x0,r2l
    405a:	00 0a       	.word	H'0,H'a
    405c:	44 65       	.word	H'44,H'65
    405e:	74 65       	bor	#0x6,r5h
    4060:	63 74       	btst	r7h,r4h
    4062:	69 6e       	mov.w	@r6,e6
    4064:	67 20       	bst	#0x2,r0h
    4066:	44 52       	bcc	.+82 (0x40ba)
    4068:	41 4d       	.word	H'41,H'4d
    406a:	20 69       	mov.b	@0x69:8,r0h
    406c:	6e 74 65 72 	mov.b	@(0x6572:16,r7),r4h
    4070:	66 61       	and.w	r6,r1
    4072:	63 65       	btst	r6h,r5h
    4074:	20 73       	mov.b	@0x73:8,r0h
    4076:	65 74       	xor.w	r7,r4
    4078:	74 69       	bor	#0x6,r1l
    407a:	6e 67 73 2e 	mov.b	@(0x732e:16,r6),r7h
    407e:	2e 2e       	mov.b	@0x2e:8,r6l
    4080:	20 00       	mov.b	@0x0:8,r0h
    4082:	25 64       	mov.b	@0x64:8,r5h
    4084:	2d 62       	mov.b	@0x62:8,r5l
    4086:	69 74       	mov.w	@r7,r4
    4088:	20 73       	mov.b	@0x73:8,r0h
    408a:	68 69       	mov.b	@r6,r1l
    408c:	66 74       	and.w	r7,r4
    408e:	00 0a       	.word	H'0,H'a
    4090:	44 65       	.word	H'44,H'65
    4092:	74 65       	bor	#0x6,r5h
    4094:	63 74       	btst	r7h,r4h
    4096:	69 6e       	mov.w	@r6,e6
    4098:	67 20       	bst	#0x2,r0h
    409a:	44 52       	bcc	.+82 (0x40ee)
    409c:	41 4d       	.word	H'41,H'4d
    409e:	20 73       	mov.b	@0x73:8,r0h
    40a0:	69 7a       	mov.w	@r7,e2
    40a2:	65 2e       	xor.w	r2,e6
    40a4:	2e 2e       	mov.b	@0x2e:8,r6l
    40a6:	20 00       	mov.b	@0x0:8,r0h
    40a8:	25 6c       	mov.b	@0x6c:8,r5h
    40aa:	64 4b       	or.w	r4,e3
    40ac:	0a 00       	inc	r0h
    40ae:	0a 6d       	add.w	#0x6,e5
    40b0:	5f 74       	jsr	@@116 (0x74)
    40b2:	72 61       	bclr	#0x6,r1h
    40b4:	63 65       	btst	r6h,r5h
    40b6:	3a 20       	mov.b	r2l,@0x20:8
    40b8:	30 78       	mov.b	r0h,@0x78:8
    40ba:	25 30       	mov.b	@0x30:8,r5h
    40bc:	38 6c       	mov.b	r0l,@0x6c:8
    40be:	58 00 00 04 	bra	.+4 (0x40c6)
    40c2:	08 fe       	add.b	r7l,r6l
    40c4:	fd e7       	mov.b	#0xe7,r5l
    40c6:	98 e3       	addx	#0xe3,r0l
    40c8:	3a be       	mov.b	r2l,@0xbe:8
    40ca:	1d 7f       	cmp.w	r7,e7
    40cc:	c0 f1       	or.b	#0xf1,r0h
    40ce:	1f 70       	cmp.w	#0x7,r0
    40d0:	fc 0f       	mov.b	#0xf,r4l
    40d2:	70 fc       	.word	H'70,H'fc
    40d4:	ff f8       	mov.b	#0xf8,r7l
    40d6:	cf 3d       	or.b	#0x3d,r7l
    40d8:	00 00       	nop	
    40da:	c0 ff       	or.b	#0xff,r0h
    40dc:	87 fc       	add.b	#0xfc,r7h
    40de:	3c 64       	mov.b	r4l,@0x64:8
    40e0:	18 e0       	sub.b	r6l,r0h
    40e2:	3f e4       	mov.b	r7l,@0xe4:8
    40e4:	61 20       	bnot	r2h,r0h
    40e6:	c3 00       	or.b	#0x0,r3h
    40e8:	80 ff       	add.b	#0xff,r0h
    40ea:	43 2d       	.word	H'43,H'2d
    40ec:	75 d8       	bixor	#0x5,r0l
    40ee:	f5 a4       	mov.b	#0xa4,r5h
    40f0:	4a fd       	.word	H'4a,H'fd
    40f2:	07 df       	ldc	#0xdf,ccr
    40f4:	7e 6a       	.word	H'7e,H'6a
    40f6:	6a 8e bd f9 	mov.b	r6l,@0xbdf9:16
    40fa:	a5 4a       	cmp.b	#0x4a,r5h
    40fc:	ff 47       	mov.b	#0x47,r7l
    40fe:	5f 4d       	jsr	@@77 (0x4d)
    4100:	d8 c0       	xor.b	#0xc0,r0l
    4102:	13 76       	rotxr.l	#2,er6
    4104:	86 f1       	add.b	#0xf1,r6h
    4106:	ff f1       	mov.b	#0xf1,r7l
    4108:	67 12       	bst	#0x1,r2h
    410a:	cb ef       	or.b	#0xef,r3l
    410c:	5c bd       	.word	H'5c,H'bd
    410e:	fe e4       	mov.b	#0xe4,r6l
    4110:	23 47       	mov.b	@0x47:8,r3h
    4112:	47 5c       	beq	.+92 (0x4170)
    4114:	03 7e       	ldc	er6,sbr
    4116:	18 dd       	sub.b	r5l,r5l
    4118:	0e 06       	addx	r0h,r6h
    411a:	6c e0       	mov.b	r0h,@-r6
    411c:	88 d7       	add.b	#0xd7,r0l
    411e:	ea cf       	and.b	#0xcf,r2l
    4120:	ef 00       	and.b	#0x0,r7l
    4122:	3c 3c       	mov.b	r4l,@0x3c:8
    4124:	03 7f       	ldc	er7,sbr
    4126:	98 da       	addx	#0xda,r0l
    4128:	0e 8e       	addx	r0l,r6l
    412a:	b0 30       	subx	#0x30,r0h
    412c:	34 bb       	mov.b	r4h,@0xbb:8
    412e:	91 ed       	addx	#0xed,r1h
    4130:	4c e8       	bge	.-24 (0x411a)
    4132:	07 80       	ldc	#0x80,ccr
    4134:	48 79       	.word	H'48,H'79
    4136:	04 50       	orc	#0x50,ccr
    4138:	f9 19       	mov.b	#0x19,r1l
    413a:	00 e3       	.word	H'0,H'e3
    413c:	e7 de       	and.b	#0xde,r7h
    413e:	ef ff       	and.b	#0xff,r7l
    4140:	0c c9       	mov.b	r4l,r1l
    4142:	0e 86       	addx	r0l,r6h
    4144:	33 08       	mov.b	r3h,@0x8:8
    4146:	fc 0c       	mov.b	#0xc,r4l
    4148:	c9 14       	or.b	#0x14,r1l
    414a:	f0 9d       	mov.b	#0x9d,r0h
    414c:	86 df       	add.b	#0xdf,r6h
    414e:	8f 1f       	add.b	#0x1f,r7l
    4150:	0c ef       	mov.b	r6l,r7l
    4152:	5d 0f       	jsr	@@572 (0x23c)
    4154:	60 7a       	bset	r7h,r2l
    4156:	ce 7e       	or.b	#0x7e,r6l
    4158:	7e a3       	.word	H'7e,H'a3
    415a:	ec 19       	and.b	#0x19,r4l
    415c:	92 23       	addx	#0x23,r2h
    415e:	69 8f       	mov.w	e7,@r0
    4160:	5d 3f       	jsr	@@764 (0x2fc)
    4162:	66 de       	and.w	e5,e6
    4164:	bb 79       	subx	#0x79,r3l
    4166:	d4 e2       	xor.b	#0xe2,r4h
    4168:	ee 64       	and.b	#0x64,r6l
    416a:	2f 29       	mov.b	@0x29:8,r7l
    416c:	3d 03       	mov.b	r5l,@0x3:8
    416e:	d7 7a       	xor.b	#0x7a,r7h
    4170:	86 7d       	add.b	#0x7d,r6h
    4172:	b8 39       	subx	#0x39,r0l
    4174:	83 f0       	add.b	#0xf0,r3h
    4176:	83 99       	add.b	#0x99,r3h
    4178:	dc 9e       	xor.b	#0x9e,r4l
    417a:	81 63       	add.b	#0x63,r1h
    417c:	03 7c       	ldc	er4,sbr
    417e:	17 df       	exts.w	e7
    4180:	f1 9e       	mov.b	#0x9e,r1h
    4182:	41 8d       	.word	H'41,H'8d
    4184:	69 85       	mov.w	r5,@r0
    4186:	db e1       	xor.b	#0xe1,r3l
    4188:	3b 18       	mov.b	r3l,@0x18:8
    418a:	b0 83       	subx	#0x83,r0h
    418c:	24 9f       	mov.b	@0x9f:8,r4h
    418e:	6f f4 5f ac 	mov.w	r4,@(0x5fac:16,r7)
    4192:	34 89       	mov.b	r4h,@0x89:8
    4194:	1a 38       	sub.w	#0x3,e0
    4196:	09 75       	add.w	r7,r5
    4198:	fc 0c       	mov.b	#0xc,r4l
    419a:	b9 49       	subx	#0x49,r1l
    419c:	70 85       	.word	H'70,H'85
    419e:	bc 83       	subx	#0x83,r4l
    41a0:	37 bb       	mov.b	r7h,@0xbb:8
    41a2:	19 d2       	sub.w	e5,r2
    41a4:	f8 66       	mov.b	#0x66,r0l
    41a6:	d4 e8       	xor.b	#0xe8,r4h
    41a8:	f1 77       	mov.b	#0x77,r1h
    41aa:	2b 01       	mov.b	@0x1:8,r3l
    41ac:	3f 03       	mov.b	r7l,@0x3:8
    41ae:	1b ec       	.word	H'1b,H'ec
    41b0:	18 7b       	sub.b	r7h,r3l
    41b2:	4c fe       	bge	.-2 (0x41b2)
    41b4:	db 5c       	xor.b	#0x5c,r3l
    41b6:	f2 3d       	mov.b	#0x3d,r2h
    41b8:	9e 12       	addx	#0x12,r6l
    41ba:	67 89       	bist	#0x0,r1l
    41bc:	e3 49       	and.b	#0x49,r3h
    41be:	f0 bb       	mov.b	#0xbb,r0h
    41c0:	f3 99       	mov.b	#0x99,r3h
    41c2:	ff b1       	mov.b	#0xb1,r7l
    41c4:	33 12       	mov.b	r3h,@0x12:8
    41c6:	3d 59       	mov.b	r5l,@0x59:8
    41c8:	1d b2       	cmp.w	e3,r2
    41ca:	bf f7       	subx	#0xf7,r7l
    41cc:	47 a4       	beq	.-92 (0x4172)
    41ce:	99 56       	addx	#0x56,r1l
    41d0:	8f 95       	add.b	#0x95,r7l
    41d2:	ff e7       	mov.b	#0xe7,r7l
    41d4:	36 68       	mov.b	r6h,@0x68:8
    41d6:	01 9f       	.word	H'1,H'9f
    41d8:	db a3       	xor.b	#0xa3,r3l
    41da:	f0 fc       	mov.b	#0xfc,r0h
    41dc:	26 f6       	mov.b	@0xf6:8,r6h
    41de:	b7 db       	subx	#0xdb,r7h
    41e0:	1c 78       	cmp.b	r7h,r0l
    41e2:	26 98       	mov.b	@0x98:8,r6h
    41e4:	17 07       	not.b	r7h
    41e6:	5e be 3b 6a 	jsr	@0xbe3b6a:24
    41ea:	07 df       	ldc	#0xdf,ccr
    41ec:	aa df       	cmp.b	#0xdf,r2l
    41ee:	c1 6f       	or.b	#0x6f,r1h
    41f0:	e6 7d       	and.b	#0x7d,r6h
    41f2:	e8 b6       	and.b	#0xb6,r0l
    41f4:	be 3f       	subx	#0x3f,r6l
    41f6:	76 72       	band	#0x7,r2h
    41f8:	5f 6d       	jsr	@@109 (0x6d)
    41fa:	ff db       	mov.b	#0xdb,r7l
    41fc:	1c f2       	cmp.b	r7l,r2h
    41fe:	b9 f7       	subx	#0xf7,r1l
    4200:	57 c8       	.word	H'57,H'c8
    4202:	0f 51       	mov.w	#0x5,r1
    4204:	7e 70       	.word	H'7e,H'70
    4206:	cb 88       	or.b	#0x88,r3l
    4208:	75 c9       	bixor	#0x4,r1l
    420a:	1b ff       	.word	H'1b,H'ff
    420c:	19 b4       	sub.w	e3,r4
    420e:	32 7e       	mov.b	r2h,@0x7e:8
    4210:	c8 f3       	or.b	#0xf3,r0l
    4212:	13 00       	rotxr.b	r0h
    4214:	ff 5a       	mov.b	#0x5a,r7l
    4216:	fe 21       	mov.b	#0x21,r6l
    4218:	75 2c       	bxor	#0x2,r4l
    421a:	a5 ff       	cmp.b	#0xff,r5h
    421c:	61 00       	bnot	r0h,r0h
    421e:	f9 9d       	mov.b	#0x9d,r1l
    4220:	ec 4f       	and.b	#0x4f,r4l
    4222:	a7 fc       	cmp.b	#0xfc,r7h
    4224:	21 80       	mov.b	@0x80:8,r1h
    4226:	f7 7f       	mov.b	#0x7f,r7h
    4228:	0d b0       	mov.w	e3,r0
    422a:	71 72       	bnot	#0x7,r2h
    422c:	33 fc       	mov.b	r3h,@0xfc:8
    422e:	4f 74       	ble	.+116 (0x42a4)
    4230:	bb 38       	subx	#0x38,r3l
    4232:	2c fe       	mov.b	@0xfe:8,r4l
    4234:	da f3       	xor.b	#0xf3,r2l
    4236:	33 0b       	mov.b	r3h,@0xb:8
    4238:	86 fb       	add.b	#0xfb,r6h
    423a:	fa c1       	mov.b	#0xc1,r2l
    423c:	73 6b       	btst	#0x6,r3l
    423e:	fd 4c       	mov.b	#0x4c,r5l
    4240:	f4 f0       	mov.b	#0xf0,r4h
    4242:	f0 d8       	mov.b	#0xd8,r0h
    4244:	c7 ce       	or.b	#0xce,r7h
    4246:	cc 7e       	or.b	#0x7e,r4l
    4248:	e9 d7       	and.b	#0xd7,r1l
    424a:	b0 1f       	subx	#0x1f,r0h
    424c:	cc a1       	or.b	#0xa1,r4l
    424e:	fe e8       	mov.b	#0xe8,r6l
    4250:	2f 23       	mov.b	@0x23:8,r7l
    4252:	f0 00       	mov.b	#0x0,r0h
    4254:	0e eb       	addx	r6l,r3l
    4256:	67 bf       	bist	#0x3,r7l
    4258:	0f 0f       	daa	r7l
    425a:	f9 19       	mov.b	#0x19,r1l
    425c:	36 90       	mov.b	r6h,@0x90:8
    425e:	67 cc       	bist	#0x4,r4l
    4260:	85 ea       	add.b	#0xea,r5h
    4262:	03 64       	ldc	er4,vbr
    4264:	f1 84       	mov.b	#0x84,r1h
    4266:	8b 76       	add.b	#0x76,r3l
    4268:	62 41       	bclr	r4h,r1h
    426a:	2c 18       	mov.b	@0x18:8,r4l
    426c:	0c 59       	mov.b	r5h,r1l
    426e:	cc 30       	or.b	#0x30,r4l
    4270:	ff 7d       	mov.b	#0x7d,r7l
    4272:	e4 dc       	and.b	#0xdc,r4h
    4274:	b7 43       	subx	#0x43,r7h
    4276:	7b cb       	.word	H'7b,H'cb
    4278:	19 86       	sub.w	e0,r6
    427a:	c3 83       	or.b	#0x83,r3h
    427c:	e7 7c       	and.b	#0x7c,r7h
    427e:	af e9       	cmp.b	#0xe9,r7l
    4280:	50 6b       	mulxu.b	r6h,e3
    4282:	22 f2       	mov.b	@0xf2:8,r2h
    4284:	d0 19       	xor.b	#0x19,r0h
    4286:	59 2c       	.word	H'59,H'2c
    4288:	d8 9e       	xor.b	#0x9e,r0l
    428a:	5f 7e       	jsr	@@126 (0x7e)
    428c:	31 bd       	mov.b	r1h,@0xbd:8
    428e:	83 63       	add.b	#0x63,r3h
    4290:	65 07       	xor.w	r0,r7
    4292:	af e9       	cmp.b	#0xe9,r7l
    4294:	0e c5       	addx	r4l,r5h
    4296:	9f 20       	addx	#0x20,r7l
    4298:	3d c4       	mov.b	r5l,@0xc4:8
    429a:	e0 ec       	and.b	#0xec,r0h
    429c:	26 cc       	mov.b	@0xcc:8,r6h
    429e:	7d 0d       	.word	H'7d,H'd
    42a0:	ef 3d       	and.b	#0x3d,r7l
    42a2:	c3 e2       	or.b	#0xe2,r3h
    42a4:	65 86       	xor.w	e0,r6
    42a6:	84 75       	add.b	#0x75,r4h
    42a8:	ce a0       	or.b	#0xa0,r6l
    42aa:	50 4a       	mulxu.b	r4h,e2
    42ac:	42 08       	bhi	.+8 (0x42b6)
    42ae:	41 8e       	brn	.-114 (0x423e)
    42b0:	d1 40       	xor.b	#0x40,r1h
    42b2:	90 44       	addx	#0x44,r0h
    42b4:	9e 67       	addx	#0x67,r6l
    42b6:	3e 32       	mov.b	r6l,@0x32:8
    42b8:	ec 09       	and.b	#0x9,r4l
    42ba:	b3 c3       	subx	#0xc3,r3h
    42bc:	c1 e7       	or.b	#0xe7,r1h
    42be:	fb c7       	mov.b	#0xc7,r3l
    42c0:	a8 bb       	cmp.b	#0xbb,r0l
    42c2:	b3 ff       	subx	#0xff,r3h
    42c4:	50 89       	mulxu.b	r0l,e1
    42c6:	fd 11       	mov.b	#0x11,r5l
    42c8:	c7 7f       	or.b	#0x7f,r7h
    42ca:	8c 92       	add.b	#0x92,r4l
    42cc:	eb e1       	and.b	#0xe1,r3l
    42ce:	87 34       	add.b	#0x34,r7h
    42d0:	5a 99 be 77 	jmp	@0x99be77:24
    42d4:	47 eb       	.word	H'47,H'eb
    42d6:	7f c8       	.word	H'7f,H'c8
    42d8:	e3 87       	and.b	#0x87,r3h
    42da:	d3 23       	xor.b	#0x23,r3h
    42dc:	8a aa       	add.b	#0xaa,r2l
    42de:	f2 a8       	mov.b	#0xa8,r2h
    42e0:	d9 40       	xor.b	#0x40,r1l
    42e2:	7e 55       	.word	H'7e,H'55
    42e4:	34 fe       	mov.b	r4h,@0xfe:8
    42e6:	c2 95       	or.b	#0x95,r2h
    42e8:	d1 dd       	xor.b	#0xdd,r1h
    42ea:	b7 f9       	subx	#0xf9,r7h
    42ec:	25 d0       	mov.b	@0xd0:8,r5h
    42ee:	67 e0       	bist	#0x6,r0h
    42f0:	2a 36       	mov.b	@0x36:8,r2l
    42f2:	d2 7d       	xor.b	#0x7d,r2h
    42f4:	de 6f       	xor.b	#0x6f,r6l
    42f6:	78 f8       	.word	H'78,H'f8
    42f8:	df 66       	xor.b	#0x66,r7l
    42fa:	88 e8       	add.b	#0xe8,r0l
    42fc:	cb e5       	or.b	#0xe5,r3l
    42fe:	ac 64       	cmp.b	#0x64,r4l
    4300:	58 75       	.word	H'58,H'75
    4302:	02 3e       	stmac	macl,er6
    4304:	9b 21       	addx	#0x21,r3l
    4306:	f2 92       	mov.b	#0x92,r2h
    4308:	fa 9a       	mov.b	#0x9a,r2l
    430a:	ae 8e       	cmp.b	#0x8e,r6l
    430c:	ff 9e       	mov.b	#0x9e,r7l
    430e:	1b 32       	.word	H'1b,H'32
    4310:	ba 06       	subx	#0x6,r2l
    4312:	4c c8       	bge	.-56 (0x42dc)
    4314:	13 ce       	rotr.b	#2,r6l
    4316:	3c bf       	mov.b	r4l,@0xbf:8
    4318:	af ff       	cmp.b	#0xff,r7l
    431a:	13 c3       	rotr.b	#2,r3h
    431c:	1f 2a       	cmp.w	#0x2,e2
    431e:	a1 0f       	cmp.b	#0xf,r1h
    4320:	a1 ff       	cmp.b	#0xff,r1h
    4322:	bf 08       	subx	#0x8,r7l
    4324:	f4 ff       	mov.b	#0xff,r4h
    4326:	e3 ff       	and.b	#0xff,r3h
    4328:	c7 ff       	or.b	#0xff,r7h
    432a:	8f ff       	add.b	#0xff,r7l
    432c:	c0 03       	or.b	#0x3,r0h
    432e:	fe fd       	mov.b	#0xfd,r6l
    4330:	e7 98       	and.b	#0x98,r7h
    4332:	e3 3a       	and.b	#0x3a,r3h
    4334:	be 1d       	subx	#0x1d,r6l
    4336:	7f c0 f1 1f 	bfst	r1h,#0x1f,@0xc0:8
    433a:	70 fc       	.word	H'70,H'fc
    433c:	0f 70       	mov.w	#0x7,r0
    433e:	fc 6f       	mov.b	#0x6f,r4l
    4340:	78 80       	.word	H'78,H'80
    4342:	f7 70       	mov.b	#0x70,r7h
    4344:	5e 03 73 35 	jsr	@0x37335:24
    4348:	fc f9       	mov.b	#0xf9,r4l
    434a:	85 7f       	add.b	#0x7f,r5h
    434c:	ce 67       	or.b	#0x67,r6l
    434e:	c3 bf       	or.b	#0xbf,r3h
    4350:	e1 67       	and.b	#0x67,r1h
    4352:	15 40       	xor.b	r4h,r0h
    4354:	56 c0       	.word	H'56,H'c0
    4356:	e7 ff       	and.b	#0xff,r7h
    4358:	63 db       	btst	r5l,r3l
    435a:	cf e7       	or.b	#0xe7,r7l
    435c:	b6 07       	subx	#0x7,r6h
    435e:	30 e0       	mov.b	r0h,@0xe0:8
    4360:	c1 60       	or.b	#0x60,r1h
    4362:	30 9f       	mov.b	r0h,@0x9f:8
    4364:	4b 7e       	bmi	.+126 (0x43e4)
    4366:	86 01       	add.b	#0x1,r6h
    4368:	c4 1c       	or.b	#0x1c,r4h
    436a:	78 c0       	.word	H'78,H'c0
    436c:	dd 05       	xor.b	#0x5,r5l
    436e:	6f c0 83 19 	mov.w	r0,@(0x8319:16,r4)
    4372:	3c 80       	mov.b	r4l,@0x80:8
    4374:	f3 99       	mov.b	#0x99,r3h
    4376:	7f c3       	.word	H'7f,H'c3
    4378:	19 e9       	sub.w	e6,e1
    437a:	c1 3c       	or.b	#0x3c,r1h
    437c:	00 3f       	.word	H'0,H'3f
    437e:	5d ca       	jsr	@@808 (0x328)
    4380:	0a 06       	inc	r6h
    4382:	c0 19       	or.b	#0x19,r0h
    4384:	18 13       	sub.b	r1h,r3h
    4386:	e3 11       	and.b	#0x11,r3h
    4388:	00 06       	.word	H'0,H'6
    438a:	03 78       	ldc	er0,sbr
    438c:	00 74       	.word	H'0,H'74
    438e:	3a e0       	mov.b	r2l,@0xe0:8
    4390:	5c 01       	.word	H'5c,H'1
    4392:	80 01       	add.b	#0x1,r0h
    4394:	60 18       	bset	r1h,r0l
    4396:	0c 9e       	mov.b	r1l,r6l
    4398:	7c 75       	.word	H'7c,H'75
    439a:	28 e0       	mov.b	@0xe0:8,r0l
    439c:	0c 58       	mov.b	r5h,r0l
    439e:	9b 31       	addx	#0x31,r3l
    43a0:	96 61       	addx	#0x61,r6h
    43a2:	7d 66       	.word	H'7d,H'66
    43a4:	c5 7c       	or.b	#0x7c,r5h
    43a6:	2e 06       	mov.b	@0x6:8,r6l
    43a8:	e6 1a       	and.b	#0x1a,r6h
    43aa:	17 b5       	neg.l	er5
    43ac:	d9 23       	xor.b	#0x23,r1l
    43ae:	0b 19       	.word	H'b,H'19
    43b0:	d5 7f       	xor.b	#0x7f,r5h
    43b2:	c3 99       	or.b	#0x99,r3h
    43b4:	5d 23       	jsr	@@652 (0x28c)
    43b6:	63 26       	btst	r2h,r6h
    43b8:	73 27       	btst	#0x2,r7h
    43ba:	9c 7c       	addx	#0x7c,r4l
    43bc:	e4 92       	and.b	#0x92,r4h
    43be:	ad c7       	cmp.b	#0xc7,r5l
    43c0:	64 2f       	or.w	r2,e7
    43c2:	99 04       	addx	#0x4,r1l
    43c4:	06 ff       	andc	#0xff,ccr
    43c6:	0e de       	addx	r5l,r6l
    43c8:	37 c3       	mov.b	r7h,@0xc3:8
    43ca:	66 67       	and.w	r6,r7
    43cc:	b2 49       	subx	#0x49,r2h
    43ce:	a8 0d       	cmp.b	#0xd,r0l
    43d0:	d7 f0       	xor.b	#0xf0,r7h
    43d2:	13 66       	.word	H'13,H'66
    43d4:	b6 01       	subx	#0x1,r6h
    43d6:	67 58       	bst	#0x5,r0l
    43d8:	be 77       	subx	#0x77,r6l
    43da:	70 76       	bset	#0x7,r6h
    43dc:	c7 cc       	or.b	#0xcc,r7h
    43de:	bf 3c       	subx	#0x3c,r7l
    43e0:	7e d3 ff 42 	bfld	#0x42,@0xd3:8,r7l
    43e4:	ac 57       	cmp.b	#0x57,r4l
    43e6:	9e 7f       	addx	#0x7f,r6l
    43e8:	c0 ed       	or.b	#0xed,r0h
    43ea:	3f 5c       	mov.b	r7l,@0x5c:8
    43ec:	8e b5       	add.b	#0xb5,r6l
    43ee:	57 19       	.word	H'57,H'19
    43f0:	cf 71       	or.b	#0x71,r7l
    43f2:	29 74       	mov.b	@0x74:8,r1l
    43f4:	dc e1       	xor.b	#0xe1,r4l
    43f6:	19 65       	sub.w	r6,r5
    43f8:	7d db       	.word	H'7d,H'db
    43fa:	98 af       	addx	#0xaf,r0l
    43fc:	9e cf       	addx	#0xcf,r6l
    43fe:	c0 09       	or.b	#0x9,r0h
    4400:	6d 8e       	mov.w	e6,@-r0
    4402:	7f 9b       	.word	H'7f,H'9b
    4404:	91 48       	addx	#0x48,r1h
    4406:	05 e0       	xorc	#0xe0,ccr
    4408:	67 8e       	bist	#0x0,r6l
    440a:	08 d1       	add.b	r5l,r1h
    440c:	03 f8       	.word	H'3,H'f8
    440e:	fc 3c       	mov.b	#0x3c,r4l
    4410:	44 20       	bcc	.+32 (0x4432)
    4412:	51 2d       	divxu.b	r2h,e5
    4414:	86 aa       	add.b	#0xaa,r6h
    4416:	a0 ba       	cmp.b	#0xba,r0h
    4418:	c6 10       	or.b	#0x10,r6h
    441a:	11 82       	shar.b	r2h
    441c:	31 ec       	mov.b	r1h,@0xec:8
    441e:	01 0f       	.word	H'1,H'f
    4420:	e6 48       	and.b	#0x48,r6h
    4422:	a0 d2       	cmp.b	#0xd2,r0h
    4424:	8d 94       	add.b	#0x94,r5l
    4426:	aa 3d       	cmp.b	#0x3d,r2l
    4428:	c0 73       	or.b	#0x73,r0h
    442a:	d4 82       	xor.b	#0x82,r4h
    442c:	9f 4a       	addx	#0x4a,r7l
    442e:	a7 aa       	cmp.b	#0xaa,r7h
    4430:	c9 1b       	or.b	#0x1b,r1l
    4432:	69 65       	mov.w	@r6,r5
    4434:	98 81       	addx	#0x81,r0l
    4436:	6e 02 e8 57 	mov.b	@(0xe857:16,r0),r2h
    443a:	b4 de       	subx	#0xde,r4h
    443c:	a1 33       	cmp.b	#0x33,r1h
    443e:	a0 32       	cmp.b	#0x32,r0h
    4440:	1b 45       	.word	H'1b,H'45
    4442:	c6 6d       	or.b	#0x6d,r6h
    4444:	35 b9       	mov.b	r5h,@0xb9:8
    4446:	aa ca       	cmp.b	#0xca,r2l
    4448:	1b 02       	subs	#1,r2
    444a:	ab d9       	cmp.b	#0xd9,r3l
    444c:	6e 8e 7a f0 	mov.b	r6l,@(0x7af0:16,r0)
    4450:	9b 19       	addx	#0x19,r3l
    4452:	d5 64       	xor.b	#0x64,r5h
    4454:	50 16       	mulxu.b	r1h,r6
    4456:	a3 ca       	cmp.b	#0xca,r3h
    4458:	39 2a       	mov.b	r1l,@0x2a:8
    445a:	cf 31       	or.b	#0x31,r7l
    445c:	53 95       	divxu.w	e1,er5
    445e:	e6 ad       	and.b	#0xad,r6h
    4460:	e3 19       	and.b	#0x19,r3h
    4462:	52 23       	mulxu.w	r2,er3
    4464:	f9 c6       	mov.b	#0xc6,r1l
    4466:	5f ca       	jsr	@@202 (0xca)
    4468:	6c b8       	mov.b	r0l,@-r3
    446a:	19 54       	sub.w	r5,r4
    446c:	9d f7       	addx	#0xf7,r5l
    446e:	ec d0       	and.b	#0xd0,r4l
    4470:	98 4b       	addx	#0x4b,r0l
    4472:	78 d5       	.word	H'78,H'd5
    4474:	e8 0c       	and.b	#0xc,r0l
    4476:	59 d3       	jmp	@@844 (0x34c)
    4478:	59 ca       	jmp	@@808 (0x328)
    447a:	35 df       	mov.b	r5h,@0xdf:8
    447c:	3b f8       	mov.b	r3l,@0xf8:8
    447e:	7b b6       	.word	H'7b,H'b6
    4480:	7f 8b       	.word	H'7f,H'8b
    4482:	d2 f3       	xor.b	#0xf3,r2h
    4484:	1f 7e       	cmp.w	#0x7,e6
    4486:	fe 13       	mov.b	#0x13,r6l
    4488:	ca 7f       	or.b	#0x7f,r2l
    448a:	ac 9c       	cmp.b	#0x9c,r4l
    448c:	3d df       	mov.b	r5l,@0xdf:8
    448e:	cc 1d       	or.b	#0x1d,r4l
    4490:	62 7f       	bclr	r7h,r7l
    4492:	d9 0b       	xor.b	#0xb,r1l
    4494:	25 7e       	mov.b	@0x7e:8,r5h
    4496:	db 78       	xor.b	#0x78,r3l
    4498:	b1 e1       	subx	#0xe1,r1h
    449a:	e7 f6       	and.b	#0xf6,r7h
    449c:	32 fa       	mov.b	r2h,@0xfa:8
    449e:	aa 79       	cmp.b	#0x79,r2l
    44a0:	94 91       	addx	#0x91,r4h
    44a2:	7c 43       	.word	H'7c,H'43
    44a4:	57 61       	.word	H'57,H'61
    44a6:	b0 b0       	subx	#0xb0,r0h
    44a8:	66 d5       	and.w	e5,r5
    44aa:	0e 26       	addx	r2h,r6h
    44ac:	cf a8       	or.b	#0xa8,r7l
    44ae:	b1 6a       	subx	#0x6a,r1h
    44b0:	3f 1b       	mov.b	r7l,@0x1b:8
    44b2:	23 e4       	mov.b	@0xe4:8,r3h
    44b4:	88 32       	add.b	#0x32,r0l
    44b6:	b4 31       	subx	#0x31,r4h
    44b8:	e3 32       	and.b	#0x32,r3h
    44ba:	d0 40       	xor.b	#0x40,r0h
    44bc:	86 65       	add.b	#0x65,r6h
    44be:	68 69       	mov.b	@r6,r1l
    44c0:	77 c4       	bild	#0x4,r4h
    44c2:	17 95       	neg.w	r5
    44c4:	8f 02       	add.b	#0x2,r7l
    44c6:	a3 c6       	cmp.b	#0xc6,r3h
    44c8:	93 f3       	addx	#0xf3,r3h
    44ca:	68 29       	mov.b	@r2,r1l
    44cc:	f2 19       	mov.b	#0x19,r2h
    44ce:	fe e9       	mov.b	#0xe9,r6l
    44d0:	03 7c       	ldc	er4,sbr
    44d2:	06 55       	andc	#0x55,ccr
    44d4:	be 73       	subx	#0x73,r6l
    44d6:	54 f1       	.word	H'54,H'f1
    44d8:	d5 59       	xor.b	#0x59,r5h
    44da:	59 a8       	jmp	@@672 (0x2a0)
    44dc:	aa 7a       	cmp.b	#0x7a,r2l
    44de:	c2 34       	or.b	#0x34,r2h
    44e0:	50 66       	mulxu.b	r6h,r6
    44e2:	19 bd       	sub.w	e3,e5
    44e4:	77 4e       	bld	#0x4,r6l
    44e6:	86 45       	add.b	#0x45,r6h
    44e8:	59 b1       	jmp	@@708 (0x2c4)
    44ea:	54 b3       	.word	H'54,H'b3
    44ec:	1d 3a       	cmp.w	r3,e2
    44ee:	ba ac       	subx	#0xac,r2l
    44f0:	5e 0f 97 ad 	jsr	@0xf97ad:24
    44f4:	c1 72       	or.b	#0x72,r1h
    44f6:	4f 39       	.word	H'4f,H'39
    44f8:	68 c2       	mov.b	r2h,@r4
    44fa:	99 21       	addx	#0x21,r1l
    44fc:	51 5b       	divxu.b	r5h,e3
    44fe:	c3 ed       	or.b	#0xed,r3h
    4500:	d0 fc       	xor.b	#0xfc,r0h
    4502:	4f 38       	ble	.+56 (0x453c)
    4504:	35 7b       	mov.b	r5h,@0x7b:8
    4506:	0d 48       	mov.w	r4,e0
    4508:	d8 31       	xor.b	#0x31,r0l
    450a:	58 2d       	.word	H'58,H'2d
    450c:	fc 93       	mov.b	#0x93,r4l
    450e:	e7 f7       	and.b	#0xf7,r7h
    4510:	dc be       	xor.b	#0xbe,r4l
    4512:	56 e6       	.word	H'56,H'e6
    4514:	1f 70       	cmp.w	#0x7,r0
    4516:	fb a3       	mov.b	#0xa3,r3l
    4518:	65 36       	xor.w	r3,r6
    451a:	2c b5       	mov.b	@0xb5:8,r4l
    451c:	e6 ca       	and.b	#0xca,r6h
    451e:	74 9f       	bior	#0x1,r7l
    4520:	e0 e7       	and.b	#0xe7,r0h
    4522:	1f e1       	cmp.l	er6,er1
    4524:	5f f2       	jsr	@@242 (0xf2)
    4526:	8d c0       	add.b	#0xc0,r5l
    4528:	ff 81       	mov.b	#0x81,r7l
    452a:	af 73       	cmp.b	#0x73,r7l
    452c:	19 c5       	sub.w	e4,r5
    452e:	44 e1       	.word	H'44,H'e1
    4530:	c3 62       	or.b	#0x62,r3h
    4532:	c9 3f       	or.b	#0x3f,r1l
    4534:	f2 8a       	mov.b	#0x8a,r2h
    4536:	30 47       	mov.b	r0h,@0x47:8
    4538:	f0 07       	mov.b	#0x7,r0h
    453a:	02 af       	stmac	mach,er7
    453c:	4a 93       	.word	H'4a,H'93
    453e:	55 ff       	bsr	.-1 (0x453f)
    4540:	c3 12       	or.b	#0x12,r3h
    4542:	47 51       	.word	H'47,H'51
    4544:	23 bf       	mov.b	@0xbf:8,r3h
    4546:	88 3d       	add.b	#0x3d,r0l
    4548:	c3 0a       	or.b	#0xa,r3h
    454a:	56 02       	rte/l	er2
    454c:	1e 2a       	subx	r2h,r2l
    454e:	ba 03       	subx	#0x3,r2l
    4550:	81 67       	add.b	#0x67,r1h
    4552:	ad 0c       	cmp.b	#0xc,r5l
    4554:	32 f2       	mov.b	r2h,@0xf2:8
    4556:	ab 50       	cmp.b	#0x50,r3l
    4558:	1b e4       	.word	H'1b,H'e4
    455a:	40 f1       	bra/s	.-16 (0x454c)
    455c:	b2 b8       	subx	#0xb8,r2h
    455e:	7f cc       	.word	H'7f,H'cc
    4560:	ab b8       	cmp.b	#0xb8,r3l
    4562:	98 0c       	addx	#0xc,r0l
    4564:	87 2d       	add.b	#0x2d,r7h
    4566:	04 39       	orc	#0x39,ccr
    4568:	2b 3d       	mov.b	@0x3d:8,r3l
    456a:	ca f8       	or.b	#0xf8,r2l
    456c:	6b 7a       	.word	H'6b,H'7a
    456e:	98 b1       	addx	#0xb1,r0l
    4570:	2c 1e       	mov.b	@0x1e:8,r4l
    4572:	96 ab       	addx	#0xab,r6h
    4574:	52 32       	mulxu.w	r3,er2
    4576:	2c e1       	mov.b	@0xe1:8,r4l
    4578:	1d f0       	cmp.w	e7,r0
    457a:	75 56       	bxor	#0x5,r6h
    457c:	56 a5       	.word	H'56,H'a5
    457e:	23 a6       	mov.b	@0xa6:8,r3h
    4580:	09 a8       	add.w	e2,e0
    4582:	13 ca       	rotr.b	#2,r2l
    4584:	e2 19       	and.b	#0x19,r2h
    4586:	96 c0       	addx	#0xc0,r6h
    4588:	3b 34       	mov.b	r3l,@0x34:8
    458a:	d9 65       	xor.b	#0x65,r1l
    458c:	d8 42       	xor.b	#0x42,r0l
    458e:	90 5d       	addx	#0x5d,r0h
    4590:	ad bf       	cmp.b	#0xbf,r5l
    4592:	28 ff       	mov.b	@0xff:8,r0l
    4594:	d1 d9       	xor.b	#0xd9,r1h
    4596:	37 41       	mov.b	r7h,@0x41:8
    4598:	5d c7       	jsr	@@796 (0x31c)
    459a:	2f 45       	mov.b	@0x45:8,r7l
    459c:	7e 57 f0 27 	bfld	#0x27,@0x57:8,r0h
    45a0:	f3 ff       	mov.b	#0xff,r3h
    45a2:	bd fa       	subx	#0xfa,r5l
    45a4:	1f 27       	cmp.w	#0x2,r7
    45a6:	c3 91       	or.b	#0x91,r3h
    45a8:	7d 12       	.word	H'7d,H'12
    45aa:	58 f0       	.word	H'58,H'f0
    45ac:	7a 79       	.word	H'7a,H'79
    45ae:	dd 4b       	xor.b	#0x4b,r5l
    45b0:	48 bd       	.word	H'48,H'bd
    45b2:	70 ef       	.word	H'70,H'ef
    45b4:	97 db       	addx	#0xdb,r7h
    45b6:	2a c0       	mov.b	@0xc0:8,r2l
    45b8:	c2 9f       	or.b	#0x9f,r2h
    45ba:	7b ff       	.word	H'7b,H'ff
    45bc:	3c 33       	mov.b	r4l,@0x33:8
    45be:	ac 0c       	cmp.b	#0xc,r4l
    45c0:	d9 bf       	xor.b	#0xbf,r1l
    45c2:	88 79       	add.b	#0x79,r0l
    45c4:	90 c1       	addx	#0xc1,r0h
    45c6:	a2 f6       	cmp.b	#0xf6,r2h
    45c8:	a1 cc       	cmp.b	#0xcc,r1h
    45ca:	08 28       	add.b	r2h,r0l
    45cc:	b2 c1       	subx	#0xc1,r2h
    45ce:	10 55       	shll.w	#2,r5
    45d0:	f5 31       	mov.b	#0x31,r5h
    45d2:	d7 12       	xor.b	#0x12,r7h
    45d4:	62 87       	bclr	r0l,r7h
    45d6:	66 6f       	and.w	r6,e7
    45d8:	20 73       	mov.b	@0x73:8,r0h
    45da:	47 2d       	.word	H'47,H'2d
    45dc:	e8 2e       	and.b	#0x2e,r0l
    45de:	b8 ed       	subx	#0xed,r0l
    45e0:	67 0c       	bst	#0x0,r4l
    45e2:	47 74       	beq	.+116 (0x4658)
    45e4:	41 cd       	.word	H'41,H'cd
    45e6:	23 ed       	mov.b	@0xed:8,r3h
    45e8:	b9 16       	subx	#0x16,r1l
    45ea:	34 dd       	mov.b	r4h,@0xdd:8
    45ec:	ee bb       	and.b	#0xbb,r6l
    45ee:	65 66       	xor.w	r6,r6
    45f0:	94 37       	addx	#0x37,r4h
    45f2:	a0 3d       	cmp.b	#0x3d,r0h
    45f4:	bf 6c       	subx	#0x6c,r7l
    45f6:	1f 96       	cmp.l	er1,er6
    45f8:	e9 67       	and.b	#0x67,r1l
    45fa:	6f 25 ce 9a 	mov.w	@(0xce9a:16,r2),r5
    45fe:	59 56       	bra	r5.w
    4600:	18 9f       	sub.b	r1l,r7l
    4602:	91 c3       	addx	#0xc3,r1h
    4604:	a2 f6       	cmp.b	#0xf6,r2h
    4606:	82 ef       	add.b	#0xef,r2h
    4608:	6c af       	mov.b	r7l,@-r2
    460a:	a6 47       	cmp.b	#0x47,r6h
    460c:	df 7b       	xor.b	#0x7b,r7l
    460e:	69 b8       	mov.w	e0,@r3
    4610:	51 f6       	divxu.b	r7l,r6
    4612:	ec 57       	and.b	#0x57,r4l
    4614:	4b 07       	.word	H'4b,H'7
    4616:	d5 cd       	xor.b	#0xcd,r5h
    4618:	90 fc       	addx	#0xfc,r0h
    461a:	ef 46       	and.b	#0x46,r7l
    461c:	d5 93       	xor.b	#0x93,r5h
    461e:	b0 76       	subx	#0x76,r0h
    4620:	70 58       	bset	#0x5,r0l
    4622:	71 a0       	.word	H'71,H'a0
    4624:	c1 7a       	or.b	#0x7a,r1h
    4626:	fe 0a       	mov.b	#0xa,r6l
    4628:	4c 7d       	.word	H'4c,H'7d
    462a:	05 5a       	xorc	#0x5a,ccr
    462c:	ff fa       	mov.b	#0xfa,r7l
    462e:	15 bb       	xor.b	r3l,r3l
    4630:	fd 57       	mov.b	#0x57,r5l
    4632:	15 20       	xor.b	r2h,r0h
    4634:	1f df       	cmp.l	#0x5,er7
    4636:	e6 7f       	and.b	#0x7f,r6h
    4638:	7d be       	.word	H'7d,H'be
    463a:	20 fc       	mov.b	@0xfc:8,r0h
    463c:	bf cd       	subx	#0xcd,r7l
    463e:	a2 f0       	cmp.b	#0xf0,r2h
    4640:	4f 08       	ble	.+8 (0x464a)
    4642:	f3 b0       	mov.b	#0xb0,r3h
    4644:	65 f2       	xor.w	e7,r2
    4646:	8a 40       	add.b	#0x40,r2l
    4648:	aa dc       	cmp.b	#0xdc,r2l
    464a:	91 71       	addx	#0x71,r1h
    464c:	54 d6       	.word	H'54,H'd6
    464e:	01 11       	.word	H'1,H'11
    4650:	38 98       	mov.b	r0l,@0x98:8
    4652:	d2 d8       	xor.b	#0xd8,r2h
    4654:	80 8f       	add.b	#0x8f,r0h
    4656:	48 af       	.word	H'48,H'af
    4658:	6c 1a       	mov.b	@r1+,r2l
    465a:	fa 0d       	mov.b	#0xd,r2l
    465c:	07 0e       	ldc	#0xe,ccr
    465e:	d0 8e       	xor.b	#0x8e,r0h
    4660:	84 06       	add.b	#0x6,r4h
    4662:	94 ee       	addx	#0xee,r4h
    4664:	bc 4a       	subx	#0x4a,r4l
    4666:	67 4d       	bst	#0x4,r5l
    4668:	0f aa       	mov.l	#0x2,er2
    466a:	1e 66       	subx	r6h,r6h
    466c:	db 02       	xor.b	#0x2,r3l
    466e:	65 cc       	xor.w	e4,e4
    4670:	6d 41       	mov.w	@r4+,r1
    4672:	23 2b       	mov.b	@0x2b:8,r3h
    4674:	9d 3b       	addx	#0x3b,r5l
    4676:	ca 99       	or.b	#0x99,r2l
    4678:	c2 d8       	or.b	#0xd8,r2h
    467a:	19 35       	sub.w	r3,r5
    467c:	e8 7c       	and.b	#0x7c,r0l
    467e:	f5 7a       	mov.b	#0x7a,r5h
    4680:	40 7d       	bra/s	.+124 (0x46fe)
    4682:	35 32       	mov.b	r5h,@0x32:8
    4684:	a3 67       	cmp.b	#0x67,r3h
    4686:	e6 28       	and.b	#0x28,r6h
    4688:	a7 5f       	cmp.b	#0x5f,r7h
    468a:	cf c8       	or.b	#0xc8,r7l
    468c:	4e 3d       	.word	H'4e,H'3d
    468e:	84 73       	add.b	#0x73,r4h
    4690:	0c 87       	mov.b	r0l,r7h
    4692:	6d 97       	mov.w	r7,@-r1
    4694:	85 46       	add.b	#0x46,r5h
    4696:	1b 09       	subs	#1,r1
    4698:	6f 76 ba b2 	mov.w	@(0xbab2:16,r7),r6
    469c:	bf 0c       	subx	#0xc,r7l
    469e:	2b aa       	mov.b	@0xaa:8,r3l
    46a0:	f9 d8       	mov.b	#0xd8,r1l
    46a2:	b9 55       	subx	#0x55,r1l
    46a4:	ff 3f       	mov.b	#0x3f,r7l
    46a6:	51 31       	divxu.b	r3h,r1
    46a8:	a6 32       	cmp.b	#0x32,r6h
    46aa:	3b a4       	mov.b	r3l,@0xa4:8
    46ac:	5e 65 fc 84 	jsr	@0x65fc84:24
    46b0:	e0 3b       	and.b	#0x3b,r0h
    46b2:	f4 28       	mov.b	#0x28,r4h
    46b4:	33 c3       	mov.b	r3h,@0xc3:8
    46b6:	7e 5a       	.word	H'7e,H'5a
    46b8:	b8 5d       	subx	#0x5d,r0l
    46ba:	88 31       	add.b	#0x31,r0l
    46bc:	c5 9b       	or.b	#0x9b,r5h
    46be:	28 b1       	mov.b	@0xb1:8,r0l
    46c0:	05 db       	xorc	#0xdb,ccr
    46c2:	22 1d       	mov.b	@0x1d:8,r2h
    46c4:	33 11       	mov.b	r3h,@0x11:8
    46c6:	4a 25       	.word	H'4a,H'25
    46c8:	1d 75       	cmp.w	r7,r5
    46ca:	fe b5       	mov.b	#0xb5,r6l
    46cc:	36 ca       	mov.b	r6h,@0xca:8
    46ce:	19 36       	sub.w	r3,r6
    46d0:	6e c1 b6 f2 	mov.b	r1h,@(0xb6f2:16,r4)
    46d4:	02 50       	.word	H'2,H'50
    46d6:	a6 8f       	cmp.b	#0x8f,r6h
    46d8:	e2 03       	and.b	#0x3,r2h
    46da:	c9 be       	or.b	#0xbe,r1l
    46dc:	51 c3       	divxu.b	r4l,r3
    46de:	83 9a       	add.b	#0x9a,r3h
    46e0:	2a 8b       	mov.b	@0x8b:8,r2l
    46e2:	16 6c       	and.b	r6h,r4l
    46e4:	07 7d       	ldc	#0x7d,ccr
    46e6:	f7 36       	mov.b	#0x36,r7h
    46e8:	9a fb       	addx	#0xfb,r2l
    46ea:	b7 99       	subx	#0x99,r7h
    46ec:	e9 71       	and.b	#0x71,r1l
    46ee:	bf 6c       	subx	#0x6c,r7l
    46f0:	34 05       	mov.b	r4h,@0x5:8
    46f2:	81 84       	add.b	#0x84,r1h
    46f4:	1f 53       	cmp.w	#0x5,r3
    46f6:	c3 7e       	or.b	#0x7e,r3h
    46f8:	0b a5       	.word	H'b,H'a5
    46fa:	ff 51       	mov.b	#0x51,r7l
    46fc:	4e 78       	bgt	.+120 (0x4776)
    46fe:	3b ea       	mov.b	r3l,@0xea:8
    4700:	2f 1f       	mov.b	@0x1f:8,r7l
    4702:	34 dc       	mov.b	r4h,@0xdc:8
    4704:	96 70       	addx	#0x70,r6h
    4706:	1a 6e       	sub.w	#0x6,e6
    4708:	4b 54       	bmi	.+84 (0x475e)
    470a:	1d f9       	cmp.w	e7,e1
    470c:	7d fd       	.word	H'7d,H'fd
    470e:	1f d8       	cmp.l	#0x5,er0
    4710:	df 52       	xor.b	#0x52,r7l
    4712:	cc 8f       	or.b	#0x8f,r4l
    4714:	d3 fd       	xor.b	#0xfd,r3h
    4716:	d8 f9       	xor.b	#0xf9,r0l
    4718:	9f 4a       	addx	#0x4a,r7l
    471a:	ca ff       	or.b	#0xff,r2l
    471c:	af 50       	cmp.b	#0x50,r7l
    471e:	ff 8f       	mov.b	#0x8f,r7l
    4720:	72 00       	bclr	#0x0,r0h
    4722:	30 31       	mov.b	r0h,@0x31:8
    4724:	32 33       	mov.b	r2h,@0x33:8
    4726:	34 35       	mov.b	r4h,@0x35:8
    4728:	36 37       	mov.b	r6h,@0x37:8
    472a:	38 39       	mov.b	r0l,@0x39:8
    472c:	41 42       	brn	.+66 (0x4770)
    472e:	43 44       	bls	.+68 (0x4774)
    4730:	45 46       	bcs	.+70 (0x4778)
    4732:	00 30       	.word	H'0,H'30
    4734:	31 32       	mov.b	r1h,@0x32:8
    4736:	33 34       	mov.b	r3h,@0x34:8
    4738:	35 36       	mov.b	r5h,@0x36:8
    473a:	37 38       	mov.b	r7h,@0x38:8
    473c:	39 61       	mov.b	r1l,@0x61:8
    473e:	62 63       	bclr	r6h,r3h
    4740:	64 65       	or.w	r6,r5
    4742:	66 00       	and.w	r0,r0
    4744:	63 73       	btst	r7h,r3h
    4746:	75 69       	bxor	#0x6,r1l
    4748:	64 78       	or.w	r7,e0
    474a:	58 00 00 00 	bra	.0 (0x474e)
	...
    4756:	00 00       	nop	
    4758:	54 c6       	.word	H'54,H'c6
    475a:	0a 73       	add.w	#0x7,r3
    475c:	65 6e       	xor.w	r6,e6
    475e:	64 25       	or.w	r2,r5
    4760:	64 0a       	or.w	r0,e2
    4762:	00 20       	.word	H'0,H'20
    4764:	77 72       	bld	#0x7,r2h
    4766:	6f 6e 67 20 	mov.w	@(0x6720:16,r6),e6
    476a:	68 65       	mov.b	@r6,r5h
    476c:	61 64       	bnot	r6h,r4h
    476e:	20 00       	mov.b	@0x0:8,r0h
    4770:	63 72       	btst	r7h,r2h
    4772:	63 20       	btst	r2h,r0h
    4774:	65 72       	xor.w	r7,r2
    4776:	72 00       	bclr	#0x0,r0h
    4778:	0a 72       	add.w	#0x7,r2
    477a:	65 63       	xor.w	r6,r3
    477c:	65 69       	xor.w	r6,e1
    477e:	76 69       	band	#0x6,r1l
    4780:	6e 67 20 66 	mov.b	@(0x2066:16,r6),r7h
    4784:	69 6c       	mov.w	@r6,e4
    4786:	65 20       	xor.w	r2,r0
    4788:	28 25       	mov.b	@0x25:8,r0l
    478a:	6c 64       	mov.b	@r6+,r4h
    478c:	29 2e       	mov.b	@0x2e:8,r1l
    478e:	2e 2e       	mov.b	@0x2e:8,r6l
    4790:	00 0a       	.word	H'0,H'a
    4792:	63 61       	btst	r6h,r1h
    4794:	6e 63 65 6c 	mov.b	@(0x656c:16,r6),r3h
    4798:	0a 00       	inc	r0h
    479a:	0a 64       	add.w	#0x6,r4
    479c:	6f 6e 65 0a 	mov.w	@(0x650a:16,r6),e6
    47a0:	00 0a       	.word	H'0,H'a
    47a2:	2a 20       	mov.b	@0x20:8,r2l
    47a4:	61 62       	bnot	r6h,r2h
    47a6:	6f 72 74 20 	mov.w	@(0x7420:16,r7),r2
    47aa:	72 65       	bclr	#0x6,r5h
    47ac:	63 65       	btst	r6h,r5h
    47ae:	69 76       	mov.w	@r7,r6
    47b0:	69 6e       	mov.w	@r6,e6
    47b2:	67 00       	bst	#0x0,r0h
    47b4:	0a 75       	add.w	#0x7,r5
    47b6:	6e 73 75 70 	mov.b	@(0x7570:16,r7),r3h
    47ba:	70 6f       	bset	#0x6,r7l
    47bc:	72 74       	bclr	#0x7,r4h
    47be:	65 64       	xor.w	r6,r4
    47c0:	20 73       	mov.b	@0x73:8,r0h
    47c2:	74 61       	bor	#0x6,r1h
    47c4:	6e 64 61 72 	mov.b	@(0x6172:16,r6),r4h
    47c8:	64 20       	or.w	r2,r0
    47ca:	72 65       	bclr	#0x6,r5h
    47cc:	71 75       	bnot	#0x7,r5h
    47ce:	65 73       	xor.w	r7,r3
    47d0:	74 3a       	bor	#0x3,r2l
    47d2:	20 25       	mov.b	@0x25:8,r0h
    47d4:	64 00       	or.w	r0,r0
    47d6:	00 00       	nop	
    47d8:	00 00       	nop	
    47da:	66 aa       	and.w	e2,e2
    47dc:	00 00       	nop	
    47de:	66 ba       	and.w	e3,e2
    47e0:	00 00       	nop	
    47e2:	66 b2       	and.w	e3,r2
    47e4:	00 00       	nop	
    47e6:	66 ba       	and.w	e3,e2
    47e8:	00 00       	nop	
    47ea:	66 6e       	and.w	r6,e6
    47ec:	00 00       	nop	
    47ee:	66 66       	and.w	r6,r6
    47f0:	00 00       	nop	
    47f2:	66 ba       	and.w	e3,e2
    47f4:	00 00       	nop	
    47f6:	66 ba       	and.w	e3,e2
    47f8:	00 00       	nop	
    47fa:	66 a2       	and.w	e2,r2
    47fc:	12 01       	rotxl.b	r1h
    47fe:	10 01       	shll.b	r1h
    4800:	ff ff       	mov.b	#0xff,r7l
    4802:	ff 08       	mov.b	#0x8,r7l
    4804:	66 0b       	and.w	r0,e3
    4806:	40 00       	bra	.0 (0x4808)
    4808:	01 00       	.word	H'1,H'0
    480a:	00 00       	nop	
    480c:	00 01       	.word	H'0,H'1
    480e:	09 02       	add.w	r0,r2
    4810:	20 00       	mov.b	@0x0:8,r0h
    4812:	01 01       	.word	H'1,H'1
    4814:	00 80       	.word	H'0,H'80
    4816:	32 09       	mov.b	r2h,@0x9:8
    4818:	04 00       	orc	#0x0,ccr
    481a:	00 02       	.word	H'0,H'2
    481c:	ff ff       	mov.b	#0xff,r7l
    481e:	ff 00       	mov.b	#0x0,r7l
    4820:	07 05       	ldc	#0x5,ccr
    4822:	81 02       	add.b	#0x2,r1h
    4824:	40 00       	bra	.0 (0x4826)
    4826:	00 07       	.word	H'0,H'7
    4828:	05 02       	xorc	#0x2,ccr
    482a:	02 40       	.word	H'2,H'40
    482c:	00 00       	nop	
    482e:	0a 46       	add.w	#0x4,r6
    4830:	61 69       	bnot	r6h,r1l
    4832:	6c 65       	mov.b	@r6+,r5h
    4834:	64 20       	or.w	r2,r0
    4836:	74 6f       	bor	#0x6,r7l
    4838:	20 73       	mov.b	@0x73:8,r0h
    483a:	65 6e       	xor.w	r6,e6
    483c:	64 20       	or.w	r2,r0
    483e:	6d 65       	mov.w	@r6+,r5
    4840:	73 73       	btst	#0x7,r3h
    4842:	61 67       	bnot	r6h,r7h
    4844:	65 00       	xor.w	r0,r0
    4846:	0a 4c       	add.w	#0x4,e4
    4848:	6f 61 64 20 	mov.w	@(0x6420:16,r6),r1
    484c:	61 64       	bnot	r6h,r4h
    484e:	64 72       	or.w	r7,r2
    4850:	65 73       	xor.w	r7,r3
    4852:	73 20       	btst	#0x2,r0h
    4854:	69 73       	mov.w	@r7,r3
    4856:	20 30       	mov.b	@0x30:8,r0h
    4858:	78 25       	.word	H'78,H'25
    485a:	30 38       	mov.b	r0h,@0x38:8
    485c:	6c 58       	mov.b	@r5+,r0l
    485e:	00 0a       	.word	H'0,H'a
    4860:	46 69       	.word	H'46,H'69
    4862:	6c 65       	mov.b	@r6+,r5h
    4864:	20 73       	mov.b	@0x73:8,r0h
    4866:	69 7a       	mov.w	@r7,e2
    4868:	65 20       	xor.w	r2,r0
    486a:	69 73       	mov.w	@r7,r3
    486c:	20 25       	mov.b	@0x25:8,r0h
    486e:	6c 64       	mov.b	@r6+,r4h
    4870:	2c 20       	mov.b	@0x20:8,r4l
    4872:	43 52       	bls	.+82 (0x48c6)
    4874:	43 33       	.word	H'43,H'33
    4876:	32 20       	mov.b	r2h,@0x20:8
    4878:	3d 20       	mov.b	r5l,@0x20:8
    487a:	30 78       	mov.b	r0h,@0x78:8
    487c:	25 30       	mov.b	@0x30:8,r5h
    487e:	38 6c       	mov.b	r0l,@0x6c:8
    4880:	58 00       	.word	H'58,H'0
    4882:	0a 25       	add.w	#0x2,r5
    4884:	6c 64       	mov.b	@r6+,r4h
    4886:	20 62       	mov.b	@0x62:8,r0h
    4888:	79 74 65 73 	mov.w	#0x6573,@(0x4:2,r0)
    488c:	20 6f 
    488e:	75 74       	bxor	#0x7,r4h
    4890:	20 6f       	mov.b	@0x6f:8,r0h
    4892:	66 20       	and.w	r2,r0
    4894:	25 6c       	mov.b	@0x6c:8,r5h
    4896:	64 20       	or.w	r2,r0
    4898:	72 65       	bclr	#0x6,r5h
    489a:	63 65       	btst	r6h,r5h
    489c:	69 76       	mov.w	@r7,r6
    489e:	65 64       	xor.w	r6,r4
    48a0:	00 0a       	.word	H'0,H'a
    48a2:	77 72       	bld	#0x7,r2h
    48a4:	6f 6e 67 20 	mov.w	@(0x6720:16,r6),e6
    48a8:	63 72       	btst	r7h,r2h
    48aa:	63 33       	btst	r3h,r3h
    48ac:	32 3a       	mov.b	r2h,@0x3a:8
    48ae:	20 30       	mov.b	@0x30:8,r0h
    48b0:	78 25       	.word	H'78,H'25
    48b2:	30 38       	mov.b	r0h,@0x38:8
    48b4:	6c 58       	mov.b	@r5+,r0l
    48b6:	00 0a       	.word	H'0,H'a
    48b8:	69 6d       	mov.w	@r6,e5
    48ba:	61 67       	bnot	r6h,r7h
    48bc:	65 20       	xor.w	r2,r0
    48be:	28 6c       	mov.b	@0x6c:8,r0l
    48c0:	65 6e       	xor.w	r6,e6
    48c2:	3d 25       	mov.b	r5l,@0x25:8
    48c4:	6c 64       	mov.b	@r6+,r4h
    48c6:	20 2c       	mov.b	@0x2c:8,r0h
    48c8:	63 72       	btst	r7h,r2h
    48ca:	63 33       	btst	r3h,r3h
    48cc:	32 3d       	mov.b	r2h,@0x3d:8
    48ce:	30 78       	mov.b	r0h,@0x78:8
    48d0:	25 30       	mov.b	@0x30:8,r5h
    48d2:	38 6c       	mov.b	r0l,@0x6c:8
    48d4:	58 29       	.word	H'58,H'29
    48d6:	20 72       	mov.b	@0x72:8,r0h
    48d8:	65 63       	xor.w	r6,r3
    48da:	65 69       	xor.w	r6,e1
    48dc:	76 65       	band	#0x6,r5h
    48de:	64 20       	or.w	r2,r0
    48e0:	4f 4b       	.word	H'4f,H'4b
    48e2:	00 0a       	.word	H'0,H'a
    48e4:	53 74       	divxu.w	r7,er4
    48e6:	61 72       	bnot	r7h,r2h
    48e8:	74 69       	bor	#0x6,r1l
    48ea:	6e 67 20 30 	mov.b	@(0x2030:16,r6),r7h
    48ee:	78 25       	.word	H'78,H'25
    48f0:	30 38       	mov.b	r0h,@0x38:8
    48f2:	6c 58       	mov.b	@r5+,r0l
    48f4:	00 0a       	.word	H'0,H'a
    48f6:	49 6e       	bvs	.+110 (0x4966)
    48f8:	76 61       	band	#0x6,r1h
    48fa:	6c 69       	mov.b	@r6+,r1l
    48fc:	64 20       	or.w	r2,r0
    48fe:	62 6f       	bclr	r6h,r7l
    4900:	6f 74 20 69 	mov.w	@(0x2069:16,r7),r4
    4904:	6d 61       	mov.w	@r6+,r1
    4906:	67 65       	bst	#0x6,r5h
    4908:	00 0a       	.word	H'0,H'a
    490a:	69 6d       	mov.w	@r6,e5
    490c:	67 20       	bst	#0x2,r0h
    490e:	69 73       	mov.w	@r7,r3
    4910:	20 74       	mov.b	@0x74:8,r0h
    4912:	6f 6f 20 6c 	mov.w	@(0x206c:16,r6),e7
    4916:	6f 6e 67 20 	mov.w	@(0x6720:16,r6),e6
    491a:	28 25       	mov.b	@0x25:8,r0l
    491c:	6c 64       	mov.b	@r6+,r4h
    491e:	29 00       	mov.b	@0x0:8,r1l
    4920:	0a 77       	add.w	#0x7,r7
    4922:	72 6f       	bclr	#0x6,r7l
    4924:	6e 67 20 62 	mov.b	@(0x2062:16,r6),r7h
    4928:	6c 6f       	mov.b	@r6+,r7l
    492a:	63 6b       	btst	r6h,r3l
    492c:	20 4e       	mov.b	@0x4e:8,r0h
    492e:	6f 3a 20 25 	mov.w	@(0x2025:16,r3),e2
    4932:	64 20       	or.w	r2,r0
    4934:	28 25       	mov.b	@0x25:8,r0l
    4936:	64 20       	or.w	r2,r0
    4938:	65 78       	xor.w	r7,e0
    493a:	70 65       	bset	#0x6,r5h
    493c:	63 74       	btst	r7h,r4h
    493e:	65 64       	xor.w	r6,r4
    4940:	29 00       	mov.b	@0x0:8,r1l
    4942:	0a 52       	add.w	#0x5,r2
    4944:	65 63       	xor.w	r6,r3
    4946:	65 69       	xor.w	r6,e1
    4948:	76 65       	band	#0x6,r5h
    494a:	20 65       	mov.b	@0x65:8,r0h
    494c:	72 72       	bclr	#0x7,r2h
    494e:	6f 72 20 2d 	mov.w	@(0x202d:16,r7),r2
    4952:	20 72       	mov.b	@0x72:8,r0h
    4954:	65 73       	xor.w	r7,r3
    4956:	74 61       	bor	#0x6,r1h
    4958:	72 74       	bclr	#0x7,r4h
    495a:	20 73       	mov.b	@0x73:8,r0h
    495c:	65 6e       	xor.w	r6,e6
    495e:	74 00       	bor	#0x0,r0h
    4960:	2d 09       	mov.b	@0x9:8,r5l
    4962:	00 00       	nop	
    4964:	00 00       	nop	
    4966:	48 00       	bvc	.0 (0x4968)
    4968:	00 00       	nop	
    496a:	18 00       	sub.b	r0h,r0h
    496c:	79 02 12 34 	mov.w	#0x1234,r2
    4970:	78 00 6b a2 	mov.w	r2,@(0x1ffffe:32,r0)
    4974:	00 1f ff fe 
    4978:	79 02 87 65 	mov.w	#0x8765,r2
    497c:	78 00 6b a2 	mov.w	r2,@(0x1ffbfe:32,r0)
    4980:	00 1f fb fe 
    4984:	79 02 cd ab 	mov.w	#0xcdab,r2
    4988:	78 00 6b a2 	mov.w	r2,@(0x1ff9fe:32,r0)
    498c:	00 1f f9 fe 
    4990:	78 00 6b 22 	mov.w	@(0x1ffffe:32,r0),r2
    4994:	00 1f ff fe 
    4998:	79 22 12 34 	cmp.w	#0x1234,r2
    499c:	46 06       	bne	.+6 (0x49a4)
    499e:	79 00 00 02 	mov.w	#0x2,r0
    49a2:	40 2a       	bra	.+42 (0x49ce)
    49a4:	79 22 87 65 	cmp.w	#0x8765,r2
    49a8:	46 06       	bne	.+6 (0x49b0)
    49aa:	79 00 00 01 	mov.w	#0x1,r0
    49ae:	40 1e       	bra	.+30 (0x49ce)
    49b0:	79 22 cd ab 	cmp.w	#0xcdab,r2
    49b4:	47 16       	beq	.+22 (0x49cc)
    49b6:	01 00 6d f2 	mov.l	er2,@-r7
    49ba:	7a 02 00 00 	mov.l	#0x3e60,er2
    49be:	3e 60 
    49c0:	01 00 6d f2 	mov.l	er2,@-r7
    49c4:	5e 00 5a 20 	jsr	@0x5a20:24
    49c8:	0b 97       	adds	#4,r7
    49ca:	0b 97       	adds	#4,r7
    49cc:	19 00       	sub.w	r0,r0
    49ce:	54 70       	rts	
    49d0:	01 00 6d f4 	mov.l	er4,@-r7
    49d4:	0f 84       	mov.l	er0,er4
    49d6:	7a 01 00 20 	mov.l	#0x200000,er1
    49da:	00 00 
    49dc:	0f c2       	mov.l	er4,er2
    49de:	0a 92       	add.l	er1,er2
    49e0:	0f a3       	mov.l	er2,er3
    49e2:	1b 93       	subs	#4,r3
    49e4:	01 00 69 b1 	mov.l	er1,@r3
    49e8:	1b 92       	subs	#4,r2
    49ea:	1b 92       	subs	#4,r2
    49ec:	0f 93       	mov.l	er1,er3
    49ee:	17 33       	not.l	er3
    49f0:	01 00 69 a3 	mov.l	er3,@r2
    49f4:	11 31       	shlr.l	er1
    49f6:	7a 21 00 08 	cmp.l	#0x80000,er1
    49fa:	00 00 
    49fc:	42 de       	bhi	.-34 (0x49dc)
    49fe:	0f c2       	mov.l	er4,er2
    4a00:	7a 12 00 1f 	add.l	#0x1ffffc,er2
    4a04:	ff fc 
    4a06:	01 00 69 20 	mov.l	@r2,er0
    4a0a:	0f c2       	mov.l	er4,er2
    4a0c:	7a 12 00 1f 	add.l	#0x1ffff8,er2
    4a10:	ff f8 
    4a12:	01 00 69 22 	mov.l	@r2,er2
    4a16:	17 32       	not.l	er2
    4a18:	1f a0       	cmp.l	er2,er0
    4a1a:	46 10       	bne	.+16 (0x4a2c)
    4a1c:	7a 20 00 20 	cmp.l	#0x200000,er0
    4a20:	00 00 
    4a22:	47 0a       	beq	.+10 (0x4a2e)
    4a24:	7a 20 00 10 	cmp.l	#0x100000,er0
    4a28:	00 00 
    4a2a:	47 02       	beq	.+2 (0x4a2e)
    4a2c:	1a 80       	sub.l	er0,er0
    4a2e:	01 00 6d 74 	mov.l	@r7+,er4
    4a32:	54 70       	rts	
    4a34:	fa d2       	mov.b	#0xd2,r2l
    4a36:	3a b8       	mov.b	r2l,@0xb8:8
    4a38:	6a 38 00 ff 	bclr	#0x5,@0xffffb2:32
    4a3c:	ff b2 72 50 
    4a40:	01 00 6b 02 	mov.l	@0xed20:16,er2
    4a44:	ed 20 
    4a46:	0b 02       	adds	#1,r2
    4a48:	01 00 6b 82 	mov.l	er2,@0xed20:16
    4a4c:	ed 20 
    4a4e:	54 70       	rts	
    4a50:	01 00 6b 00 	mov.l	@0xed20:16,er0
    4a54:	ed 20 
    4a56:	1a 91       	sub.l	er1,er1
    4a58:	89 14       	add.b	#0x14,r1l
    4a5a:	5e 00 76 b0 	jsr	@0x76b0:24
    4a5e:	54 70       	rts	
    4a60:	01 00 6d f4 	mov.l	er4,@-r7
    4a64:	7a 04 00 ff 	mov.l	#0xffdc00,er4
    4a68:	dc 00 
    4a6a:	0d 12       	mov.w	r1,r2
    4a6c:	17 f2       	exts.l	er2
    4a6e:	0f 81       	mov.l	er0,er1
    4a70:	0f c0       	mov.l	er4,er0
    4a72:	5e 00 3c 82 	jsr	@0x3c82:24
    4a76:	0f c0       	mov.l	er4,er0
    4a78:	5e 00 60 9c 	jsr	@0x609c:24
    4a7c:	01 00 6d 74 	mov.l	@r7+,er4
    4a80:	54 70       	rts	
    4a82:	18 aa       	sub.b	r2l,r2l
    4a84:	7a 20 12 34 	cmp.l	#0x1234abcd,er0
    4a88:	ab cd 
    4a8a:	47 20       	beq	.+32 (0x4aac)
    4a8c:	7a 20 be eb 	cmp.l	#0xbeebab00,er0
    4a90:	ab 00 
    4a92:	47 18       	beq	.+24 (0x4aac)
    4a94:	7a 20 01 c0 	cmp.l	#0x1c0ffab,er0
    4a98:	ff ab 
    4a9a:	47 10       	beq	.+16 (0x4aac)
    4a9c:	7a 20 02 c0 	cmp.l	#0x2c0ffab,er0
    4aa0:	ff ab 
    4aa2:	47 08       	beq	.+8 (0x4aac)
    4aa4:	7a 20 ff c0 	cmp.l	#0xffc0ffab,er0
    4aa8:	ff ab 
    4aaa:	46 02       	bne	.+2 (0x4aae)
    4aac:	fa 01       	mov.b	#0x1,r2l
    4aae:	0c a8       	mov.b	r2l,r0l
    4ab0:	54 70       	rts	
    4ab2:	18 aa       	sub.b	r2l,r2l
    4ab4:	7a 20 12 34 	cmp.l	#0x1234abcd,er0
    4ab8:	ab cd 
    4aba:	47 08       	beq	.+8 (0x4ac4)
    4abc:	7a 20 be eb 	cmp.l	#0xbeebab00,er0
    4ac0:	ab 00 
    4ac2:	46 02       	bne	.+2 (0x4ac6)
    4ac4:	fa 01       	mov.b	#0x1,r2l
    4ac6:	0c a8       	mov.b	r2l,r0l
    4ac8:	54 70       	rts	
    4aca:	01 10 6d f4 	stm.l	er4-er5,@-sp
    4ace:	0f 84       	mov.l	er0,er4
    4ad0:	68 4a       	mov.b	@r4,r2l
    4ad2:	f2 00       	mov.b	#0x0,r2h
    4ad4:	0d 20       	mov.w	r2,r0
    4ad6:	17 70       	extu.l	er0
    4ad8:	79 01 00 01 	mov.w	#0x1,r1
    4adc:	10 70       	shll.l	#2,er0
    4ade:	10 70       	shll.l	#2,er0
    4ae0:	10 70       	shll.l	#2,er0
    4ae2:	10 70       	shll.l	#2,er0
    4ae4:	0d 13       	mov.w	r1,r3
    4ae6:	17 f3       	exts.l	er3
    4ae8:	0f c2       	mov.l	er4,er2
    4aea:	0a b2       	add.l	er3,er2
    4aec:	68 2a       	mov.b	@r2,r2l
    4aee:	f2 00       	mov.b	#0x0,r2h
    4af0:	17 72       	extu.l	er2
    4af2:	01 f0 64 20 	or.l	er2,er0
    4af6:	0b 01       	adds	#1,r1
    4af8:	79 21 00 03 	cmp.w	#0x3,r1
    4afc:	4f de       	ble	.-34 (0x4adc)
    4afe:	01 10 6d 75 	ldm.l	@sp+,er4-er5
    4b02:	54 70       	rts	
    4b04:	7a 37 00 00 	sub.l	#0x10,er7
    4b08:	00 10 
    4b0a:	01 20 6d f4 	stm.l	er4-er6,@-sp
    4b0e:	01 00 6f f0 	mov.l	er0,@(0x14:16,r7)
    4b12:	00 14 
    4b14:	0f f6       	mov.l	er7,er6
    4b16:	7a 16 00 00 	add.l	#0x18,er6
    4b1a:	00 18 
    4b1c:	1a a2       	sub.l	er2,er2
    4b1e:	1b 02       	subs	#1,r2
    4b20:	01 00 69 e2 	mov.l	er2,@r6
    4b24:	01 00 6f 75 	mov.l	@(0x14:16,r7),er5
    4b28:	00 14 
    4b2a:	01 00 6f 55 	mov.l	@(0x4:16,r5),er5
    4b2e:	00 04 
    4b30:	01 00 6f f5 	mov.l	er5,@(0xc:16,r7)
    4b34:	00 0c 
    4b36:	01 00 6d f5 	mov.l	er5,@-r7
    4b3a:	7a 02 00 00 	mov.l	#0x3e79,er2
    4b3e:	3e 79 
    4b40:	01 00 6d f2 	mov.l	er2,@-r7
    4b44:	5e 00 5a 20 	jsr	@0x5a20:24
    4b48:	0f e4       	mov.l	er6,er4
    4b4a:	01 00 6f 70 	mov.l	@(0x1c:16,r7),er0
    4b4e:	00 1c 
    4b50:	0a d0       	add.l	er5,er0
    4b52:	0b 97       	adds	#4,r7
    4b54:	0b 97       	adds	#4,r7
    4b56:	01 00 6f f0 	mov.l	er0,@(0x10:16,r7)
    4b5a:	00 10 
    4b5c:	1a 91       	sub.l	er1,er1
    4b5e:	89 03       	add.b	#0x3,r1l
    4b60:	01 00 6f 75 	mov.l	@(0x10:16,r7),er5
    4b64:	00 10 
    4b66:	6c 5b       	mov.b	@r5+,r3l
    4b68:	f3 00       	mov.b	#0x0,r3h
    4b6a:	01 00 6f f5 	mov.l	er5,@(0x10:16,r7)
    4b6e:	00 10 
    4b70:	6f 42 00 02 	mov.w	@(0x2:16,r4),r2
    4b74:	65 32       	xor.w	r3,r2
    4b76:	10 72       	shll.l	#2,er2
    4b78:	7a 62 00 00 	and.l	#0x3fc,er2
    4b7c:	03 fc 
    4b7e:	01 00 69 43 	mov.l	@r4,er3
    4b82:	11 73       	shlr.l	#2,er3
    4b84:	11 73       	shlr.l	#2,er3
    4b86:	11 73       	shlr.l	#2,er3
    4b88:	11 73       	shlr.l	#2,er3
    4b8a:	01 00 78 20 	mov.l	@(0x4e0:32,r2),er2
    4b8e:	6b 22 00 00 
    4b92:	04 e0 
    4b94:	01 f0 65 32 	xor.l	er3,er2
    4b98:	01 00 69 c2 	mov.l	er2,@r4
    4b9c:	0f 92       	mov.l	er1,er2
    4b9e:	1b 01       	subs	#1,r1
    4ba0:	46 be       	bne	.-66 (0x4b60)
    4ba2:	0f e4       	mov.l	er6,er4
    4ba4:	01 00 6f 76 	mov.l	@(0x14:16,r7),er6
    4ba8:	00 14 
    4baa:	0b 96       	adds	#4,r6
    4bac:	0b 96       	adds	#4,r6
    4bae:	01 00 6f 71 	mov.l	@(0xc:16,r7),er1
    4bb2:	00 0c 
    4bb4:	7a 11 ff ff 	add.l	#0xfffffff7,er1
    4bb8:	ff f7 
    4bba:	01 00 6f 75 	mov.l	@(0xc:16,r7),er5
    4bbe:	00 0c 
    4bc0:	1b 95       	subs	#4,r5
    4bc2:	1b 95       	subs	#4,r5
    4bc4:	0f d5       	mov.l	er5,er5
    4bc6:	47 36       	beq	.+54 (0x4bfe)
    4bc8:	6c 6b       	mov.b	@r6+,r3l
    4bca:	f3 00       	mov.b	#0x0,r3h
    4bcc:	6f 42 00 02 	mov.w	@(0x2:16,r4),r2
    4bd0:	65 32       	xor.w	r3,r2
    4bd2:	10 72       	shll.l	#2,er2
    4bd4:	7a 62 00 00 	and.l	#0x3fc,er2
    4bd8:	03 fc 
    4bda:	01 00 69 43 	mov.l	@r4,er3
    4bde:	11 73       	shlr.l	#2,er3
    4be0:	11 73       	shlr.l	#2,er3
    4be2:	11 73       	shlr.l	#2,er3
    4be4:	11 73       	shlr.l	#2,er3
    4be6:	01 00 78 20 	mov.l	@(0x4e0:32,r2),er2
    4bea:	6b 22 00 00 
    4bee:	04 e0 
    4bf0:	01 f0 65 32 	xor.l	er3,er2
    4bf4:	01 00 69 c2 	mov.l	er2,@r4
    4bf8:	0f 92       	mov.l	er1,er2
    4bfa:	1b 01       	subs	#1,r1
    4bfc:	46 ca       	bne	.-54 (0x4bc8)
    4bfe:	01 00 6f 74 	mov.l	@(0x18:16,r7),er4
    4c02:	00 18 
    4c04:	17 34       	not.l	er4
    4c06:	0b 90       	adds	#4,r0
    4c08:	5e 00 4a ca 	jsr	@0x4aca:24
    4c0c:	01 00 6f 72 	mov.l	@(0x18:16,r7),er2
    4c10:	00 18 
    4c12:	1f 84       	cmp.l	er0,er4
    4c14:	46 18       	bne	.+24 (0x4c2e)
    4c16:	17 32       	not.l	er2
    4c18:	01 00 6d f2 	mov.l	er2,@-r7
    4c1c:	7a 02 00 00 	mov.l	#0x3ea1,er2
    4c20:	3e a1 
    4c22:	01 00 6d f2 	mov.l	er2,@-r7
    4c26:	5e 00 5a 20 	jsr	@0x5a20:24
    4c2a:	f8 01       	mov.b	#0x1,r0l
    4c2c:	40 16       	bra	.+22 (0x4c44)
    4c2e:	17 32       	not.l	er2
    4c30:	01 00 6d f2 	mov.l	er2,@-r7
    4c34:	7a 02 00 00 	mov.l	#0x3eae,er2
    4c38:	3e ae 
    4c3a:	01 00 6d f2 	mov.l	er2,@-r7
    4c3e:	5e 00 5a 20 	jsr	@0x5a20:24
    4c42:	18 88       	sub.b	r0l,r0l
    4c44:	0b 97       	adds	#4,r7
    4c46:	0b 97       	adds	#4,r7
    4c48:	01 20 6d 76 	ldm.l	@sp+,er4-er6
    4c4c:	7a 17 00 00 	add.l	#0x10,er7
    4c50:	00 10 
    4c52:	54 70       	rts	
    4c54:	1b 97       	subs	#4,r7
    4c56:	1b 97       	subs	#4,r7
    4c58:	01 20 6d f4 	stm.l	er4-er6,@-sp
    4c5c:	0f 85       	mov.l	er0,er5
    4c5e:	6e f9 00 13 	mov.b	r1l,@(0x13:16,r7)
    4c62:	01 00 6f f5 	mov.l	er5,@(0xc:16,r7)
    4c66:	00 0c 
    4c68:	01 00 69 52 	mov.l	@r5,er2
    4c6c:	01 00 6d f2 	mov.l	er2,@-r7
    4c70:	7a 02 00 00 	mov.l	#0x3ef7,er2
    4c74:	3e f7 
    4c76:	01 00 6d f2 	mov.l	er2,@-r7
    4c7a:	5e 00 5a 20 	jsr	@0x5a20:24
    4c7e:	01 00 69 50 	mov.l	@r5,er0
    4c82:	5e 00 4a 82 	jsr	@0x4a82:24
    4c86:	0b 97       	adds	#4,r7
    4c88:	0b 97       	adds	#4,r7
    4c8a:	0c 88       	mov.b	r0l,r0l
    4c8c:	46 14       	bne	.+20 (0x4ca2)
    4c8e:	7a 02 00 00 	mov.l	#0x3f11,er2
    4c92:	3f 11 
    4c94:	01 00 6d f2 	mov.l	er2,@-r7
    4c98:	5e 00 5a 20 	jsr	@0x5a20:24
    4c9c:	0b 97       	adds	#4,r7
    4c9e:	58 00 01 8e 	bra	.+398 (0x4e30)
    4ca2:	01 00 69 51 	mov.l	@r5,er1
    4ca6:	18 88       	sub.b	r0l,r0l
    4ca8:	0f 92       	mov.l	er1,er2
    4caa:	7a 62 00 ff 	and.l	#0xffffff,er2
    4cae:	ff ff 
    4cb0:	7a 22 00 c0 	cmp.l	#0xc0ffab,er2
    4cb4:	ff ab 
    4cb6:	46 02       	bne	.+2 (0x4cba)
    4cb8:	f8 01       	mov.b	#0x1,r0l
    4cba:	0c 88       	mov.b	r0l,r0l
    4cbc:	58 70 00 d8 	beq	.+216 (0x4d98)
    4cc0:	01 00 6f 56 	mov.l	@(0x8:16,r5),er6
    4cc4:	00 08 
    4cc6:	0f d4       	mov.l	er5,er4
    4cc8:	0a e4       	add.l	er6,er4
    4cca:	7a 14 00 00 	add.l	#0x20,er4
    4cce:	00 20 
    4cd0:	01 00 6f 52 	mov.l	@(0x4:16,r5),er2
    4cd4:	00 04 
    4cd6:	0f d1       	mov.l	er5,er1
    4cd8:	7a 11 00 00 	add.l	#0xc,er1
    4cdc:	00 0c 
    4cde:	0f c0       	mov.l	er4,er0
    4ce0:	5e 00 12 0c 	jsr	@0x120c:24
    4ce4:	01 00 69 52 	mov.l	@r5,er2
    4ce8:	7a 22 ff c0 	cmp.l	#0xffc0ffab,er2
    4cec:	ff ab 
    4cee:	46 28       	bne	.+40 (0x4d18)
    4cf0:	7a 02 00 00 	mov.l	#0x3f1a,er2
    4cf4:	3f 1a 
    4cf6:	01 00 6d f2 	mov.l	er2,@-r7
    4cfa:	7a 02 00 00 	mov.l	#0x3ed2,er2
    4cfe:	3e d2 
    4d00:	01 00 6d f2 	mov.l	er2,@-r7
    4d04:	5e 00 5a 20 	jsr	@0x5a20:24
    4d08:	01 00 6f 52 	mov.l	@(0x4:16,r5),er2
    4d0c:	00 04 
    4d0e:	0f c1       	mov.l	er4,er1
    4d10:	0f d0       	mov.l	er5,er0
    4d12:	5e 00 76 4c 	jsr	@0x764c:24
    4d16:	40 50       	bra	.+80 (0x4d68)
    4d18:	7a 00 00 00 	mov.l	#0x3ed2,er0
    4d1c:	3e d2 
    4d1e:	7a 22 01 c0 	cmp.l	#0x1c0ffab,er2
    4d22:	ff ab 
    4d24:	46 22       	bne	.+34 (0x4d48)
    4d26:	7a 02 00 00 	mov.l	#0x3f1b,er2
    4d2a:	3f 1b 
    4d2c:	01 00 6d f2 	mov.l	er2,@-r7
    4d30:	01 00 6d f0 	mov.l	er0,@-r7
    4d34:	5e 00 5a 20 	jsr	@0x5a20:24
    4d38:	01 00 6f 52 	mov.l	@(0x4:16,r5),er2
    4d3c:	00 04 
    4d3e:	0f c1       	mov.l	er4,er1
    4d40:	0f d0       	mov.l	er5,er0
    4d42:	5e 00 5d e6 	jsr	@0x5de6:24
    4d46:	40 20       	bra	.+32 (0x4d68)
    4d48:	7a 02 00 00 	mov.l	#0x3f20,er2
    4d4c:	3f 20 
    4d4e:	01 00 6d f2 	mov.l	er2,@-r7
    4d52:	01 00 6d f0 	mov.l	er0,@-r7
    4d56:	5e 00 5a 20 	jsr	@0x5a20:24
    4d5a:	01 00 6f 52 	mov.l	@(0x4:16,r5),er2
    4d5e:	00 04 
    4d60:	0f c1       	mov.l	er4,er1
    4d62:	0f d0       	mov.l	er5,er0
    4d64:	5e 00 3c 82 	jsr	@0x3c82:24
    4d68:	0b 97       	adds	#4,r7
    4d6a:	0b 97       	adds	#4,r7
    4d6c:	1f e0       	cmp.l	er6,er0
    4d6e:	58 70 fe f0 	beq	.-272 (0x4c62)
    4d72:	01 00 6d f0 	mov.l	er0,@-r7
    4d76:	7a 02 00 00 	mov.l	#0x3f24,er2
    4d7a:	3f 24 
    4d7c:	01 00 6d f2 	mov.l	er2,@-r7
    4d80:	5e 00 5a 20 	jsr	@0x5a20:24
    4d84:	1a a2       	sub.l	er2,er2
    4d86:	01 00 6f 73 	mov.l	@(0x14:16,r7),er3
    4d8a:	00 14 
    4d8c:	01 00 69 b2 	mov.l	er2,@r3
    4d90:	0b 97       	adds	#4,r7
    4d92:	0b 97       	adds	#4,r7
    4d94:	58 00 00 98 	bra	.+152 (0x4e30)
    4d98:	7a 21 12 34 	cmp.l	#0x1234abcd,er1
    4d9c:	ab cd 
    4d9e:	46 3e       	bne	.+62 (0x4dde)
    4da0:	7a 02 00 00 	mov.l	#0x3f50,er2
    4da4:	3f 50 
    4da6:	01 00 6d f2 	mov.l	er2,@-r7
    4daa:	5e 00 5a 20 	jsr	@0x5a20:24
    4dae:	01 00 6f 54 	mov.l	@(0x4:16,r5),er4
    4db2:	00 04 
    4db4:	01 00 6d f4 	mov.l	er4,@-r7
    4db8:	7a 02 00 00 	mov.l	#0x3ebe,er2
    4dbc:	3e be 
    4dbe:	01 00 6d f2 	mov.l	er2,@-r7
    4dc2:	5e 00 5a 20 	jsr	@0x5a20:24
    4dc6:	01 00 6b 00 	mov.l	@0x2e9:16,er0
    4dca:	02 e9 
    4dcc:	01 00 6b 01 	mov.l	@0xf306:16,er1
    4dd0:	f3 06 
    4dd2:	5d 40       	jsr	@r4
    4dd4:	7a 17 00 00 	add.l	#0xc,er7
    4dd8:	00 0c 
    4dda:	58 00 fe 84 	bra	.-380 (0x4c62)
    4dde:	7a 21 be eb 	cmp.l	#0xbeebab00,er1
    4de2:	ab 00 
    4de4:	58 60 fe 7a 	bne	.-390 (0x4c62)
    4de8:	6e 7b 00 13 	mov.b	@(0x13:16,r7),r3l
    4dec:	47 0a       	beq	.+10 (0x4df8)
    4dee:	0f d0       	mov.l	er5,er0
    4df0:	5e 00 4b 04 	jsr	@0x4b04:24
    4df4:	a8 01       	cmp.b	#0x1,r0l
    4df6:	46 38       	bne	.+56 (0x4e30)
    4df8:	01 00 6f 52 	mov.l	@(0x4:16,r5),er2
    4dfc:	00 04 
    4dfe:	0f d0       	mov.l	er5,er0
    4e00:	0a a0       	add.l	er2,er0
    4e02:	5e 00 4a ca 	jsr	@0x4aca:24
    4e06:	0f 84       	mov.l	er0,er4
    4e08:	01 00 6d f4 	mov.l	er4,@-r7
    4e0c:	7a 02 00 00 	mov.l	#0x3ebe,er2
    4e10:	3e be 
    4e12:	01 00 6d f2 	mov.l	er2,@-r7
    4e16:	5e 00 5a 20 	jsr	@0x5a20:24
    4e1a:	01 00 6b 00 	mov.l	@0x2e9:16,er0
    4e1e:	02 e9 
    4e20:	01 00 6b 01 	mov.l	@0xf306:16,er1
    4e24:	f3 06 
    4e26:	5d 40       	jsr	@r4
    4e28:	0b 97       	adds	#4,r7
    4e2a:	0b 97       	adds	#4,r7
    4e2c:	58 00 fe 32 	bra	.-462 (0x4c62)
    4e30:	01 20 6d 76 	ldm.l	@sp+,er4-er6
    4e34:	0b 97       	adds	#4,r7
    4e36:	0b 97       	adds	#4,r7
    4e38:	54 70       	rts	
    4e3a:	01 00 6d f4 	mov.l	er4,@-r7
    4e3e:	0f 84       	mov.l	er0,er4
    4e40:	7a 00 00 00 	mov.l	#0x3f5c,er0
    4e44:	3f 5c 
    4e46:	1a 91       	sub.l	er1,er1
    4e48:	5e 00 59 e0 	jsr	@0x59e0:24
    4e4c:	01 00 69 42 	mov.l	@r4,er2
    4e50:	7a 22 12 34 	cmp.l	#0x1234abcd,er2
    4e54:	ab cd 
    4e56:	46 14       	bne	.+20 (0x4e6c)
    4e58:	7a 02 00 00 	mov.l	#0x3f6e,er2
    4e5c:	3f 6e 
    4e5e:	01 00 6d f2 	mov.l	er2,@-r7
    4e62:	5e 00 5a 20 	jsr	@0x5a20:24
    4e66:	f8 01       	mov.b	#0x1,r0l
    4e68:	0b 97       	adds	#4,r7
    4e6a:	40 28       	bra	.+40 (0x4e94)
    4e6c:	7a 22 be eb 	cmp.l	#0xbeebab00,er2
    4e70:	ab 00 
    4e72:	47 1a       	beq	.+26 (0x4e8e)
    4e74:	01 00 6d f2 	mov.l	er2,@-r7
    4e78:	7a 02 00 00 	mov.l	#0x3f80,er2
    4e7c:	3f 80 
    4e7e:	01 00 6d f2 	mov.l	er2,@-r7
    4e82:	5e 00 5a 20 	jsr	@0x5a20:24
    4e86:	18 88       	sub.b	r0l,r0l
    4e88:	0b 97       	adds	#4,r7
    4e8a:	0b 97       	adds	#4,r7
    4e8c:	40 06       	bra	.+6 (0x4e94)
    4e8e:	0f c0       	mov.l	er4,er0
    4e90:	5e 00 4b 04 	jsr	@0x4b04:24
    4e94:	01 00 6d 74 	mov.l	@r7+,er4
    4e98:	54 70       	rts	
    4e9a:	01 20 6d f4 	stm.l	er4-er6,@-sp
    4e9e:	7a 00 00 00 	mov.l	#0x3fa7,er0
    4ea2:	3f a7 
    4ea4:	1a 91       	sub.l	er1,er1
    4ea6:	5e 00 59 e0 	jsr	@0x59e0:24
    4eaa:	7a 05 00 ff 	mov.l	#0xfff30e,er5
    4eae:	f3 0e 
    4eb0:	7a 02 00 00 	mov.l	#0x3e8,er2
    4eb4:	03 e8 
    4eb6:	1a 91       	sub.l	er1,er1
    4eb8:	89 50       	add.b	#0x50,r1l
    4eba:	0f d0       	mov.l	er5,er0
    4ebc:	5e 00 59 7a 	jsr	@0x597a:24
    4ec0:	0d 00       	mov.w	r0,r0
    4ec2:	58 f0 00 be 	ble	.+190 (0x4f84)
    4ec6:	7a 01 00 00 	mov.l	#0x3fc0,er1
    4eca:	3f c0 
    4ecc:	0f d0       	mov.l	er5,er0
    4ece:	5e 00 13 ba 	jsr	@0x13ba:24
    4ed2:	0c 88       	mov.b	r0l,r0l
    4ed4:	58 70 00 ac 	beq	.+172 (0x4f84)
    4ed8:	7a 04 00 00 	mov.l	#0x3fc4,er4
    4edc:	3f c4 
    4ede:	7a 06 00 ff 	mov.l	#0xfff311,er6
    4ee2:	f3 11 
    4ee4:	0f e0       	mov.l	er6,er0
    4ee6:	5e 00 14 16 	jsr	@0x1416:24
    4eea:	1a a2       	sub.l	er2,er2
    4eec:	8a 0a       	add.b	#0xa,r2l
    4eee:	0f c1       	mov.l	er4,er1
    4ef0:	5e 00 12 bc 	jsr	@0x12bc:24
    4ef4:	0d 00       	mov.w	r0,r0
    4ef6:	47 24       	beq	.+36 (0x4f1c)
    4ef8:	01 00 6b 02 	mov.l	@0xf306:16,er2
    4efc:	f3 06 
    4efe:	46 14       	bne	.+20 (0x4f14)
    4f00:	7a 02 00 00 	mov.l	#0x3fcf,er2
    4f04:	3f cf 
    4f06:	01 00 6d f2 	mov.l	er2,@-r7
    4f0a:	5e 00 5a 20 	jsr	@0x5a20:24
    4f0e:	04 80       	orc	#0x80,ccr
    4f10:	01 80       	sleep	
    4f12:	40 fc       	bra	.-4 (0x4f10)
    4f14:	7a 02 00 48 	mov.l	#0x480000,er2
    4f18:	00 00 
    4f1a:	40 06       	bra	.+6 (0x4f22)
    4f1c:	7a 02 00 ff 	mov.l	#0xffdc00,er2
    4f20:	dc 00 
    4f22:	01 00 6b 82 	mov.l	er2,@0xf30a:16
    4f26:	f3 0a 
    4f28:	6b 02 f3 62 	mov.w	@0xf362:16,r2
    4f2c:	46 1a       	bne	.+26 (0x4f48)
    4f2e:	79 02 00 01 	mov.w	#0x1,r2
    4f32:	6b 82 f3 62 	mov.w	r2,@0xf362:16
    4f36:	01 00 6b 01 	mov.l	@0xf30a:16,er1
    4f3a:	f3 0a 
    4f3c:	0f e0       	mov.l	er6,er0
    4f3e:	5e 00 5d 38 	jsr	@0x5d38:24
    4f42:	01 00 6b 80 	mov.l	er0,@0xf35e:16
    4f46:	f3 5e 
    4f48:	01 00 6b 02 	mov.l	@0xf35e:16,er2
    4f4c:	f3 5e 
    4f4e:	47 28       	beq	.+40 (0x4f78)
    4f50:	01 00 6d f2 	mov.l	er2,@-r7
    4f54:	7a 02 00 00 	mov.l	#0x4002,er2
    4f58:	40 02 
    4f5a:	01 00 6d f2 	mov.l	er2,@-r7
    4f5e:	5e 00 5a 20 	jsr	@0x5a20:24
    4f62:	01 00 6b 00 	mov.l	@0xf30a:16,er0
    4f66:	f3 0a 
    4f68:	f9 01       	mov.b	#0x1,r1l
    4f6a:	5e 00 4c 54 	jsr	@0x4c54:24
    4f6e:	18 aa       	sub.b	r2l,r2l
    4f70:	68 da       	mov.b	r2l,@r5
    4f72:	0b 97       	adds	#4,r7
    4f74:	0b 97       	adds	#4,r7
    4f76:	40 0c       	bra	.+12 (0x4f84)
    4f78:	7a 00 00 00 	mov.l	#0x401d,er0
    4f7c:	40 1d 
    4f7e:	1a 91       	sub.l	er1,er1
    4f80:	5e 00 59 e0 	jsr	@0x59e0:24
    4f84:	01 20 6d 76 	ldm.l	@sp+,er4-er6
    4f88:	54 70       	rts	
    4f8a:	7a 00 00 ff 	mov.l	#0xfff39e,er0
    4f8e:	f3 9e 
    4f90:	5e 00 68 ae 	jsr	@0x68ae:24
    4f94:	54 70       	rts	
    4f96:	7a 07 00 ff 	mov.l	#0xfffadc,er7
    4f9a:	fa dc 
    4f9c:	1a a2       	sub.l	er2,er2
    4f9e:	01 00 6b 82 	mov.l	er2,@0xedf2:16
    4fa2:	ed f2 
    4fa4:	01 00 6b 82 	mov.l	er2,@0xedf6:16
    4fa8:	ed f6 
    4faa:	7a 04 00 00 	mov.l	#0x7792,er4
    4fae:	77 92 
    4fb0:	0f c1       	mov.l	er4,er1
    4fb2:	7a 03 00 ff 	mov.l	#0xffec00,er3
    4fb6:	ec 00 
    4fb8:	7a 00 00 ff 	mov.l	#0xffedf2,er0
    4fbc:	ed f2 
    4fbe:	1f 83       	cmp.l	er0,er3
    4fc0:	44 0a       	bcc	.+10 (0x4fcc)
    4fc2:	6c 1a       	mov.b	@r1+,r2l
    4fc4:	68 ba       	mov.b	r2l,@r3
    4fc6:	0b 03       	adds	#1,r3
    4fc8:	1f 83       	cmp.l	er0,er3
    4fca:	45 f6       	bcs	.-10 (0x4fc2)
    4fcc:	7a 00 00 ff 	mov.l	#0xffedf2,er0
    4fd0:	ed f2 
    4fd2:	7a 02 00 ff 	mov.l	#0xfff670,er2
    4fd6:	f6 70 
    4fd8:	1a 82       	sub.l	er0,er2
    4fda:	19 11       	sub.w	r1,r1
    4fdc:	5e 00 11 fc 	jsr	@0x11fc:24
    4fe0:	7a 06 00 00 	mov.l	#0x778a,er6
    4fe4:	77 8a 
    4fe6:	1f e4       	cmp.l	er6,er4
    4fe8:	43 0c       	bls	.+12 (0x4ff6)
    4fea:	1b 94       	subs	#4,r4
    4fec:	01 00 69 42 	mov.l	@r4,er2
    4ff0:	5d 20       	jsr	@r2
    4ff2:	1f e4       	cmp.l	er6,er4
    4ff4:	42 f4       	bhi	.-12 (0x4fea)
    4ff6:	fa 80       	mov.b	#0x80,r2l
    4ff8:	3a 60       	mov.b	r2l,@0x60:8
    4ffa:	6a 8a fe b0 	mov.b	r2l,@0xfeb0:16
    4ffe:	fa b0       	mov.b	#0xb0,r2l
    5000:	3a 61       	mov.b	r2l,@0x61:8
    5002:	6a 8a fe b1 	mov.b	r2l,@0xfeb1:16
    5006:	6b 02 ff 3c 	mov.w	@0xff3c:16,r2
    500a:	e2 fb       	and.b	#0xfb,r2h
    500c:	6b 82 ff 3c 	mov.w	r2,@0xff3c:16
    5010:	fb ff       	mov.b	#0xff,r3l
    5012:	3b a4       	mov.b	r3l,@0xa4:8
    5014:	2a a6       	mov.b	@0xa6:8,r2l
    5016:	ca 40       	or.b	#0x40,r2l
    5018:	3a a6       	mov.b	r2l,@0xa6:8
    501a:	fa 01       	mov.b	#0x1,r2l
    501c:	3a 45       	mov.b	r2l,@0x45:8
    501e:	fa 40       	mov.b	#0x40,r2l
    5020:	3a 69       	mov.b	r2l,@0x69:8
    5022:	fa 5f       	mov.b	#0x5f,r2l
    5024:	6a 8a fe b9 	mov.b	r2l,@0xfeb9:16
    5028:	6a 8b fe ba 	mov.b	r3l,@0xfeba:16
    502c:	6a 8b fe bb 	mov.b	r3l,@0xfebb:16
    5030:	6a 38 00 ff 	bset	#0x2,@0xffff39:32
    5034:	ff 39 70 20 
    5038:	fa 38       	mov.b	#0x38,r2l
    503a:	3a ac       	mov.b	r2l,@0xac:8
    503c:	f8 08       	mov.b	#0x8,r0l
    503e:	38 6e       	mov.b	r0l,@0x6e:8
    5040:	fa 88       	mov.b	#0x88,r2l
    5042:	6a 8a fe be 	mov.b	r2l,@0xfebe:16
    5046:	fa 1e       	mov.b	#0x1e,r2l
    5048:	6a 8a fe bf 	mov.b	r2l,@0xfebf:16
    504c:	fa 73       	mov.b	#0x73,r2l
    504e:	6a 8a fe d0 	mov.b	r2l,@0xfed0:16
    5052:	fa f1       	mov.b	#0xf1,r2l
    5054:	6a 8a fe d1 	mov.b	r2l,@0xfed1:16
    5058:	6a 8b fe d2 	mov.b	r3l,@0xfed2:16
    505c:	6a 8b fe d3 	mov.b	r3l,@0xfed3:16
    5060:	fa d1       	mov.b	#0xd1,r2l
    5062:	6a 8a fe d4 	mov.b	r2l,@0xfed4:16
    5066:	fa 1c       	mov.b	#0x1c,r2l
    5068:	6a 8a fe d5 	mov.b	r2l,@0xfed5:16
    506c:	6a 88 fe d6 	mov.b	r0l,@0xfed6:16
    5070:	fa 78       	mov.b	#0x78,r2l
    5072:	6a 8a fe d9 	mov.b	r2l,@0xfed9:16
    5076:	fa b1       	mov.b	#0xb1,r2l
    5078:	6a 8a fe d7 	mov.b	r2l,@0xfed7:16
    507c:	5e 00 5f d6 	jsr	@0x5fd6:24
    5080:	0c 8c       	mov.b	r0l,r4l
    5082:	47 1e       	beq	.+30 (0x50a2)
    5084:	6b 02 ff 3c 	mov.w	@0xff3c:16,r2
    5088:	ea bf       	and.b	#0xbf,r2l
    508a:	6b 82 ff 3c 	mov.w	r2,@0xff3c:16
    508e:	18 aa       	sub.b	r2l,r2l
    5090:	3a 80       	mov.b	r2l,@0x80:8
    5092:	fb 09       	mov.b	#0x9,r3l
    5094:	3a 80       	mov.b	r2l,@0x80:8
    5096:	3b 81       	mov.b	r3l,@0x81:8
    5098:	fa 30       	mov.b	#0x30,r2l
    509a:	3a 82       	mov.b	r2l,@0x82:8
    509c:	f8 01       	mov.b	#0x1,r0l
    509e:	5e 00 58 e2 	jsr	@0x58e2:24
    50a2:	01 00 6b 02 	mov.l	@0xb38:16,er2
    50a6:	0b 38 
    50a8:	01 00 6d f2 	mov.l	er2,@-r7
    50ac:	7a 02 00 00 	mov.l	#0x403a,er2
    50b0:	40 3a 
    50b2:	01 00 6d f2 	mov.l	er2,@-r7
    50b6:	5e 00 5a 20 	jsr	@0x5a20:24
    50ba:	7a 02 00 00 	mov.l	#0x405b,er2
    50be:	40 5b 
    50c0:	01 00 6d f2 	mov.l	er2,@-r7
    50c4:	5e 00 5a 20 	jsr	@0x5a20:24
    50c8:	7a 00 00 40 	mov.l	#0x400000,er0
    50cc:	00 00 
    50ce:	5e 00 49 6c 	jsr	@0x496c:24
    50d2:	0d 02       	mov.w	r0,r2
    50d4:	17 f2       	exts.l	er2
    50d6:	78 20 6a 2a 	mov.b	@(0x40c0:32,r2),r2l
    50da:	00 00 40 c0 
    50de:	ca 40       	or.b	#0x40,r2l
    50e0:	6a 8a fe d6 	mov.b	r2l,@0xfed6:16
    50e4:	0b 90       	adds	#4,r0
    50e6:	0b 90       	adds	#4,r0
    50e8:	01 00 6d f0 	mov.l	er0,@-r7
    50ec:	7a 02 00 00 	mov.l	#0x4082,er2
    50f0:	40 82 
    50f2:	01 00 6d f2 	mov.l	er2,@-r7
    50f6:	5e 00 5a 20 	jsr	@0x5a20:24
    50fa:	7a 02 00 00 	mov.l	#0x408f,er2
    50fe:	40 8f 
    5100:	01 00 6d f2 	mov.l	er2,@-r7
    5104:	5e 00 5a 20 	jsr	@0x5a20:24
    5108:	7a 00 00 40 	mov.l	#0x400000,er0
    510c:	00 00 
    510e:	5e 00 49 d0 	jsr	@0x49d0:24
    5112:	01 00 6b 80 	mov.l	er0,@0xf306:16
    5116:	f3 06 
    5118:	11 70       	shlr.l	#2,er0
    511a:	11 70       	shlr.l	#2,er0
    511c:	11 70       	shlr.l	#2,er0
    511e:	11 70       	shlr.l	#2,er0
    5120:	11 70       	shlr.l	#2,er0
    5122:	01 00 6d f0 	mov.l	er0,@-r7
    5126:	7a 02 00 00 	mov.l	#0x40a8,er2
    512a:	40 a8 
    512c:	01 00 6d f2 	mov.l	er2,@-r7
    5130:	5e 00 5a 20 	jsr	@0x5a20:24
    5134:	7a 17 00 00 	add.l	#0x20,er7
    5138:	00 20 
    513a:	01 00 6b 02 	mov.l	@0xf306:16,er2
    513e:	f3 06 
    5140:	47 0a       	beq	.+10 (0x514c)
    5142:	6a 38 00 ff 	bclr	#0x6,@0xffff69:32
    5146:	ff 69 72 60 
    514a:	40 16       	bra	.+22 (0x5162)
    514c:	0c cc       	mov.b	r4l,r4l
    514e:	46 12       	bne	.+18 (0x5162)
    5150:	7a 02 00 00 	mov.l	#0x3fcf,er2
    5154:	3f cf 
    5156:	01 00 6d f2 	mov.l	er2,@-r7
    515a:	5e 00 5a 20 	jsr	@0x5a20:24
    515e:	01 80       	sleep	
    5160:	40 fc       	bra	.-4 (0x515e)
    5162:	7a 02 00 00 	mov.l	#0x4a34,er2
    5166:	4a 34 
    5168:	01 00 6b 82 	mov.l	er2,@0xeca8:16
    516c:	ec a8 
    516e:	6b 02 ff 3c 	mov.w	@0xff3c:16,r2
    5172:	e2 ef       	and.b	#0xef,r2h
    5174:	6b 82 ff 3c 	mov.w	r2,@0xff3c:16
    5178:	fa 23       	mov.b	#0x23,r2l
    517a:	3a b0       	mov.b	r2l,@0xb0:8
    517c:	fa d2       	mov.b	#0xd2,r2l
    517e:	3a b8       	mov.b	r2l,@0xb8:8
    5180:	06 7f       	andc	#0x7f,ccr
    5182:	7a 06 00 ff 	mov.l	#0xfff39e,er6
    5186:	f3 9e 
    5188:	0f e0       	mov.l	er6,er0
    518a:	5e 00 62 24 	jsr	@0x6224:24
    518e:	6a 38 00 ff 	bclr	#0x1,@0xffff2e:32
    5192:	ff 2e 72 10 
    5196:	2a 2d       	mov.b	@0x2d:8,r2l
    5198:	ea f3       	and.b	#0xf3,r2l
    519a:	3a 2d       	mov.b	r2l,@0x2d:8
    519c:	7a 02 00 00 	mov.l	#0x4f8a,er2
    51a0:	4f 8a 
    51a2:	01 00 6b 82 	mov.l	er2,@0xec0c:16
    51a6:	ec 0c 
    51a8:	6a 38 00 ff 	bset	#0x1,@0xffff2e:32
    51ac:	ff 2e 70 10 
    51b0:	01 00 6b 02 	mov.l	@0xf306:16,er2
    51b4:	f3 06 
    51b6:	47 06       	beq	.+6 (0x51be)
    51b8:	0f e0       	mov.l	er6,er0
    51ba:	5e 00 62 e4 	jsr	@0x62e4:24
    51be:	5e 00 4a 50 	jsr	@0x4a50:24
    51c2:	01 00 6f f0 	mov.l	er0,@(0xc:16,r7)
    51c6:	00 0c 
    51c8:	5e 00 5f ba 	jsr	@0x5fba:24
    51cc:	0c 88       	mov.b	r0l,r0l
    51ce:	47 1e       	beq	.+30 (0x51ee)
    51d0:	5e 00 5f 8e 	jsr	@0x5f8e:24
    51d4:	5e 00 60 2c 	jsr	@0x602c:24
    51d8:	f9 12       	mov.b	#0x12,r1l
    51da:	f8 0c       	mov.b	#0xc,r0l
    51dc:	5e 00 60 7a 	jsr	@0x607a:24
    51e0:	7a 00 00 00 	mov.l	#0x40c3,er0
    51e4:	40 c3 
    51e6:	79 01 02 6b 	mov.w	#0x26b,r1
    51ea:	5e 00 4a 60 	jsr	@0x4a60:24
    51ee:	7a 00 00 60 	mov.l	#0x600000,er0
    51f2:	00 00 
    51f4:	5e 00 4e 3a 	jsr	@0x4e3a:24
    51f8:	0c 8c       	mov.b	r0l,r4l
    51fa:	46 1e       	bne	.+30 (0x521a)
    51fc:	5e 00 5f ba 	jsr	@0x5fba:24
    5200:	0c 88       	mov.b	r0l,r0l
    5202:	47 16       	beq	.+22 (0x521a)
    5204:	f9 12       	mov.b	#0x12,r1l
    5206:	f8 0c       	mov.b	#0xc,r0l
    5208:	5e 00 60 7a 	jsr	@0x607a:24
    520c:	7a 00 00 00 	mov.l	#0x432e,er0
    5210:	43 2e 
    5212:	79 01 03 f4 	mov.w	#0x3f4,r1
    5216:	5e 00 4a 60 	jsr	@0x4a60:24
    521a:	5e 00 4e 9a 	jsr	@0x4e9a:24
    521e:	5e 00 4a 50 	jsr	@0x4a50:24
    5222:	01 00 6f 75 	mov.l	@(0xc:16,r7),er5
    5226:	00 0c 
    5228:	1a d0       	sub.l	er5,er0
    522a:	7a 20 00 00 	cmp.l	#0x3e7,er0
    522e:	03 e7 
    5230:	43 ec       	bls	.-20 (0x521e)
    5232:	0f e0       	mov.l	er6,er0
    5234:	5e 00 62 d2 	jsr	@0x62d2:24
    5238:	0c 8e       	mov.b	r0l,r6l
    523a:	40 1c       	bra	.+28 (0x5258)
    523c:	01 00 6f 72 	mov.l	@(0x10:16,r7),er2
    5240:	00 10 
    5242:	01 00 6d f2 	mov.l	er2,@-r7
    5246:	7a 02 00 00 	mov.l	#0x40ae,er2
    524a:	40 ae 
    524c:	01 00 6d f2 	mov.l	er2,@-r7
    5250:	5e 00 5a 20 	jsr	@0x5a20:24
    5254:	0b 97       	adds	#4,r7
    5256:	0b 97       	adds	#4,r7
    5258:	0f f1       	mov.l	er7,er1
    525a:	7a 11 00 00 	add.l	#0x10,er1
    525e:	00 10 
    5260:	7a 00 00 ff 	mov.l	#0xfff46c,er0
    5264:	f4 6c 
    5266:	5e 00 71 34 	jsr	@0x7134:24
    526a:	0c 88       	mov.b	r0l,r0l
    526c:	46 ce       	bne	.-50 (0x523c)
    526e:	01 00 6b 02 	mov.l	@0xf306:16,er2
    5272:	f3 06 
    5274:	47 10       	beq	.+16 (0x5286)
    5276:	7a 01 00 ff 	mov.l	#0xfff39e,er1
    527a:	f3 9e 
    527c:	7a 00 00 ff 	mov.l	#0xfff366,er0
    5280:	f3 66 
    5282:	5e 00 71 d8 	jsr	@0x71d8:24
    5286:	ac 01       	cmp.b	#0x1,r4l
    5288:	46 ce       	bne	.-50 (0x5258)
    528a:	7a 00 00 ff 	mov.l	#0xfff366,er0
    528e:	f3 66 
    5290:	5e 00 71 cc 	jsr	@0x71cc:24
    5294:	0c 88       	mov.b	r0l,r0l
    5296:	46 c0       	bne	.-64 (0x5258)
    5298:	0c ee       	mov.b	r6l,r6l
    529a:	47 14       	beq	.+20 (0x52b0)
    529c:	5e 00 4a 50 	jsr	@0x4a50:24
    52a0:	01 00 6f 75 	mov.l	@(0xc:16,r7),er5
    52a4:	00 0c 
    52a6:	1a d0       	sub.l	er5,er0
    52a8:	7a 20 00 00 	cmp.l	#0x1387,er0
    52ac:	13 87 
    52ae:	43 a8       	bls	.-88 (0x5258)
    52b0:	7a 00 00 ff 	mov.l	#0xfff39e,er0
    52b4:	f3 9e 
    52b6:	5e 00 63 02 	jsr	@0x6302:24
    52ba:	18 99       	sub.b	r1l,r1l
    52bc:	7a 00 00 60 	mov.l	#0x600000,er0
    52c0:	00 00 
    52c2:	5e 00 4c 54 	jsr	@0x4c54:24
    52c6:	40 90       	bra	.-112 (0x5258)
    52c8:	54 70       	rts	
    52ca:	7a 00 00 ff 	mov.l	#0xfff366,er0
    52ce:	f3 66 
    52d0:	5e 00 71 84 	jsr	@0x7184:24
    52d4:	54 70       	rts	
    52d6:	7a 37 00 00 	sub.l	#0x10,er7
    52da:	00 10 
    52dc:	01 20 6d f4 	stm.l	er4-er6,@-sp
    52e0:	01 00 6f f0 	mov.l	er0,@(0x18:16,r7)
    52e4:	00 18 
    52e6:	01 00 6f f1 	mov.l	er1,@(0x14:16,r7)
    52ea:	00 14 
    52ec:	0f a6       	mov.l	er2,er6
    52ee:	6e 0a 00 02 	mov.b	@(0x2:16,r0),r2l
    52f2:	aa 58       	cmp.b	#0x58,r2l
    52f4:	46 08       	bne	.+8 (0x52fe)
    52f6:	7a 04 00 00 	mov.l	#0x4722,er4
    52fa:	47 22 
    52fc:	40 06       	bra	.+6 (0x5304)
    52fe:	7a 04 00 00 	mov.l	#0x4733,er4
    5302:	47 33 
    5304:	01 00 6f f4 	mov.l	er4,@(0x10:16,r7)
    5308:	00 10 
    530a:	01 00 6f 74 	mov.l	@(0x18:16,r7),er4
    530e:	00 18 
    5310:	6e 4a 00 03 	mov.b	@(0x3:16,r4),r2l
    5314:	47 06       	beq	.+6 (0x531c)
    5316:	79 05 00 07 	mov.w	#0x7,r5
    531a:	40 04       	bra	.+4 (0x5320)
    531c:	79 05 00 03 	mov.w	#0x3,r5
    5320:	19 11       	sub.w	r1,r1
    5322:	6f f5 00 0e 	mov.w	r5,@(0xe:16,r7)
    5326:	0d 54       	mov.w	r5,r4
    5328:	0b 04       	adds	#1,r4
    532a:	6f f4 00 0e 	mov.w	r4,@(0xe:16,r7)
    532e:	1d 41       	cmp.w	r4,r1
    5330:	4c 44       	bge	.+68 (0x5376)
    5332:	0d 52       	mov.w	r5,r2
    5334:	19 12       	sub.w	r1,r2
    5336:	17 f2       	exts.l	er2
    5338:	01 00 6f 70 	mov.l	@(0x14:16,r7),er0
    533c:	00 14 
    533e:	0a a0       	add.l	er2,er0
    5340:	0f e3       	mov.l	er6,er3
    5342:	7a 63 00 00 	and.l	#0xf,er3
    5346:	00 0f 
    5348:	01 00 6f 72 	mov.l	@(0x10:16,r7),er2
    534c:	00 10 
    534e:	0a b2       	add.l	er3,er2
    5350:	68 2a       	mov.b	@r2,r2l
    5352:	68 8a       	mov.b	r2l,@r0
    5354:	0f e3       	mov.l	er6,er3
    5356:	11 73       	shlr.l	#2,er3
    5358:	11 73       	shlr.l	#2,er3
    535a:	0f b6       	mov.l	er3,er6
    535c:	01 00 6f 74 	mov.l	@(0x18:16,r7),er4
    5360:	00 18 
    5362:	6e 4a 00 05 	mov.b	@(0x5:16,r4),r2l
    5366:	46 04       	bne	.+4 (0x536c)
    5368:	0f b3       	mov.l	er3,er3
    536a:	47 0a       	beq	.+10 (0x5376)
    536c:	0b 01       	adds	#1,r1
    536e:	6f 74 00 0e 	mov.w	@(0xe:16,r7),r4
    5372:	1d 41       	cmp.w	r4,r1
    5374:	4d bc       	blt	.-68 (0x5332)
    5376:	01 00 6d f5 	mov.l	er5,@-r7
    537a:	0d 12       	mov.w	r1,r2
    537c:	01 00 6f 71 	mov.l	@(0x18:16,r7),er1
    5380:	00 18 
    5382:	01 00 6f 70 	mov.l	@(0x1c:16,r7),er0
    5386:	00 1c 
    5388:	5e 00 54 6c 	jsr	@0x546c:24
    538c:	0b 97       	adds	#4,r7
    538e:	01 20 6d 76 	ldm.l	@sp+,er4-er6
    5392:	7a 17 00 00 	add.l	#0x10,er7
    5396:	00 10 
    5398:	54 70       	rts	
    539a:	7a 37 00 00 	sub.l	#0xc,er7
    539e:	00 0c 
    53a0:	01 20 6d f4 	stm.l	er4-er6,@-sp
    53a4:	01 00 6f f0 	mov.l	er0,@(0x14:16,r7)
    53a8:	00 14 
    53aa:	01 00 6f f1 	mov.l	er1,@(0x10:16,r7)
    53ae:	00 10 
    53b0:	0f a6       	mov.l	er2,er6
    53b2:	6e 0a 00 03 	mov.b	@(0x3:16,r0),r2l
    53b6:	47 06       	beq	.+6 (0x53be)
    53b8:	79 03 00 09 	mov.w	#0x9,r3
    53bc:	40 04       	bra	.+4 (0x53c2)
    53be:	79 03 00 04 	mov.w	#0x4,r3
    53c2:	6f f3 00 0e 	mov.w	r3,@(0xe:16,r7)
    53c6:	19 55       	sub.w	r5,r5
    53c8:	6f 73 00 0e 	mov.w	@(0xe:16,r7),r3
    53cc:	6f f3 00 0c 	mov.w	r3,@(0xc:16,r7)
    53d0:	0b 03       	adds	#1,r3
    53d2:	6f f3 00 0c 	mov.w	r3,@(0xc:16,r7)
    53d6:	1d 35       	cmp.w	r3,r5
    53d8:	4c 46       	bge	.+70 (0x5420)
    53da:	6f 72 00 0e 	mov.w	@(0xe:16,r7),r2
    53de:	19 52       	sub.w	r5,r2
    53e0:	17 f2       	exts.l	er2
    53e2:	01 00 6f 74 	mov.l	@(0x10:16,r7),er4
    53e6:	00 10 
    53e8:	0a a4       	add.l	er2,er4
    53ea:	1a 91       	sub.l	er1,er1
    53ec:	89 0a       	add.b	#0xa,r1l
    53ee:	0f e0       	mov.l	er6,er0
    53f0:	5e 00 77 12 	jsr	@0x7712:24
    53f4:	0c 8a       	mov.b	r0l,r2l
    53f6:	8a 30       	add.b	#0x30,r2l
    53f8:	68 ca       	mov.b	r2l,@r4
    53fa:	1a 91       	sub.l	er1,er1
    53fc:	89 0a       	add.b	#0xa,r1l
    53fe:	0f e0       	mov.l	er6,er0
    5400:	5e 00 77 00 	jsr	@0x7700:24
    5404:	0f 86       	mov.l	er0,er6
    5406:	01 00 6f 73 	mov.l	@(0x14:16,r7),er3
    540a:	00 14 
    540c:	6e 3a 00 05 	mov.b	@(0x5:16,r3),r2l
    5410:	46 04       	bne	.+4 (0x5416)
    5412:	0f e6       	mov.l	er6,er6
    5414:	47 0a       	beq	.+10 (0x5420)
    5416:	0b 05       	adds	#1,r5
    5418:	6f 73 00 0c 	mov.w	@(0xc:16,r7),r3
    541c:	1d 35       	cmp.w	r3,r5
    541e:	4d ba       	blt	.-70 (0x53da)
    5420:	6f 73 00 0e 	mov.w	@(0xe:16,r7),r3
    5424:	01 00 6d f3 	mov.l	er3,@-r7
    5428:	0d 52       	mov.w	r5,r2
    542a:	01 00 6f 71 	mov.l	@(0x14:16,r7),er1
    542e:	00 14 
    5430:	01 00 6f 70 	mov.l	@(0x18:16,r7),er0
    5434:	00 18 
    5436:	55 34       	bsr	.+52 (0x546c)
    5438:	0b 97       	adds	#4,r7
    543a:	01 20 6d 76 	ldm.l	@sp+,er4-er6
    543e:	7a 17 00 00 	add.l	#0xc,er7
    5442:	00 0c 
    5444:	54 70       	rts	
    5446:	01 00 6d f4 	mov.l	er4,@-r7
    544a:	0f 94       	mov.l	er1,er4
    544c:	0f a2       	mov.l	er2,er2
    544e:	4c 10       	bge	.+16 (0x5460)
    5450:	0b 04       	adds	#1,r4
    5452:	17 b2       	neg.l	er2
    5454:	0f c1       	mov.l	er4,er1
    5456:	5e 00 53 9a 	jsr	@0x539a:24
    545a:	fa 2d       	mov.b	#0x2d,r2l
    545c:	6c ca       	mov.b	r2l,@-r4
    545e:	40 06       	bra	.+6 (0x5466)
    5460:	0f c1       	mov.l	er4,er1
    5462:	5e 00 53 9a 	jsr	@0x539a:24
    5466:	01 00 6d 74 	mov.l	@r7+,er4
    546a:	54 70       	rts	
    546c:	01 20 6d f4 	stm.l	er4-er6,@-sp
    5470:	0f 95       	mov.l	er1,er5
    5472:	0d 24       	mov.w	r2,r4
    5474:	6f 76 00 12 	mov.w	@(0x12:16,r7),r6
    5478:	6e 0a 00 05 	mov.b	@(0x5:16,r0),r2l
    547c:	46 36       	bne	.+54 (0x54b4)
    547e:	1d 64       	cmp.w	r6,r4
    5480:	4c 32       	bge	.+50 (0x54b4)
    5482:	19 11       	sub.w	r1,r1
    5484:	1d 41       	cmp.w	r4,r1
    5486:	4e 20       	bgt	.+32 (0x54a8)
    5488:	0d 12       	mov.w	r1,r2
    548a:	17 f2       	exts.l	er2
    548c:	0f d0       	mov.l	er5,er0
    548e:	0a a0       	add.l	er2,er0
    5490:	0d 62       	mov.w	r6,r2
    5492:	19 42       	sub.w	r4,r2
    5494:	09 12       	add.w	r1,r2
    5496:	0d 23       	mov.w	r2,r3
    5498:	17 f3       	exts.l	er3
    549a:	0f d2       	mov.l	er5,er2
    549c:	0a b2       	add.l	er3,er2
    549e:	68 2a       	mov.b	@r2,r2l
    54a0:	68 8a       	mov.b	r2l,@r0
    54a2:	0b 01       	adds	#1,r1
    54a4:	1d 41       	cmp.w	r4,r1
    54a6:	4f e0       	ble	.-32 (0x5488)
    54a8:	0d 12       	mov.w	r1,r2
    54aa:	17 f2       	exts.l	er2
    54ac:	0f d3       	mov.l	er5,er3
    54ae:	0a a3       	add.l	er2,er3
    54b0:	18 aa       	sub.b	r2l,r2l
    54b2:	68 ba       	mov.b	r2l,@r3
    54b4:	0d 62       	mov.w	r6,r2
    54b6:	17 f2       	exts.l	er2
    54b8:	0a d2       	add.l	er5,er2
    54ba:	18 bb       	sub.b	r3l,r3l
    54bc:	6e ab 00 01 	mov.b	r3l,@(0x1:16,r2)
    54c0:	01 20 6d 76 	ldm.l	@sp+,er4-er6
    54c4:	54 70       	rts	
    54c6:	7a 00 00 00 	mov.l	#0x4744,er0
    54ca:	47 44 
    54cc:	5e 00 13 88 	jsr	@0x1388:24
    54d0:	18 aa       	sub.b	r2l,r2l
    54d2:	0f 80       	mov.l	er0,er0
    54d4:	47 02       	beq	.+2 (0x54d8)
    54d6:	fa 01       	mov.b	#0x1,r2l
    54d8:	0c a8       	mov.b	r2l,r0l
    54da:	54 70       	rts	
    54dc:	1b 97       	subs	#4,r7
    54de:	01 20 6d f4 	stm.l	er4-er6,@-sp
    54e2:	0f 85       	mov.l	er0,er5
    54e4:	0f 96       	mov.l	er1,er6
    54e6:	19 22       	sub.w	r2,r2
    54e8:	69 d2       	mov.w	r2,@r5
    54ea:	6e da 00 03 	mov.b	r2l,@(0x3:16,r5)
    54ee:	6e da 00 04 	mov.b	r2l,@(0x4:16,r5)
    54f2:	6e da 00 05 	mov.b	r2l,@(0x5:16,r5)
    54f6:	01 00 69 62 	mov.l	@r6,er2
    54fa:	01 00 6f f2 	mov.l	er2,@(0xc:16,r7)
    54fe:	00 0c 
    5500:	58 00 00 82 	bra	.+130 (0x5586)
    5504:	ac 6c       	cmp.b	#0x6c,r4l
    5506:	46 08       	bne	.+8 (0x5510)
    5508:	fa 01       	mov.b	#0x1,r2l
    550a:	6e da 00 03 	mov.b	r2l,@(0x3:16,r5)
    550e:	40 70       	bra	.+112 (0x5580)
    5510:	ac 2d       	cmp.b	#0x2d,r4l
    5512:	46 08       	bne	.+8 (0x551c)
    5514:	fa 01       	mov.b	#0x1,r2l
    5516:	6e da 00 04 	mov.b	r2l,@(0x4:16,r5)
    551a:	40 64       	bra	.+100 (0x5580)
    551c:	ac 30       	cmp.b	#0x30,r4l
    551e:	46 08       	bne	.+8 (0x5528)
    5520:	fa 01       	mov.b	#0x1,r2l
    5522:	6e da 00 05 	mov.b	r2l,@(0x5:16,r5)
    5526:	40 58       	bra	.+88 (0x5580)
    5528:	01 00 6f 52 	mov.l	@(0x8:16,r5),er2
    552c:	00 08 
    552e:	01 00 6f 22 	mov.l	@(0x8:16,r2),er2
    5532:	00 08 
    5534:	0c c9       	mov.b	r4l,r1l
    5536:	0f d0       	mov.l	er5,er0
    5538:	5d 20       	jsr	@r2
    553a:	0c 88       	mov.b	r0l,r0l
    553c:	47 06       	beq	.+6 (0x5544)
    553e:	6e dc 00 02 	mov.b	r4l,@(0x2:16,r5)
    5542:	40 14       	bra	.+20 (0x5558)
    5544:	18 aa       	sub.b	r2l,r2l
    5546:	8c d0       	add.b	#0xd0,r4l
    5548:	ac 09       	cmp.b	#0x9,r4l
    554a:	42 02       	bhi	.+2 (0x554e)
    554c:	fa 01       	mov.b	#0x1,r2l
    554e:	0c aa       	mov.b	r2l,r2l
    5550:	46 12       	bne	.+18 (0x5564)
    5552:	79 02 ff ff 	mov.w	#0xffff,r2
    5556:	69 d2       	mov.w	r2,@r5
    5558:	01 00 6f 72 	mov.l	@(0xc:16,r7),er2
    555c:	00 0c 
    555e:	01 00 69 e2 	mov.l	er2,@r6
    5562:	40 40       	bra	.+64 (0x55a4)
    5564:	01 00 6f 72 	mov.l	@(0xc:16,r7),er2
    5568:	00 0c 
    556a:	1b 02       	subs	#1,r2
    556c:	01 00 6f f2 	mov.l	er2,@(0xc:16,r7)
    5570:	00 0c 
    5572:	0f f0       	mov.l	er7,er0
    5574:	7a 10 00 00 	add.l	#0xc,er0
    5578:	00 0c 
    557a:	5e 00 14 26 	jsr	@0x1426:24
    557e:	69 d0       	mov.w	r0,@r5
    5580:	01 00 6f 72 	mov.l	@(0xc:16,r7),er2
    5584:	00 0c 
    5586:	6c 2c       	mov.b	@r2+,r4l
    5588:	01 00 6f f2 	mov.l	er2,@(0xc:16,r7)
    558c:	00 0c 
    558e:	0c cc       	mov.b	r4l,r4l
    5590:	58 60 ff 70 	bne	.-144 (0x5504)
    5594:	01 00 6f 72 	mov.l	@(0xc:16,r7),er2
    5598:	00 0c 
    559a:	01 00 69 e2 	mov.l	er2,@r6
    559e:	79 02 ff ff 	mov.w	#0xffff,r2
    55a2:	69 d2       	mov.w	r2,@r5
    55a4:	01 20 6d 76 	ldm.l	@sp+,er4-er6
    55a8:	0b 97       	adds	#4,r7
    55aa:	54 70       	rts	
    55ac:	1b 97       	subs	#4,r7
    55ae:	01 10 6d f4 	stm.l	er4-er5,@-sp
    55b2:	0f 84       	mov.l	er0,er4
    55b4:	0f 95       	mov.l	er1,er5
    55b6:	0f a1       	mov.l	er2,er1
    55b8:	01 00 69 53 	mov.l	@r5,er3
    55bc:	01 00 6f f3 	mov.l	er3,@(0x8:16,r7)
    55c0:	00 08 
    55c2:	69 42       	mov.w	@r4,r2
    55c4:	4c 16       	bge	.+22 (0x55dc)
    55c6:	fa 21       	mov.b	#0x21,r2l
    55c8:	68 ba       	mov.b	r2l,@r3
    55ca:	01 00 6f 72 	mov.l	@(0x8:16,r7),er2
    55ce:	00 08 
    55d0:	0b 02       	adds	#1,r2
    55d2:	01 00 6f f2 	mov.l	er2,@(0x8:16,r7)
    55d6:	00 08 
    55d8:	58 00 01 5e 	bra	.+350 (0x573a)
    55dc:	0d 22       	mov.w	r2,r2
    55de:	47 1e       	beq	.+30 (0x55fe)
    55e0:	19 00       	sub.w	r0,r0
    55e2:	1d 20       	cmp.w	r2,r0
    55e4:	4c 18       	bge	.+24 (0x55fe)
    55e6:	0d 03       	mov.w	r0,r3
    55e8:	17 f3       	exts.l	er3
    55ea:	01 00 6f 72 	mov.l	@(0x8:16,r7),er2
    55ee:	00 08 
    55f0:	0a b2       	add.l	er3,er2
    55f2:	fb 20       	mov.b	#0x20,r3l
    55f4:	68 ab       	mov.b	r3l,@r2
    55f6:	0b 00       	adds	#1,r0
    55f8:	69 42       	mov.w	@r4,r2
    55fa:	1d 20       	cmp.w	r2,r0
    55fc:	4d e8       	blt	.-24 (0x55e6)
    55fe:	6e 4a 00 02 	mov.b	@(0x2:16,r4),r2l
    5602:	aa 63       	cmp.b	#0x63,r2l
    5604:	46 1e       	bne	.+30 (0x5624)
    5606:	01 00 69 12 	mov.l	@r1,er2
    560a:	0b 92       	adds	#4,r2
    560c:	01 00 69 92 	mov.l	er2,@r1
    5610:	6e 29 ff ff 	mov.b	@(0xffff:16,r2),r1l
    5614:	0f f2       	mov.l	er7,er2
    5616:	0b 92       	adds	#4,r2
    5618:	0b 92       	adds	#4,r2
    561a:	0f c0       	mov.l	er4,er0
    561c:	5e 00 58 2e 	jsr	@0x582e:24
    5620:	58 00 01 16 	bra	.+278 (0x573a)
    5624:	aa 73       	cmp.b	#0x73,r2l
    5626:	46 14       	bne	.+20 (0x563c)
    5628:	01 00 69 12 	mov.l	@r1,er2
    562c:	0b 92       	adds	#4,r2
    562e:	01 00 69 92 	mov.l	er2,@r1
    5632:	1b 92       	subs	#4,r2
    5634:	01 00 69 21 	mov.l	@r2,er1
    5638:	58 00 00 f2 	bra	.+242 (0x572e)
    563c:	aa 64       	cmp.b	#0x64,r2l
    563e:	47 12       	beq	.+18 (0x5652)
    5640:	aa 69       	cmp.b	#0x69,r2l
    5642:	47 0e       	beq	.+14 (0x5652)
    5644:	aa 78       	cmp.b	#0x78,r2l
    5646:	47 0a       	beq	.+10 (0x5652)
    5648:	aa 58       	cmp.b	#0x58,r2l
    564a:	47 06       	beq	.+6 (0x5652)
    564c:	aa 75       	cmp.b	#0x75,r2l
    564e:	58 60 00 e8 	bne	.+232 (0x573a)
    5652:	69 43       	mov.w	@r4,r3
    5654:	4f 2a       	ble	.+42 (0x5680)
    5656:	6e 4a 00 05 	mov.b	@(0x5:16,r4),r2l
    565a:	47 24       	beq	.+36 (0x5680)
    565c:	6e 4a 00 04 	mov.b	@(0x4:16,r4),r2l
    5660:	46 1e       	bne	.+30 (0x5680)
    5662:	19 00       	sub.w	r0,r0
    5664:	1d 30       	cmp.w	r3,r0
    5666:	4c 18       	bge	.+24 (0x5680)
    5668:	0d 03       	mov.w	r0,r3
    566a:	17 f3       	exts.l	er3
    566c:	01 00 6f 72 	mov.l	@(0x8:16,r7),er2
    5670:	00 08 
    5672:	0a b2       	add.l	er3,er2
    5674:	fb 30       	mov.b	#0x30,r3l
    5676:	68 ab       	mov.b	r3l,@r2
    5678:	0b 00       	adds	#1,r0
    567a:	69 42       	mov.w	@r4,r2
    567c:	1d 20       	cmp.w	r2,r0
    567e:	4d e8       	blt	.-24 (0x5668)
    5680:	6e 4a 00 03 	mov.b	@(0x3:16,r4),r2l
    5684:	01 00 69 13 	mov.l	@r1,er3
    5688:	0c aa       	mov.b	r2l,r2l
    568a:	47 0e       	beq	.+14 (0x569a)
    568c:	0b 93       	adds	#4,r3
    568e:	01 00 69 93 	mov.l	er3,@r1
    5692:	1b 93       	subs	#4,r3
    5694:	01 00 69 33 	mov.l	@r3,er3
    5698:	40 0e       	bra	.+14 (0x56a8)
    569a:	0f b2       	mov.l	er3,er2
    569c:	0b 92       	adds	#4,r2
    569e:	01 00 69 92 	mov.l	er2,@r1
    56a2:	6f 23 ff fe 	mov.w	@(0xfffe:16,r2),r3
    56a6:	17 f3       	exts.l	er3
    56a8:	6e 4a 00 02 	mov.b	@(0x2:16,r4),r2l
    56ac:	aa 75       	cmp.b	#0x75,r2l
    56ae:	46 1c       	bne	.+28 (0x56cc)
    56b0:	6e 4a 00 03 	mov.b	@(0x3:16,r4),r2l
    56b4:	46 06       	bne	.+6 (0x56bc)
    56b6:	7a 63 00 00 	and.l	#0xffff,er3
    56ba:	ff ff 
    56bc:	7a 01 00 ff 	mov.l	#0xffed24,er1
    56c0:	ed 24 
    56c2:	0f b2       	mov.l	er3,er2
    56c4:	0f c0       	mov.l	er4,er0
    56c6:	5e 00 53 9a 	jsr	@0x539a:24
    56ca:	40 5c       	bra	.+92 (0x5728)
    56cc:	aa 69       	cmp.b	#0x69,r2l
    56ce:	47 04       	beq	.+4 (0x56d4)
    56d0:	aa 64       	cmp.b	#0x64,r2l
    56d2:	46 46       	bne	.+70 (0x571a)
    56d4:	0f b3       	mov.l	er3,er3
    56d6:	4c 32       	bge	.+50 (0x570a)
    56d8:	6e 4a 00 04 	mov.b	@(0x4:16,r4),r2l
    56dc:	46 2c       	bne	.+44 (0x570a)
    56de:	6e 4a 00 05 	mov.b	@(0x5:16,r4),r2l
    56e2:	47 26       	beq	.+38 (0x570a)
    56e4:	0d 32       	mov.w	r3,r2
    56e6:	17 92       	neg.w	r2
    56e8:	7a 01 00 ff 	mov.l	#0xffed24,er1
    56ec:	ed 24 
    56ee:	17 72       	extu.l	er2
    56f0:	0f c0       	mov.l	er4,er0
    56f2:	5e 00 53 9a 	jsr	@0x539a:24
    56f6:	01 00 6f 72 	mov.l	@(0x8:16,r7),er2
    56fa:	00 08 
    56fc:	fb 2d       	mov.b	#0x2d,r3l
    56fe:	68 ab       	mov.b	r3l,@r2
    5700:	0b 02       	adds	#1,r2
    5702:	01 00 6f f2 	mov.l	er2,@(0x8:16,r7)
    5706:	00 08 
    5708:	40 1e       	bra	.+30 (0x5728)
    570a:	7a 01 00 ff 	mov.l	#0xffed24,er1
    570e:	ed 24 
    5710:	0f b2       	mov.l	er3,er2
    5712:	0f c0       	mov.l	er4,er0
    5714:	5e 00 54 46 	jsr	@0x5446:24
    5718:	40 0e       	bra	.+14 (0x5728)
    571a:	7a 01 00 ff 	mov.l	#0xffed24,er1
    571e:	ed 24 
    5720:	0f b2       	mov.l	er3,er2
    5722:	0f c0       	mov.l	er4,er0
    5724:	5e 00 52 d6 	jsr	@0x52d6:24
    5728:	7a 01 00 ff 	mov.l	#0xffed24,er1
    572c:	ed 24 
    572e:	0f f2       	mov.l	er7,er2
    5730:	0b 92       	adds	#4,r2
    5732:	0b 92       	adds	#4,r2
    5734:	0f c0       	mov.l	er4,er0
    5736:	5e 00 58 72 	jsr	@0x5872:24
    573a:	01 00 6f 72 	mov.l	@(0x8:16,r7),er2
    573e:	00 08 
    5740:	01 00 69 d2 	mov.l	er2,@r5
    5744:	01 10 6d 75 	ldm.l	@sp+,er4-er5
    5748:	0b 97       	adds	#4,r7
    574a:	54 70       	rts	
    574c:	7a 37 00 00 	sub.l	#0xc,er7
    5750:	00 0c 
    5752:	01 20 6d f4 	stm.l	er4-er6,@-sp
    5756:	01 00 6f f0 	mov.l	er0,@(0xc:16,r7)
    575a:	00 0c 
    575c:	01 00 6f f1 	mov.l	er1,@(0x14:16,r7)
    5760:	00 14 
    5762:	01 00 6f f2 	mov.l	er2,@(0x10:16,r7)
    5766:	00 10 
    5768:	6b 02 f4 2a 	mov.w	@0xf42a:16,r2
    576c:	46 12       	bne	.+18 (0x5780)
    576e:	79 02 00 01 	mov.w	#0x1,r2
    5772:	6b 82 f4 2a 	mov.w	r2,@0xf42a:16
    5776:	7a 00 00 ff 	mov.l	#0xfff41e,er0
    577a:	f4 1e 
    577c:	5e 00 58 d4 	jsr	@0x58d4:24
    5780:	01 00 6f 76 	mov.l	@(0xc:16,r7),er6
    5784:	00 0c 
    5786:	40 6e       	bra	.+110 (0x57f6)
    5788:	01 00 6f 72 	mov.l	@(0x14:16,r7),er2
    578c:	00 14 
    578e:	6c 28       	mov.b	@r2+,r0l
    5790:	0f a3       	mov.l	er2,er3
    5792:	01 00 6f f3 	mov.l	er3,@(0x14:16,r7)
    5796:	00 14 
    5798:	a8 25       	cmp.b	#0x25,r0l
    579a:	46 4a       	bne	.+74 (0x57e6)
    579c:	68 3a       	mov.b	@r3,r2l
    579e:	0f f1       	mov.l	er7,er1
    57a0:	7a 11 00 00 	add.l	#0x14,er1
    57a4:	00 14 
    57a6:	0f f5       	mov.l	er7,er5
    57a8:	7a 15 00 00 	add.l	#0xc,er5
    57ac:	00 0c 
    57ae:	aa 25       	cmp.b	#0x25,r2l
    57b0:	47 1e       	beq	.+30 (0x57d0)
    57b2:	7a 04 00 ff 	mov.l	#0xfff41e,er4
    57b6:	f4 1e 
    57b8:	0f c0       	mov.l	er4,er0
    57ba:	5e 00 54 dc 	jsr	@0x54dc:24
    57be:	0f f2       	mov.l	er7,er2
    57c0:	7a 12 00 00 	add.l	#0x10,er2
    57c4:	00 10 
    57c6:	0f d1       	mov.l	er5,er1
    57c8:	0f c0       	mov.l	er4,er0
    57ca:	5e 00 55 ac 	jsr	@0x55ac:24
    57ce:	40 26       	bra	.+38 (0x57f6)
    57d0:	01 00 6f 72 	mov.l	@(0xc:16,r7),er2
    57d4:	00 0c 
    57d6:	68 a8       	mov.b	r0l,@r2
    57d8:	0b 03       	adds	#1,r3
    57da:	01 00 69 93 	mov.l	er3,@r1
    57de:	0b 02       	adds	#1,r2
    57e0:	01 00 69 d2 	mov.l	er2,@r5
    57e4:	40 10       	bra	.+16 (0x57f6)
    57e6:	01 00 6f 72 	mov.l	@(0xc:16,r7),er2
    57ea:	00 0c 
    57ec:	68 a8       	mov.b	r0l,@r2
    57ee:	0b 02       	adds	#1,r2
    57f0:	01 00 6f f2 	mov.l	er2,@(0xc:16,r7)
    57f4:	00 0c 
    57f6:	01 00 6f 72 	mov.l	@(0x14:16,r7),er2
    57fa:	00 14 
    57fc:	68 2a       	mov.b	@r2,r2l
    57fe:	46 88       	bne	.-120 (0x5788)
    5800:	01 00 6f 72 	mov.l	@(0xc:16,r7),er2
    5804:	00 0c 
    5806:	18 bb       	sub.b	r3l,r3l
    5808:	68 ab       	mov.b	r3l,@r2
    580a:	6f 70 00 0e 	mov.w	@(0xe:16,r7),r0
    580e:	19 60       	sub.w	r6,r0
    5810:	01 20 6d 76 	ldm.l	@sp+,er4-er6
    5814:	7a 17 00 00 	add.l	#0xc,er7
    5818:	00 0c 
    581a:	54 70       	rts	
    581c:	01 00 6f 71 	mov.l	@(0x4:16,r7),er1
    5820:	00 04 
    5822:	0f f2       	mov.l	er7,er2
    5824:	0b 92       	adds	#4,r2
    5826:	0b 92       	adds	#4,r2
    5828:	5e 00 57 4c 	jsr	@0x574c:24
    582c:	54 70       	rts	
    582e:	01 00 6d f4 	mov.l	er4,@-r7
    5832:	0c 9c       	mov.b	r1l,r4l
    5834:	0f a1       	mov.l	er2,er1
    5836:	6e 0a 00 04 	mov.b	@(0x4:16,r0),r2l
    583a:	46 04       	bne	.+4 (0x5840)
    583c:	69 02       	mov.w	@r0,r2
    583e:	46 08       	bne	.+8 (0x5848)
    5840:	01 00 69 12 	mov.l	@r1,er2
    5844:	68 ac       	mov.b	r4l,@r2
    5846:	40 0e       	bra	.+14 (0x5856)
    5848:	69 02       	mov.w	@r0,r2
    584a:	17 f2       	exts.l	er2
    584c:	01 00 69 13 	mov.l	@r1,er3
    5850:	0a b2       	add.l	er3,er2
    5852:	6e ac ff ff 	mov.b	r4l,@(0xffff:16,r2)
    5856:	01 00 69 13 	mov.l	@r1,er3
    585a:	69 02       	mov.w	@r0,r2
    585c:	47 06       	beq	.+6 (0x5864)
    585e:	17 f2       	exts.l	er2
    5860:	0a b2       	add.l	er3,er2
    5862:	40 04       	bra	.+4 (0x5868)
    5864:	0f b2       	mov.l	er3,er2
    5866:	0b 02       	adds	#1,r2
    5868:	01 00 69 92 	mov.l	er2,@r1
    586c:	01 00 6d 74 	mov.l	@r7+,er4
    5870:	54 70       	rts	
    5872:	01 20 6d f4 	stm.l	er4-er6,@-sp
    5876:	0f 85       	mov.l	er0,er5
    5878:	0f 94       	mov.l	er1,er4
    587a:	0f a6       	mov.l	er2,er6
    587c:	0f c0       	mov.l	er4,er0
    587e:	5e 00 12 f8 	jsr	@0x12f8:24
    5882:	0d 03       	mov.w	r0,r3
    5884:	69 52       	mov.w	@r5,r2
    5886:	46 02       	bne	.+2 (0x588a)
    5888:	69 d0       	mov.w	r0,@r5
    588a:	6e 5a 00 04 	mov.b	@(0x4:16,r5),r2l
    588e:	47 0a       	beq	.+10 (0x589a)
    5890:	01 00 69 60 	mov.l	@r6,er0
    5894:	0d 32       	mov.w	r3,r2
    5896:	17 f2       	exts.l	er2
    5898:	40 20       	bra	.+32 (0x58ba)
    589a:	69 52       	mov.w	@r5,r2
    589c:	01 00 69 60 	mov.l	@r6,er0
    58a0:	0d 31       	mov.w	r3,r1
    58a2:	17 f1       	exts.l	er1
    58a4:	1d 32       	cmp.w	r3,r2
    58a6:	4d 0a       	blt	.+10 (0x58b2)
    58a8:	19 32       	sub.w	r3,r2
    58aa:	17 f2       	exts.l	er2
    58ac:	0a a0       	add.l	er2,er0
    58ae:	0f 92       	mov.l	er1,er2
    58b0:	40 08       	bra	.+8 (0x58ba)
    58b2:	0a 94       	add.l	er1,er4
    58b4:	69 52       	mov.w	@r5,r2
    58b6:	17 f2       	exts.l	er2
    58b8:	1a a4       	sub.l	er2,er4
    58ba:	0f c1       	mov.l	er4,er1
    58bc:	5e 00 12 0c 	jsr	@0x120c:24
    58c0:	69 53       	mov.w	@r5,r3
    58c2:	17 f3       	exts.l	er3
    58c4:	01 00 69 62 	mov.l	@r6,er2
    58c8:	0a b2       	add.l	er3,er2
    58ca:	01 00 69 e2 	mov.l	er2,@r6
    58ce:	01 20 6d 76 	ldm.l	@sp+,er4-er6
    58d2:	54 70       	rts	
    58d4:	7a 02 00 00 	mov.l	#0x474e,er2
    58d8:	47 4e 
    58da:	01 00 6f 82 	mov.l	er2,@(0x8:16,r0)
    58de:	00 08 
    58e0:	54 70       	rts	
    58e2:	6a 88 ed 38 	mov.b	r0l,@0xed38:16
    58e6:	54 70       	rts	
    58e8:	6a 08 ed 38 	mov.b	@0xed38:16,r0l
    58ec:	54 70       	rts	
    58ee:	01 10 6d f4 	stm.l	er4-er5,@-sp
    58f2:	0f 85       	mov.l	er0,er5
    58f4:	6a 0a ed 38 	mov.b	@0xed38:16,r2l
    58f8:	46 06       	bne	.+6 (0x5900)
    58fa:	79 00 ff ff 	mov.w	#0xffff,r0
    58fe:	40 3a       	bra	.+58 (0x593a)
    5900:	0f d5       	mov.l	er5,er5
    5902:	47 0a       	beq	.+10 (0x590e)
    5904:	5e 00 4a 50 	jsr	@0x4a50:24
    5908:	0f 84       	mov.l	er0,er4
    590a:	0a d4       	add.l	er5,er4
    590c:	40 06       	bra	.+6 (0x5914)
    590e:	7a 04 ff ff 	mov.l	#0xfffffff0,er4
    5912:	ff f0 
    5914:	79 05 ff ff 	mov.w	#0xffff,r5
    5918:	5e 00 4a 50 	jsr	@0x4a50:24
    591c:	1f c0       	cmp.l	er4,er0
    591e:	42 06       	bhi	.+6 (0x5926)
    5920:	2a 84       	mov.b	@0x84:8,r2l
    5922:	73 6a       	btst	#0x6,r2l
    5924:	47 f2       	beq	.-14 (0x5918)
    5926:	2a 84       	mov.b	@0x84:8,r2l
    5928:	73 6a       	btst	#0x6,r2l
    592a:	47 0c       	beq	.+12 (0x5938)
    592c:	2a 85       	mov.b	@0x85:8,r2l
    592e:	0c ad       	mov.b	r2l,r5l
    5930:	f5 00       	mov.b	#0x0,r5h
    5932:	2a 84       	mov.b	@0x84:8,r2l
    5934:	ea 87       	and.b	#0x87,r2l
    5936:	3a 84       	mov.b	r2l,@0x84:8
    5938:	0d 50       	mov.w	r5,r0
    593a:	01 10 6d 75 	ldm.l	@sp+,er4-er5
    593e:	54 70       	rts	
    5940:	1b 97       	subs	#4,r7
    5942:	01 20 6d f4 	stm.l	er4-er6,@-sp
    5946:	0f 94       	mov.l	er1,er4
    5948:	01 00 6f f2 	mov.l	er2,@(0xc:16,r7)
    594c:	00 0c 
    594e:	0f c6       	mov.l	er4,er6
    5950:	0f 85       	mov.l	er0,er5
    5952:	1b 04       	subs	#1,r4
    5954:	0f e6       	mov.l	er6,er6
    5956:	47 16       	beq	.+22 (0x596e)
    5958:	01 00 6f 70 	mov.l	@(0xc:16,r7),er0
    595c:	00 0c 
    595e:	55 8e       	bsr	.-114 (0x58ee)
    5960:	0d 00       	mov.w	r0,r0
    5962:	4d 0a       	blt	.+10 (0x596e)
    5964:	68 d8       	mov.b	r0l,@r5
    5966:	0b 05       	adds	#1,r5
    5968:	0f c2       	mov.l	er4,er2
    596a:	1b 04       	subs	#1,r4
    596c:	46 ea       	bne	.-22 (0x5958)
    596e:	1a c6       	sub.l	er4,er6
    5970:	0f e0       	mov.l	er6,er0
    5972:	01 20 6d 76 	ldm.l	@sp+,er4-er6
    5976:	0b 97       	adds	#4,r7
    5978:	54 70       	rts	
    597a:	1b 97       	subs	#4,r7
    597c:	01 20 6d f4 	stm.l	er4-er6,@-sp
    5980:	0f 86       	mov.l	er0,er6
    5982:	0f 94       	mov.l	er1,er4
    5984:	01 00 6f f2 	mov.l	er2,@(0xc:16,r7)
    5988:	00 0c 
    598a:	19 55       	sub.w	r5,r5
    598c:	40 2c       	bra	.+44 (0x59ba)
    598e:	01 00 6f 70 	mov.l	@(0xc:16,r7),er0
    5992:	00 0c 
    5994:	5e 00 58 ee 	jsr	@0x58ee:24
    5998:	0d 00       	mov.w	r0,r0
    599a:	4c 06       	bge	.+6 (0x59a2)
    599c:	79 05 ff ff 	mov.w	#0xffff,r5
    59a0:	40 0e       	bra	.+14 (0x59b0)
    59a2:	0b 05       	adds	#1,r5
    59a4:	79 20 00 0a 	cmp.w	#0xa,r0
    59a8:	47 06       	beq	.+6 (0x59b0)
    59aa:	79 20 00 0d 	cmp.w	#0xd,r0
    59ae:	46 02       	bne	.+2 (0x59b2)
    59b0:	19 00       	sub.w	r0,r0
    59b2:	68 e8       	mov.b	r0l,@r6
    59b4:	0b 06       	adds	#1,r6
    59b6:	0d 00       	mov.w	r0,r0
    59b8:	47 06       	beq	.+6 (0x59c0)
    59ba:	0f c2       	mov.l	er4,er2
    59bc:	1b 04       	subs	#1,r4
    59be:	46 ce       	bne	.-50 (0x598e)
    59c0:	0d 50       	mov.w	r5,r0
    59c2:	01 20 6d 76 	ldm.l	@sp+,er4-er6
    59c6:	0b 97       	adds	#4,r7
    59c8:	54 70       	rts	
    59ca:	6a 0a ed 38 	mov.b	@0xed38:16,r2l
    59ce:	47 0e       	beq	.+14 (0x59de)
    59d0:	2a 84       	mov.b	@0x84:8,r2l
    59d2:	4c fc       	bge	.-4 (0x59d0)
    59d4:	38 83       	mov.b	r0l,@0x83:8
    59d6:	6a 38 00 ff 	bclr	#0x7,@0xffff84:32
    59da:	ff 84 72 70 
    59de:	54 70       	rts	
    59e0:	01 00 6d f4 	mov.l	er4,@-r7
    59e4:	0f 84       	mov.l	er0,er4
    59e6:	40 12       	bra	.+18 (0x59fa)
    59e8:	68 4a       	mov.b	@r4,r2l
    59ea:	aa 0a       	cmp.b	#0xa,r2l
    59ec:	46 06       	bne	.+6 (0x59f4)
    59ee:	1a 91       	sub.l	er1,er1
    59f0:	f8 0d       	mov.b	#0xd,r0l
    59f2:	55 d6       	bsr	.-42 (0x59ca)
    59f4:	6c 48       	mov.b	@r4+,r0l
    59f6:	1a 91       	sub.l	er1,er1
    59f8:	55 d0       	bsr	.-48 (0x59ca)
    59fa:	68 4a       	mov.b	@r4,r2l
    59fc:	46 ea       	bne	.-22 (0x59e8)
    59fe:	01 00 6d 74 	mov.l	@r7+,er4
    5a02:	54 70       	rts	
    5a04:	01 10 6d f4 	stm.l	er4-er5,@-sp
    5a08:	0f 94       	mov.l	er1,er4
    5a0a:	0f 85       	mov.l	er0,er5
    5a0c:	40 06       	bra	.+6 (0x5a14)
    5a0e:	6c 58       	mov.b	@r5+,r0l
    5a10:	1a 91       	sub.l	er1,er1
    5a12:	55 b6       	bsr	.-74 (0x59ca)
    5a14:	0f c2       	mov.l	er4,er2
    5a16:	1b 04       	subs	#1,r4
    5a18:	46 f4       	bne	.-12 (0x5a0e)
    5a1a:	01 10 6d 75 	ldm.l	@sp+,er4-er5
    5a1e:	54 70       	rts	
    5a20:	01 10 6d f4 	stm.l	er4-er5,@-sp
    5a24:	01 00 6f 71 	mov.l	@(0xc:16,r7),er1
    5a28:	00 0c 
    5a2a:	7a 05 00 ff 	mov.l	#0xffed39,er5
    5a2e:	ed 39 
    5a30:	0f f2       	mov.l	er7,er2
    5a32:	7a 12 00 00 	add.l	#0x10,er2
    5a36:	00 10 
    5a38:	0f d0       	mov.l	er5,er0
    5a3a:	5e 00 57 4c 	jsr	@0x574c:24
    5a3e:	0d 04       	mov.w	r0,r4
    5a40:	1a 91       	sub.l	er1,er1
    5a42:	0f d0       	mov.l	er5,er0
    5a44:	55 9a       	bsr	.-102 (0x59e0)
    5a46:	0d 40       	mov.w	r4,r0
    5a48:	01 10 6d 75 	ldm.l	@sp+,er4-er5
    5a4c:	54 70       	rts	
    5a4e:	81 00       	add.b	#0x0,r1h
    5a50:	7a 37 00 00 	sub.l	#0x10,er7
    5a54:	00 10 
    5a56:	01 20 6d f4 	stm.l	er4-er6,@-sp
    5a5a:	01 00 6f f0 	mov.l	er0,@(0x14:16,r7)
    5a5e:	00 14 
    5a60:	6f f1 00 12 	mov.w	r1,@(0x12:16,r7)
    5a64:	01 00 6d f1 	mov.l	er1,@-r7
    5a68:	7a 05 00 00 	mov.l	#0x475a,er5
    5a6c:	47 5a 
    5a6e:	01 00 6d f5 	mov.l	er5,@-r7
    5a72:	5e 00 5a 20 	jsr	@0x5a20:24
    5a76:	79 05 00 0a 	mov.w	#0xa,r5
    5a7a:	6f f5 00 18 	mov.w	r5,@(0x18:16,r7)
    5a7e:	0b 97       	adds	#4,r7
    5a80:	0b 97       	adds	#4,r7
    5a82:	7a 00 00 00 	mov.l	#0x3e8,er0
    5a86:	03 e8 
    5a88:	5e 00 58 ee 	jsr	@0x58ee:24
    5a8c:	0d 00       	mov.w	r0,r0
    5a8e:	4c 34       	bge	.+52 (0x5ac4)
    5a90:	7a 00 00 00 	mov.l	#0x1f4,er0
    5a94:	01 f4 
    5a96:	5e 00 58 ee 	jsr	@0x58ee:24
    5a9a:	0d 00       	mov.w	r0,r0
    5a9c:	4c f2       	bge	.-14 (0x5a90)
    5a9e:	6f 75 00 10 	mov.w	@(0x10:16,r7),r5
    5aa2:	1b 05       	subs	#1,r5
    5aa4:	6f f5 00 10 	mov.w	r5,@(0x10:16,r7)
    5aa8:	0d 55       	mov.w	r5,r5
    5aaa:	47 24       	beq	.+36 (0x5ad0)
    5aac:	6f 75 00 12 	mov.w	@(0x12:16,r7),r5
    5ab0:	01 00 6d f5 	mov.l	er5,@-r7
    5ab4:	7a 05 00 00 	mov.l	#0x475a,er5
    5ab8:	47 5a 
    5aba:	01 00 6d f5 	mov.l	er5,@-r7
    5abe:	5e 00 5a 20 	jsr	@0x5a20:24
    5ac2:	40 ba       	bra	.-70 (0x5a7e)
    5ac4:	79 20 00 43 	cmp.w	#0x43,r0
    5ac8:	47 1c       	beq	.+28 (0x5ae6)
    5aca:	79 20 00 63 	cmp.w	#0x63,r0
    5ace:	46 08       	bne	.+8 (0x5ad8)
    5ad0:	79 00 ff ff 	mov.w	#0xffff,r0
    5ad4:	58 00 02 54 	bra	.+596 (0x5d2c)
    5ad8:	1a 91       	sub.l	er1,er1
    5ada:	7a 00 00 00 	mov.l	#0x4763,er0
    5ade:	47 63 
    5ae0:	5e 00 59 e0 	jsr	@0x59e0:24
    5ae4:	40 aa       	bra	.-86 (0x5a90)
    5ae6:	0f f6       	mov.l	er7,er6
    5ae8:	7a 16 00 00 	add.l	#0x18,er6
    5aec:	00 18 
    5aee:	1a a2       	sub.l	er2,er2
    5af0:	1b 02       	subs	#1,r2
    5af2:	01 00 69 e2 	mov.l	er2,@r6
    5af6:	7a 00 00 00 	mov.l	#0x3e8,er0
    5afa:	03 e8 
    5afc:	5e 00 58 ee 	jsr	@0x58ee:24
    5b00:	0d 00       	mov.w	r0,r0
    5b02:	4d 9a       	blt	.-102 (0x5a9e)
    5b04:	0c 8a       	mov.b	r0l,r2l
    5b06:	6f 63 00 02 	mov.w	@(0x2:16,r6),r3
    5b0a:	15 ba       	xor.b	r3l,r2l
    5b0c:	10 72       	shll.l	#2,er2
    5b0e:	7a 62 00 00 	and.l	#0x3fc,er2
    5b12:	03 fc 
    5b14:	01 00 6f 73 	mov.l	@(0x18:16,r7),er3
    5b18:	00 18 
    5b1a:	11 73       	shlr.l	#2,er3
    5b1c:	11 73       	shlr.l	#2,er3
    5b1e:	11 73       	shlr.l	#2,er3
    5b20:	11 73       	shlr.l	#2,er3
    5b22:	01 00 78 20 	mov.l	@(0x4e0:32,r2),er2
    5b26:	6b 22 00 00 
    5b2a:	04 e0 
    5b2c:	01 f0 65 32 	xor.l	er3,er2
    5b30:	01 00 69 e2 	mov.l	er2,@r6
    5b34:	0d 04       	mov.w	r0,r4
    5b36:	7a 00 00 00 	mov.l	#0x3e8,er0
    5b3a:	03 e8 
    5b3c:	5e 00 58 ee 	jsr	@0x58ee:24
    5b40:	0d 00       	mov.w	r0,r0
    5b42:	58 d0 ff 58 	blt	.-168 (0x5a9e)
    5b46:	0d 02       	mov.w	r0,r2
    5b48:	0c a2       	mov.b	r2l,r2h
    5b4a:	18 aa       	sub.b	r2l,r2l
    5b4c:	64 24       	or.w	r2,r4
    5b4e:	6f 75 00 12 	mov.w	@(0x12:16,r7),r5
    5b52:	1d 54       	cmp.w	r5,r4
    5b54:	58 60 ff 38 	bne	.-200 (0x5a90)
    5b58:	0c 8a       	mov.b	r0l,r2l
    5b5a:	6f 63 00 02 	mov.w	@(0x2:16,r6),r3
    5b5e:	15 ba       	xor.b	r3l,r2l
    5b60:	10 72       	shll.l	#2,er2
    5b62:	7a 62 00 00 	and.l	#0x3fc,er2
    5b66:	03 fc 
    5b68:	01 00 6f 73 	mov.l	@(0x18:16,r7),er3
    5b6c:	00 18 
    5b6e:	11 73       	shlr.l	#2,er3
    5b70:	11 73       	shlr.l	#2,er3
    5b72:	11 73       	shlr.l	#2,er3
    5b74:	11 73       	shlr.l	#2,er3
    5b76:	01 00 78 20 	mov.l	@(0x4e0:32,r2),er2
    5b7a:	6b 22 00 00 
    5b7e:	04 e0 
    5b80:	01 f0 65 32 	xor.l	er3,er2
    5b84:	01 00 69 e2 	mov.l	er2,@r6
    5b88:	7a 00 00 00 	mov.l	#0x3e8,er0
    5b8c:	03 e8 
    5b8e:	5e 00 58 ee 	jsr	@0x58ee:24
    5b92:	0d 00       	mov.w	r0,r0
    5b94:	58 d0 ff 06 	blt	.-250 (0x5a9e)
    5b98:	0c 8a       	mov.b	r0l,r2l
    5b9a:	6f 63 00 02 	mov.w	@(0x2:16,r6),r3
    5b9e:	15 ba       	xor.b	r3l,r2l
    5ba0:	10 72       	shll.l	#2,er2
    5ba2:	7a 62 00 00 	and.l	#0x3fc,er2
    5ba6:	03 fc 
    5ba8:	01 00 6f 73 	mov.l	@(0x18:16,r7),er3
    5bac:	00 18 
    5bae:	11 73       	shlr.l	#2,er3
    5bb0:	11 73       	shlr.l	#2,er3
    5bb2:	11 73       	shlr.l	#2,er3
    5bb4:	11 73       	shlr.l	#2,er3
    5bb6:	01 00 78 20 	mov.l	@(0x4e0:32,r2),er2
    5bba:	6b 22 00 00 
    5bbe:	04 e0 
    5bc0:	01 f0 65 32 	xor.l	er3,er2
    5bc4:	01 00 69 e2 	mov.l	er2,@r6
    5bc8:	6f f0 00 0e 	mov.w	r0,@(0xe:16,r7)
    5bcc:	7a 00 00 00 	mov.l	#0x3e8,er0
    5bd0:	03 e8 
    5bd2:	5e 00 58 ee 	jsr	@0x58ee:24
    5bd6:	0d 00       	mov.w	r0,r0
    5bd8:	58 d0 fe c2 	blt	.-318 (0x5a9e)
    5bdc:	0d 02       	mov.w	r0,r2
    5bde:	0c a2       	mov.b	r2l,r2h
    5be0:	18 aa       	sub.b	r2l,r2l
    5be2:	6f 75 00 0e 	mov.w	@(0xe:16,r7),r5
    5be6:	64 25       	or.w	r2,r5
    5be8:	6f f5 00 0e 	mov.w	r5,@(0xe:16,r7)
    5bec:	0c 8a       	mov.b	r0l,r2l
    5bee:	6f 63 00 02 	mov.w	@(0x2:16,r6),r3
    5bf2:	15 ba       	xor.b	r3l,r2l
    5bf4:	10 72       	shll.l	#2,er2
    5bf6:	7a 62 00 00 	and.l	#0x3fc,er2
    5bfa:	03 fc 
    5bfc:	01 00 6f 73 	mov.l	@(0x18:16,r7),er3
    5c00:	00 18 
    5c02:	11 73       	shlr.l	#2,er3
    5c04:	11 73       	shlr.l	#2,er3
    5c06:	11 73       	shlr.l	#2,er3
    5c08:	11 73       	shlr.l	#2,er3
    5c0a:	01 00 78 20 	mov.l	@(0x4e0:32,r2),er2
    5c0e:	6b 22 00 00 
    5c12:	04 e0 
    5c14:	01 f0 65 32 	xor.l	er3,er2
    5c18:	01 00 69 e2 	mov.l	er2,@r6
    5c1c:	6f 75 00 0e 	mov.w	@(0xe:16,r7),r5
    5c20:	79 25 02 00 	cmp.w	#0x200,r5
    5c24:	58 20 fe 68 	bhi	.-408 (0x5a90)
    5c28:	19 44       	sub.w	r4,r4
    5c2a:	1d 54       	cmp.w	r5,r4
    5c2c:	44 28       	bcc	.+40 (0x5c56)
    5c2e:	7a 00 00 00 	mov.l	#0x3e8,er0
    5c32:	03 e8 
    5c34:	5e 00 58 ee 	jsr	@0x58ee:24
    5c38:	0d 00       	mov.w	r0,r0
    5c3a:	58 d0 fe 60 	blt	.-416 (0x5a9e)
    5c3e:	0d 43       	mov.w	r4,r3
    5c40:	17 73       	extu.l	er3
    5c42:	01 00 6f 72 	mov.l	@(0x14:16,r7),er2
    5c46:	00 14 
    5c48:	0a b2       	add.l	er3,er2
    5c4a:	68 a8       	mov.b	r0l,@r2
    5c4c:	0b 04       	adds	#1,r4
    5c4e:	6f 75 00 0e 	mov.w	@(0xe:16,r7),r5
    5c52:	1d 54       	cmp.w	r5,r4
    5c54:	45 d8       	bcs	.-40 (0x5c2e)
    5c56:	7a 00 00 00 	mov.l	#0x3e8,er0
    5c5a:	03 e8 
    5c5c:	5e 00 58 ee 	jsr	@0x58ee:24
    5c60:	0d 00       	mov.w	r0,r0
    5c62:	58 d0 fe 38 	blt	.-456 (0x5a9e)
    5c66:	0d 04       	mov.w	r0,r4
    5c68:	17 f4       	exts.l	er4
    5c6a:	7a 00 00 00 	mov.l	#0x3e8,er0
    5c6e:	03 e8 
    5c70:	5e 00 58 ee 	jsr	@0x58ee:24
    5c74:	0d 00       	mov.w	r0,r0
    5c76:	58 d0 fe 24 	blt	.-476 (0x5a9e)
    5c7a:	0d 02       	mov.w	r0,r2
    5c7c:	17 f2       	exts.l	er2
    5c7e:	10 72       	shll.l	#2,er2
    5c80:	10 72       	shll.l	#2,er2
    5c82:	10 72       	shll.l	#2,er2
    5c84:	10 72       	shll.l	#2,er2
    5c86:	01 f0 64 24 	or.l	er2,er4
    5c8a:	7a 00 00 00 	mov.l	#0x3e8,er0
    5c8e:	03 e8 
    5c90:	5e 00 58 ee 	jsr	@0x58ee:24
    5c94:	0d 00       	mov.w	r0,r0
    5c96:	58 d0 fe 04 	blt	.-508 (0x5a9e)
    5c9a:	0f 82       	mov.l	er0,er2
    5c9c:	0d 2a       	mov.w	r2,e2
    5c9e:	19 22       	sub.w	r2,r2
    5ca0:	01 f0 64 24 	or.l	er2,er4
    5ca4:	7a 00 00 00 	mov.l	#0x3e8,er0
    5ca8:	03 e8 
    5caa:	5e 00 58 ee 	jsr	@0x58ee:24
    5cae:	0d 00       	mov.w	r0,r0
    5cb0:	58 d0 fd ea 	blt	.-534 (0x5a9e)
    5cb4:	0f 82       	mov.l	er0,er2
    5cb6:	0c a2       	mov.b	r2l,r2h
    5cb8:	18 aa       	sub.b	r2l,r2l
    5cba:	0d 2a       	mov.w	r2,e2
    5cbc:	19 22       	sub.w	r2,r2
    5cbe:	01 f0 64 24 	or.l	er2,er4
    5cc2:	6f 72 00 0e 	mov.w	@(0xe:16,r7),r2
    5cc6:	17 72       	extu.l	er2
    5cc8:	0f e1       	mov.l	er6,er1
    5cca:	01 00 6f 76 	mov.l	@(0x14:16,r7),er6
    5cce:	00 14 
    5cd0:	0f a0       	mov.l	er2,er0
    5cd2:	40 32       	bra	.+50 (0x5d06)
    5cd4:	6c 6b       	mov.b	@r6+,r3l
    5cd6:	f3 00       	mov.b	#0x0,r3h
    5cd8:	6f 12 00 02 	mov.w	@(0x2:16,r1),r2
    5cdc:	65 32       	xor.w	r3,r2
    5cde:	10 72       	shll.l	#2,er2
    5ce0:	7a 62 00 00 	and.l	#0x3fc,er2
    5ce4:	03 fc 
    5ce6:	01 00 69 13 	mov.l	@r1,er3
    5cea:	11 73       	shlr.l	#2,er3
    5cec:	11 73       	shlr.l	#2,er3
    5cee:	11 73       	shlr.l	#2,er3
    5cf0:	11 73       	shlr.l	#2,er3
    5cf2:	01 00 78 20 	mov.l	@(0x4e0:32,r2),er2
    5cf6:	6b 22 00 00 
    5cfa:	04 e0 
    5cfc:	01 f0 65 32 	xor.l	er3,er2
    5d00:	01 00 69 92 	mov.l	er2,@r1
    5d04:	0f 82       	mov.l	er0,er2
    5d06:	1b 00       	subs	#1,r0
    5d08:	0f a2       	mov.l	er2,er2
    5d0a:	46 c8       	bne	.-56 (0x5cd4)
    5d0c:	01 00 6f 72 	mov.l	@(0x18:16,r7),er2
    5d10:	00 18 
    5d12:	17 32       	not.l	er2
    5d14:	1f a4       	cmp.l	er2,er4
    5d16:	47 10       	beq	.+16 (0x5d28)
    5d18:	1a 91       	sub.l	er1,er1
    5d1a:	7a 00 00 00 	mov.l	#0x4770,er0
    5d1e:	47 70 
    5d20:	5e 00 59 e0 	jsr	@0x59e0:24
    5d24:	58 00 fd 68 	bra	.-664 (0x5a90)
    5d28:	6f 70 00 0e 	mov.w	@(0xe:16,r7),r0
    5d2c:	01 20 6d 76 	ldm.l	@sp+,er4-er6
    5d30:	7a 17 00 00 	add.l	#0x10,er7
    5d34:	00 10 
    5d36:	54 70       	rts	
    5d38:	1b 97       	subs	#4,r7
    5d3a:	1b 97       	subs	#4,r7
    5d3c:	01 20 6d f4 	stm.l	er4-er6,@-sp
    5d40:	0f 96       	mov.l	er1,er6
    5d42:	5e 00 14 16 	jsr	@0x1416:24
    5d46:	f9 20       	mov.b	#0x20,r1l
    5d48:	5e 00 13 88 	jsr	@0x1388:24
    5d4c:	5e 00 14 fc 	jsr	@0x14fc:24
    5d50:	01 00 6f f0 	mov.l	er0,@(0x10:16,r7)
    5d54:	00 10 
    5d56:	19 55       	sub.w	r5,r5
    5d58:	01 00 6d f0 	mov.l	er0,@-r7
    5d5c:	7a 02 00 00 	mov.l	#0x4778,er2
    5d60:	47 78 
    5d62:	01 00 6d f2 	mov.l	er2,@-r7
    5d66:	5e 00 5a 20 	jsr	@0x5a20:24
    5d6a:	1a 80       	sub.l	er0,er0
    5d6c:	5e 00 58 ee 	jsr	@0x58ee:24
    5d70:	fb 01       	mov.b	#0x1,r3l
    5d72:	6e fb 00 17 	mov.b	r3l,@(0x17:16,r7)
    5d76:	1a c4       	sub.l	er4,er4
    5d78:	0b 97       	adds	#4,r7
    5d7a:	0b 97       	adds	#4,r7
    5d7c:	40 16       	bra	.+22 (0x5d94)
    5d7e:	0d 51       	mov.w	r5,r1
    5d80:	0b 05       	adds	#1,r5
    5d82:	0f e0       	mov.l	er6,er0
    5d84:	5e 00 5a 50 	jsr	@0x5a50:24
    5d88:	0d 00       	mov.w	r0,r0
    5d8a:	4d 20       	blt	.+32 (0x5dac)
    5d8c:	0d 02       	mov.w	r0,r2
    5d8e:	17 f2       	exts.l	er2
    5d90:	0a a6       	add.l	er2,er6
    5d92:	0a a4       	add.l	er2,er4
    5d94:	01 00 6f 73 	mov.l	@(0x10:16,r7),er3
    5d98:	00 10 
    5d9a:	1f b4       	cmp.l	er3,er4
    5d9c:	45 e0       	bcs	.-32 (0x5d7e)
    5d9e:	6e 7b 00 0f 	mov.b	@(0xf:16,r7),r3l
    5da2:	47 24       	beq	.+36 (0x5dc8)
    5da4:	7a 00 00 00 	mov.l	#0x479a,er0
    5da8:	47 9a 
    5daa:	40 22       	bra	.+34 (0x5dce)
    5dac:	7a 00 00 00 	mov.l	#0x4791,er0
    5db0:	47 91 
    5db2:	1a 91       	sub.l	er1,er1
    5db4:	5e 00 59 e0 	jsr	@0x59e0:24
    5db8:	18 bb       	sub.b	r3l,r3l
    5dba:	6e fb 00 0f 	mov.b	r3l,@(0xf:16,r7)
    5dbe:	1a b3       	sub.l	er3,er3
    5dc0:	01 00 6f f3 	mov.l	er3,@(0x10:16,r7)
    5dc4:	00 10 
    5dc6:	40 d6       	bra	.-42 (0x5d9e)
    5dc8:	7a 00 00 00 	mov.l	#0x47a1,er0
    5dcc:	47 a1 
    5dce:	1a 91       	sub.l	er1,er1
    5dd0:	5e 00 59 e0 	jsr	@0x59e0:24
    5dd4:	01 00 6f 70 	mov.l	@(0x10:16,r7),er0
    5dd8:	00 10 
    5dda:	01 20 6d 76 	ldm.l	@sp+,er4-er6
    5dde:	0b 97       	adds	#4,r7
    5de0:	0b 97       	adds	#4,r7
    5de2:	54 70       	rts	
    5de4:	40 fe       	bra	.-2 (0x5de4)
    5de6:	7a 37 00 00 	sub.l	#0x10,er7
    5dea:	00 10 
    5dec:	01 20 6d f4 	stm.l	er4-er6,@-sp
    5df0:	01 00 6f f0 	mov.l	er0,@(0x18:16,r7)
    5df4:	00 18 
    5df6:	01 00 6f f1 	mov.l	er1,@(0x14:16,r7)
    5dfa:	00 14 
    5dfc:	0f a4       	mov.l	er2,er4
    5dfe:	1a d5       	sub.l	er5,er5
    5e00:	01 00 6f f5 	mov.l	er5,@(0xc:16,r7)
    5e04:	00 0c 
    5e06:	19 66       	sub.w	r6,r6
    5e08:	01 00 6f f0 	mov.l	er0,@(0x10:16,r7)
    5e0c:	00 10 
    5e0e:	11 16       	shlr.w	r6
    5e10:	73 06       	btst	#0x0,r6h
    5e12:	46 1a       	bne	.+26 (0x5e2e)
    5e14:	0f c2       	mov.l	er4,er2
    5e16:	1b 04       	subs	#1,r4
    5e18:	58 70 00 da 	beq	.+218 (0x5ef6)
    5e1c:	01 00 6f 75 	mov.l	@(0x14:16,r7),er5
    5e20:	00 14 
    5e22:	6c 5e       	mov.b	@r5+,r6l
    5e24:	f6 00       	mov.b	#0x0,r6h
    5e26:	01 00 6f f5 	mov.l	er5,@(0x14:16,r7)
    5e2a:	00 14 
    5e2c:	c6 ff       	or.b	#0xff,r6h
    5e2e:	0f c3       	mov.l	er4,er3
    5e30:	1b 03       	subs	#1,r3
    5e32:	73 0e       	btst	#0x0,r6l
    5e34:	47 38       	beq	.+56 (0x5e6e)
    5e36:	0f c2       	mov.l	er4,er2
    5e38:	0f b4       	mov.l	er3,er4
    5e3a:	0f a2       	mov.l	er2,er2
    5e3c:	58 70 00 b6 	beq	.+182 (0x5ef6)
    5e40:	01 00 6f 75 	mov.l	@(0x14:16,r7),er5
    5e44:	00 14 
    5e46:	6c 5a       	mov.b	@r5+,r2l
    5e48:	01 00 6f f5 	mov.l	er5,@(0x14:16,r7)
    5e4c:	00 14 
    5e4e:	01 00 6f 75 	mov.l	@(0x10:16,r7),er5
    5e52:	00 10 
    5e54:	68 da       	mov.b	r2l,@r5
    5e56:	0b 05       	adds	#1,r5
    5e58:	01 00 6f f5 	mov.l	er5,@(0x10:16,r7)
    5e5c:	00 10 
    5e5e:	01 00 6f 75 	mov.l	@(0xc:16,r7),er5
    5e62:	00 0c 
    5e64:	0b 05       	adds	#1,r5
    5e66:	01 00 6f f5 	mov.l	er5,@(0xc:16,r7)
    5e6a:	00 0c 
    5e6c:	40 a0       	bra	.-96 (0x5e0e)
    5e6e:	0f c4       	mov.l	er4,er4
    5e70:	58 70 00 82 	beq	.+130 (0x5ef6)
    5e74:	01 00 6f 75 	mov.l	@(0x14:16,r7),er5
    5e78:	00 14 
    5e7a:	6c 5a       	mov.b	@r5+,r2l
    5e7c:	f2 00       	mov.b	#0x0,r2h
    5e7e:	01 00 6f f5 	mov.l	er5,@(0x14:16,r7)
    5e82:	00 14 
    5e84:	0d 20       	mov.w	r2,r0
    5e86:	17 70       	extu.l	er0
    5e88:	0f b4       	mov.l	er3,er4
    5e8a:	1b 04       	subs	#1,r4
    5e8c:	0f b3       	mov.l	er3,er3
    5e8e:	47 66       	beq	.+102 (0x5ef6)
    5e90:	6c 5b       	mov.b	@r5+,r3l
    5e92:	f3 00       	mov.b	#0x0,r3h
    5e94:	01 00 6f f5 	mov.l	er5,@(0x14:16,r7)
    5e98:	00 14 
    5e9a:	0f b2       	mov.l	er3,er2
    5e9c:	10 72       	shll.l	#2,er2
    5e9e:	10 72       	shll.l	#2,er2
    5ea0:	7a 62 00 00 	and.l	#0xf00,er2
    5ea4:	0f 00 
    5ea6:	01 f0 64 20 	or.l	er2,er0
    5eaa:	01 00 6f 71 	mov.l	@(0xc:16,r7),er1
    5eae:	00 0c 
    5eb0:	1a 81       	sub.l	er0,er1
    5eb2:	eb 0f       	and.b	#0xf,r3l
    5eb4:	e3 00       	and.b	#0x0,r3h
    5eb6:	0b 83       	adds	#2,r3
    5eb8:	0b 03       	adds	#1,r3
    5eba:	01 00 6f 70 	mov.l	@(0xc:16,r7),er0
    5ebe:	00 0c 
    5ec0:	01 00 6f 75 	mov.l	@(0x18:16,r7),er5
    5ec4:	00 18 
    5ec6:	0a d0       	add.l	er5,er0
    5ec8:	0a d1       	add.l	er5,er1
    5eca:	6c 1a       	mov.b	@r1+,r2l
    5ecc:	68 8a       	mov.b	r2l,@r0
    5ece:	0b 00       	adds	#1,r0
    5ed0:	01 00 6f 75 	mov.l	@(0x10:16,r7),er5
    5ed4:	00 10 
    5ed6:	0b 05       	adds	#1,r5
    5ed8:	01 00 6f f5 	mov.l	er5,@(0x10:16,r7)
    5edc:	00 10 
    5ede:	01 00 6f 75 	mov.l	@(0xc:16,r7),er5
    5ee2:	00 0c 
    5ee4:	0b 05       	adds	#1,r5
    5ee6:	01 00 6f f5 	mov.l	er5,@(0xc:16,r7)
    5eea:	00 0c 
    5eec:	1b 03       	subs	#1,r3
    5eee:	0d 33       	mov.w	r3,r3
    5ef0:	46 d8       	bne	.-40 (0x5eca)
    5ef2:	58 00 ff 18 	bra	.-232 (0x5e0e)
    5ef6:	01 00 6f 70 	mov.l	@(0xc:16,r7),er0
    5efa:	00 0c 
    5efc:	01 20 6d 76 	ldm.l	@sp+,er4-er6
    5f00:	7a 17 00 00 	add.l	#0x10,er7
    5f04:	00 10 
    5f06:	54 70       	rts	
    5f08:	1b 97       	subs	#4,r7
    5f0a:	01 20 6d f4 	stm.l	er4-er6,@-sp
    5f0e:	0f f3       	mov.l	er7,er3
    5f10:	7a 13 00 00 	add.l	#0xc,er3
    5f14:	00 0c 
    5f16:	1a a2       	sub.l	er2,er2
    5f18:	1b 02       	subs	#1,r2
    5f1a:	01 00 69 b2 	mov.l	er2,@r3
    5f1e:	18 dd       	sub.b	r5l,r5l
    5f20:	7a 01 00 7f 	mov.l	#0x7ff800,er1
    5f24:	f8 00 
    5f26:	01 00 69 12 	mov.l	@r1,er2
    5f2a:	7a 22 ba 0b 	cmp.l	#0xba0bab15,er2
    5f2e:	ab 15 
    5f30:	46 52       	bne	.+82 (0x5f84)
    5f32:	0f b0       	mov.l	er3,er0
    5f34:	0f 96       	mov.l	er1,er6
    5f36:	7a 01 00 00 	mov.l	#0x7fb,er1
    5f3a:	07 fb 
    5f3c:	6c 6b       	mov.b	@r6+,r3l
    5f3e:	f3 00       	mov.b	#0x0,r3h
    5f40:	6f 02 00 02 	mov.w	@(0x2:16,r0),r2
    5f44:	65 32       	xor.w	r3,r2
    5f46:	0f a3       	mov.l	er2,er3
    5f48:	10 73       	shll.l	#2,er3
    5f4a:	7a 63 00 00 	and.l	#0x3fc,er3
    5f4e:	03 fc 
    5f50:	01 00 69 02 	mov.l	@r0,er2
    5f54:	11 72       	shlr.l	#2,er2
    5f56:	11 72       	shlr.l	#2,er2
    5f58:	11 72       	shlr.l	#2,er2
    5f5a:	11 72       	shlr.l	#2,er2
    5f5c:	01 00 78 30 	mov.l	@(0x4e0:32,r3),er3
    5f60:	6b 23 00 00 
    5f64:	04 e0 
    5f66:	01 f0 65 23 	xor.l	er2,er3
    5f6a:	01 00 69 83 	mov.l	er3,@r0
    5f6e:	0f 92       	mov.l	er1,er2
    5f70:	1b 01       	subs	#1,r1
    5f72:	46 c8       	bne	.-56 (0x5f3c)
    5f74:	17 33       	not.l	er3
    5f76:	01 00 6b 22 	mov.l	@0x7ffffc:32,er2
    5f7a:	00 7f ff fc 
    5f7e:	1f a3       	cmp.l	er2,er3
    5f80:	46 02       	bne	.+2 (0x5f84)
    5f82:	fd 01       	mov.b	#0x1,r5l
    5f84:	0c d8       	mov.b	r5l,r0l
    5f86:	01 20 6d 76 	ldm.l	@sp+,er4-er6
    5f8a:	0b 97       	adds	#4,r7
    5f8c:	54 70       	rts	
    5f8e:	5e 00 5f 08 	jsr	@0x5f08:24
    5f92:	0c 88       	mov.b	r0l,r0l
    5f94:	47 1e       	beq	.+30 (0x5fb4)
    5f96:	7a 00 00 7f 	mov.l	#0x7ff804,er0
    5f9a:	f8 04 
    5f9c:	6a 2a 00 7f 	mov.b	@0x7ff805:32,r2l
    5fa0:	f8 05 
    5fa2:	17 0a       	not.b	r2l
    5fa4:	68 0b       	mov.b	@r0,r3l
    5fa6:	15 ba       	xor.b	r3l,r2l
    5fa8:	46 0a       	bne	.+10 (0x5fb4)
    5faa:	ab 1f       	cmp.b	#0x1f,r3l
    5fac:	42 06       	bhi	.+6 (0x5fb4)
    5fae:	0c b8       	mov.b	r3l,r0l
    5fb0:	f0 00       	mov.b	#0x0,r0h
    5fb2:	40 04       	bra	.+4 (0x5fb8)
    5fb4:	79 00 00 07 	mov.w	#0x7,r0
    5fb8:	54 70       	rts	
    5fba:	5e 00 5f 08 	jsr	@0x5f08:24
    5fbe:	0c 88       	mov.b	r0l,r0l
    5fc0:	47 10       	beq	.+16 (0x5fd2)
    5fc2:	6b 22 00 7f 	mov.w	@0x7ff806:32,r2
    5fc6:	f8 06 
    5fc8:	79 22 2b 57 	cmp.w	#0x2b57,r2
    5fcc:	46 04       	bne	.+4 (0x5fd2)
    5fce:	18 88       	sub.b	r0l,r0l
    5fd0:	40 02       	bra	.+2 (0x5fd4)
    5fd2:	f8 01       	mov.b	#0x1,r0l
    5fd4:	54 70       	rts	
    5fd6:	5e 00 5f 08 	jsr	@0x5f08:24
    5fda:	0c 88       	mov.b	r0l,r0l
    5fdc:	47 10       	beq	.+16 (0x5fee)
    5fde:	6b 22 00 7f 	mov.w	@0x7ff808:32,r2
    5fe2:	f8 08 
    5fe4:	79 22 de ba 	cmp.w	#0xdeba,r2
    5fe8:	46 04       	bne	.+4 (0x5fee)
    5fea:	f8 01       	mov.b	#0x1,r0l
    5fec:	40 02       	bra	.+2 (0x5ff0)
    5fee:	18 88       	sub.b	r0l,r0l
    5ff0:	54 70       	rts	
    5ff2:	5e 00 5f 08 	jsr	@0x5f08:24
    5ff6:	0c 88       	mov.b	r0l,r0l
    5ff8:	46 06       	bne	.+6 (0x6000)
    5ffa:	1a 80       	sub.l	er0,er0
    5ffc:	1b 80       	subs	#2,r0
    5ffe:	40 08       	bra	.+8 (0x6008)
    6000:	01 00 6b 20 	mov.l	@0x7ff80a:32,er0
    6004:	00 7f f8 0a 
    6008:	54 70       	rts	
	...
    6012:	7a 02 00 10 	mov.l	#0x100000,er2
    6016:	00 00 
    6018:	68 a8       	mov.b	r0l,@r2
	...
    6022:	7a 02 00 10 	mov.l	#0x100001,er2
    6026:	00 01 
    6028:	68 a9       	mov.b	r1l,@r2
    602a:	54 70       	rts	
    602c:	01 00 6d f4 	mov.l	er4,@-r7
    6030:	0c 8c       	mov.b	r0l,r4l
    6032:	79 01 00 19 	mov.w	#0x19,r1
    6036:	19 00       	sub.w	r0,r0
    6038:	55 d0       	bsr	.-48 (0x600a)
    603a:	79 01 00 02 	mov.w	#0x2,r1
    603e:	79 00 00 01 	mov.w	#0x1,r0
    6042:	55 c6       	bsr	.-58 (0x600a)
    6044:	0c c9       	mov.b	r4l,r1l
    6046:	f1 00       	mov.b	#0x0,r1h
    6048:	79 00 00 10 	mov.w	#0x10,r0
    604c:	55 bc       	bsr	.-68 (0x600a)
    604e:	19 11       	sub.w	r1,r1
    6050:	79 00 00 0c 	mov.w	#0xc,r0
    6054:	55 b4       	bsr	.-76 (0x600a)
    6056:	79 01 00 0c 	mov.w	#0xc,r1
    605a:	79 00 00 0d 	mov.w	#0xd,r0
    605e:	55 aa       	bsr	.-86 (0x600a)
    6060:	79 01 00 12 	mov.w	#0x12,r1
    6064:	79 00 00 0e 	mov.w	#0xe,r0
    6068:	55 a0       	bsr	.-96 (0x600a)
    606a:	79 01 00 1f 	mov.w	#0x1f,r1
    606e:	79 00 00 0f 	mov.w	#0xf,r0
    6072:	55 96       	bsr	.-106 (0x600a)
    6074:	01 00 6d 74 	mov.l	@r7+,er4
    6078:	54 70       	rts	
    607a:	01 00 6d f4 	mov.l	er4,@-r7
    607e:	0c 9c       	mov.b	r1l,r4l
    6080:	0c 89       	mov.b	r0l,r1l
    6082:	f1 00       	mov.b	#0x0,r1h
    6084:	79 00 00 0d 	mov.w	#0xd,r0
    6088:	55 80       	bsr	.-128 (0x600a)
    608a:	0c c9       	mov.b	r4l,r1l
    608c:	f1 00       	mov.b	#0x0,r1h
    608e:	79 00 00 0e 	mov.w	#0xe,r0
    6092:	5e 00 60 0a 	jsr	@0x600a:24
    6096:	01 00 6d 74 	mov.l	@r7+,er4
    609a:	54 70       	rts	
    609c:	01 10 6d f4 	stm.l	er4-er5,@-sp
    60a0:	0f 85       	mov.l	er0,er5
    60a2:	19 44       	sub.w	r4,r4
    60a4:	19 11       	sub.w	r1,r1
    60a6:	79 00 00 02 	mov.w	#0x2,r0
    60aa:	5e 00 60 0a 	jsr	@0x600a:24
    60ae:	79 01 00 63 	mov.w	#0x63,r1
    60b2:	19 41       	sub.w	r4,r1
    60b4:	79 00 00 03 	mov.w	#0x3,r0
    60b8:	5e 00 60 0a 	jsr	@0x600a:24
	...
    60c4:	7a 03 00 10 	mov.l	#0x100000,er3
    60c8:	00 00 
    60ca:	fa 04       	mov.b	#0x4,r2l
    60cc:	68 ba       	mov.b	r2l,@r3
    60ce:	19 00       	sub.w	r0,r0
	...
    60d8:	7a 03 00 10 	mov.l	#0x100001,er3
    60dc:	00 01 
    60de:	6c 5a       	mov.b	@r5+,r2l
    60e0:	68 ba       	mov.b	r2l,@r3
    60e2:	0b 00       	adds	#1,r0
    60e4:	79 20 00 27 	cmp.w	#0x27,r0
    60e8:	43 e6       	bls	.-26 (0x60d0)
    60ea:	0b 04       	adds	#1,r4
    60ec:	79 24 00 63 	cmp.w	#0x63,r4
    60f0:	43 b2       	bls	.-78 (0x60a4)
    60f2:	79 01 00 59 	mov.w	#0x59,r1
    60f6:	19 00       	sub.w	r0,r0
    60f8:	5e 00 60 0a 	jsr	@0x600a:24
    60fc:	01 10 6d 75 	ldm.l	@sp+,er4-er5
    6100:	54 70       	rts	
    6102:	1b 97       	subs	#4,r7
    6104:	1a a2       	sub.l	er2,er2
    6106:	40 06       	bra	.+6 (0x610e)
    6108:	01 00 69 72 	mov.l	@r7,er2
    610c:	0b 02       	adds	#1,r2
    610e:	01 00 69 f2 	mov.l	er2,@r7
    6112:	01 00 69 72 	mov.l	@r7,er2
    6116:	7a 22 00 00 	cmp.l	#0x1387,er2
    611a:	13 87 
    611c:	4f ea       	ble	.-22 (0x6108)
    611e:	0b 97       	adds	#4,r7
    6120:	54 70       	rts	
    6122:	6e 18 00 01 	mov.b	@(0x1:16,r1),r0l
    6126:	0c 80       	mov.b	r0l,r0h
    6128:	18 88       	sub.b	r0l,r0l
    612a:	68 1a       	mov.b	@r1,r2l
    612c:	f2 00       	mov.b	#0x0,r2h
    612e:	64 20       	or.w	r2,r0
    6130:	54 70       	rts	
    6132:	01 10 6d f4 	stm.l	er4-er5,@-sp
    6136:	0f 94       	mov.l	er1,er4
    6138:	6e 4a 00 03 	mov.b	@(0x3:16,r4),r2l
    613c:	f2 00       	mov.b	#0x0,r2h
    613e:	0d 21       	mov.w	r2,r1
    6140:	17 71       	extu.l	er1
    6142:	79 00 00 02 	mov.w	#0x2,r0
    6146:	10 71       	shll.l	#2,er1
    6148:	10 71       	shll.l	#2,er1
    614a:	10 71       	shll.l	#2,er1
    614c:	10 71       	shll.l	#2,er1
    614e:	0d 03       	mov.w	r0,r3
    6150:	17 f3       	exts.l	er3
    6152:	0f c2       	mov.l	er4,er2
    6154:	0a b2       	add.l	er3,er2
    6156:	68 2a       	mov.b	@r2,r2l
    6158:	f2 00       	mov.b	#0x0,r2h
    615a:	17 72       	extu.l	er2
    615c:	01 f0 64 21 	or.l	er2,er1
    6160:	1b 00       	subs	#1,r0
    6162:	0d 00       	mov.w	r0,r0
    6164:	4c e0       	bge	.-32 (0x6146)
    6166:	0f 90       	mov.l	er1,er0
    6168:	01 10 6d 75 	ldm.l	@sp+,er4-er5
    616c:	54 70       	rts	
    616e:	1b 97       	subs	#4,r7
    6170:	1b 97       	subs	#4,r7
    6172:	01 20 6d f4 	stm.l	er4-er6,@-sp
    6176:	01 00 6f f0 	mov.l	er0,@(0xc:16,r7)
    617a:	00 0c 
    617c:	18 aa       	sub.b	r2l,r2l
    617e:	6e 8a 00 0c 	mov.b	r2l,@(0xc:16,r0)
    6182:	01 00 6f 71 	mov.l	@(0xc:16,r7),er1
    6186:	00 0c 
    6188:	6e 9a 00 0d 	mov.b	r2l,@(0xd:16,r1)
    618c:	19 33       	sub.w	r3,r3
    618e:	6f 93 00 02 	mov.w	r3,@(0x2:16,r1)
    6192:	7a 05 00 20 	mov.l	#0x200003,er5
    6196:	00 03 
    6198:	f9 05       	mov.b	#0x5,r1l
    619a:	68 d9       	mov.b	r1l,@r5
	...
    61a4:	7a 04 00 20 	mov.l	#0x200000,er4
    61a8:	00 00 
    61aa:	68 cb       	mov.b	r3l,@r4
    61ac:	fe 04       	mov.b	#0x4,r6l
    61ae:	68 de       	mov.b	r6l,@r5
	...
    61b8:	68 cb       	mov.b	r3l,@r4
    61ba:	fa 20       	mov.b	#0x20,r2l
    61bc:	68 da       	mov.b	r2l,@r5
	...
    61c6:	68 cb       	mov.b	r3l,@r4
    61c8:	fa 23       	mov.b	#0x23,r2l
    61ca:	fb 08       	mov.b	#0x8,r3l
    61cc:	68 da       	mov.b	r2l,@r5
	...
    61d6:	68 cb       	mov.b	r3l,@r4
    61d8:	fa 27       	mov.b	#0x27,r2l
    61da:	fb 01       	mov.b	#0x1,r3l
    61dc:	68 da       	mov.b	r2l,@r5
	...
    61e6:	68 cb       	mov.b	r3l,@r4
    61e8:	01 00 6f 70 	mov.l	@(0xc:16,r7),er0
    61ec:	00 0c 
    61ee:	5e 00 6d 98 	jsr	@0x6d98:24
    61f2:	01 00 6f 70 	mov.l	@(0xc:16,r7),er0
    61f6:	00 0c 
    61f8:	5e 00 6f e6 	jsr	@0x6fe6:24
    61fc:	fa 80       	mov.b	#0x80,r2l
    61fe:	68 de       	mov.b	r6l,@r5
	...
    6208:	68 ca       	mov.b	r2l,@r4
    620a:	fa 02       	mov.b	#0x2,r2l
    620c:	f9 05       	mov.b	#0x5,r1l
    620e:	68 d9       	mov.b	r1l,@r5
	...
    6218:	68 ca       	mov.b	r2l,@r4
    621a:	01 20 6d 76 	ldm.l	@sp+,er4-er6
    621e:	0b 97       	adds	#4,r7
    6220:	0b 97       	adds	#4,r7
    6222:	54 70       	rts	
    6224:	1b 97       	subs	#4,r7
    6226:	01 10 6d f4 	stm.l	er4-er5,@-sp
    622a:	18 99       	sub.b	r1l,r1l
    622c:	68 89       	mov.b	r1l,@r0
    622e:	6a 38 00 ff 	bclr	#0x1,@0xffff2e:32
    6232:	ff 2e 72 10 
    6236:	fa 01       	mov.b	#0x1,r2l
    6238:	7a 05 00 20 	mov.l	#0x200003,er5
    623c:	00 03 
    623e:	68 d9       	mov.b	r1l,@r5
	...
    6248:	7a 04 00 20 	mov.l	#0x200000,er4
    624c:	00 00 
    624e:	68 ca       	mov.b	r2l,@r4
    6250:	fa c0       	mov.b	#0xc0,r2l
    6252:	68 d9       	mov.b	r1l,@r5
	...
    625c:	68 ca       	mov.b	r2l,@r4
    625e:	fa 0f       	mov.b	#0xf,r2l
    6260:	fb 32       	mov.b	#0x32,r3l
    6262:	68 da       	mov.b	r2l,@r5
	...
    626c:	68 cb       	mov.b	r3l,@r4
    626e:	fa 0d       	mov.b	#0xd,r2l
    6270:	fb 03       	mov.b	#0x3,r3l
    6272:	68 da       	mov.b	r2l,@r5
	...
    627c:	68 cb       	mov.b	r3l,@r4
    627e:	fa 0b       	mov.b	#0xb,r2l
    6280:	68 da       	mov.b	r2l,@r5
	...
    628a:	68 cb       	mov.b	r3l,@r4
    628c:	fa 09       	mov.b	#0x9,r2l
    628e:	fb 50       	mov.b	#0x50,r3l
    6290:	68 da       	mov.b	r2l,@r5
	...
    629a:	68 cb       	mov.b	r3l,@r4
    629c:	fa 07       	mov.b	#0x7,r2l
    629e:	fb d6       	mov.b	#0xd6,r3l
    62a0:	68 da       	mov.b	r2l,@r5
	...
    62aa:	68 cb       	mov.b	r3l,@r4
    62ac:	01 00 6f f1 	mov.l	er1,@(0x8:16,r7)
    62b0:	00 08 
    62b2:	5e 00 61 6e 	jsr	@0x616e:24
    62b6:	fa c8       	mov.b	#0xc8,r2l
    62b8:	01 00 6f 71 	mov.l	@(0x8:16,r7),er1
    62bc:	00 08 
    62be:	68 d9       	mov.b	r1l,@r5
	...
    62c8:	68 ca       	mov.b	r2l,@r4
    62ca:	01 10 6d 75 	ldm.l	@sp+,er4-er5
    62ce:	0b 97       	adds	#4,r7
    62d0:	54 70       	rts	
    62d2:	68 08       	mov.b	@r0,r0l
    62d4:	54 70       	rts	
    62d6:	18 bb       	sub.b	r3l,r3l
    62d8:	6f 02 00 02 	mov.w	@(0x2:16,r0),r2
    62dc:	47 02       	beq	.+2 (0x62e0)
    62de:	fb 01       	mov.b	#0x1,r3l
    62e0:	0c b8       	mov.b	r3l,r0l
    62e2:	54 70       	rts	
    62e4:	18 bb       	sub.b	r3l,r3l
    62e6:	68 8b       	mov.b	r3l,@r0
    62e8:	f8 c8       	mov.b	#0xc8,r0l
    62ea:	7a 02 00 20 	mov.l	#0x200003,er2
    62ee:	00 03 
    62f0:	68 ab       	mov.b	r3l,@r2
	...
    62fa:	6a a8 00 20 	mov.b	r0l,@0x200000:32
    62fe:	00 00 
    6300:	54 70       	rts	
    6302:	18 aa       	sub.b	r2l,r2l
    6304:	f8 c0       	mov.b	#0xc0,r0l
    6306:	7a 03 00 20 	mov.l	#0x200003,er3
    630a:	00 03 
    630c:	68 ba       	mov.b	r2l,@r3
	...
    6316:	6a a8 00 20 	mov.b	r0l,@0x200000:32
    631a:	00 00 
    631c:	54 70       	rts	
    631e:	fa 08       	mov.b	#0x8,r2l
    6320:	7a 01 00 20 	mov.l	#0x200003,er1
    6324:	00 03 
    6326:	68 9a       	mov.b	r2l,@r1
	...
    6330:	6a 2a 00 20 	mov.b	@0x200000:32,r2l
    6334:	00 00 
    6336:	73 6a       	btst	#0x6,r2l
    6338:	47 36       	beq	.+54 (0x6370)
    633a:	fa 01       	mov.b	#0x1,r2l
    633c:	68 8a       	mov.b	r2l,@r0
    633e:	5e 00 61 6e 	jsr	@0x616e:24
    6342:	7a 00 00 ff 	mov.l	#0xfff46c,er0
    6346:	f4 6c 
    6348:	7a 01 01 00 	mov.l	#0x1000000,er1
    634c:	00 00 
    634e:	5e 00 71 16 	jsr	@0x7116:24
    6352:	5e 00 61 02 	jsr	@0x6102:24
    6356:	fa 09       	mov.b	#0x9,r2l
    6358:	fb d0       	mov.b	#0xd0,r3l
    635a:	6a aa 00 20 	mov.b	r2l,@0x200003:32
    635e:	00 03 
	...
    6368:	6a ab 00 20 	mov.b	r3l,@0x200000:32
    636c:	00 00 
    636e:	40 72       	bra	.+114 (0x63e2)
    6370:	73 4a       	btst	#0x4,r2l
    6372:	47 34       	beq	.+52 (0x63a8)
    6374:	fa 09       	mov.b	#0x9,r2l
    6376:	f8 c0       	mov.b	#0xc0,r0l
    6378:	68 9a       	mov.b	r2l,@r1
	...
    6382:	7a 03 00 20 	mov.l	#0x200000,er3
    6386:	00 00 
    6388:	68 b8       	mov.b	r0l,@r3
    638a:	fa 05       	mov.b	#0x5,r2l
    638c:	f8 03       	mov.b	#0x3,r0l
    638e:	68 9a       	mov.b	r2l,@r1
	...
    6398:	68 b8       	mov.b	r0l,@r3
    639a:	7a 00 00 ff 	mov.l	#0xfff46c,er0
    639e:	f4 6c 
    63a0:	7a 01 01 01 	mov.l	#0x1010000,er1
    63a4:	00 00 
    63a6:	40 36       	bra	.+54 (0x63de)
    63a8:	0c aa       	mov.b	r2l,r2l
    63aa:	4c 36       	bge	.+54 (0x63e2)
    63ac:	fa 09       	mov.b	#0x9,r2l
    63ae:	f8 50       	mov.b	#0x50,r0l
    63b0:	68 9a       	mov.b	r2l,@r1
	...
    63ba:	7a 03 00 20 	mov.l	#0x200000,er3
    63be:	00 00 
    63c0:	68 b8       	mov.b	r0l,@r3
    63c2:	fa 05       	mov.b	#0x5,r2l
    63c4:	f8 02       	mov.b	#0x2,r0l
    63c6:	68 9a       	mov.b	r2l,@r1
	...
    63d0:	68 b8       	mov.b	r0l,@r3
    63d2:	7a 00 00 ff 	mov.l	#0xfff46c,er0
    63d6:	f4 6c 
    63d8:	7a 01 01 02 	mov.l	#0x1020000,er1
    63dc:	00 00 
    63de:	5e 00 71 16 	jsr	@0x7116:24
    63e2:	54 70       	rts	
    63e4:	01 20 6d f4 	stm.l	er4-er6,@-sp
    63e8:	0f 84       	mov.l	er0,er4
    63ea:	7a 06 00 ff 	mov.l	#0xfff46c,er6
    63ee:	f4 6c 
    63f0:	7a 01 02 00 	mov.l	#0x2000000,er1
    63f4:	00 00 
    63f6:	0f e0       	mov.l	er6,er0
    63f8:	5e 00 71 16 	jsr	@0x7116:24
    63fc:	6e 4d 00 07 	mov.b	@(0x7:16,r4),r5l
    6400:	f5 00       	mov.b	#0x0,r5h
    6402:	79 25 00 02 	cmp.w	#0x2,r5
    6406:	47 2c       	beq	.+44 (0x6434)
    6408:	58 e0 00 a4 	bgt	.+164 (0x64b0)
    640c:	79 25 00 01 	cmp.w	#0x1,r5
    6410:	58 60 00 9c 	bne	.+156 (0x64b0)
    6414:	7a 01 02 01 	mov.l	#0x2010000,er1
    6418:	00 00 
    641a:	0f e0       	mov.l	er6,er0
    641c:	5e 00 71 16 	jsr	@0x7116:24
    6420:	6e cd 00 0d 	mov.b	r5l,@(0xd:16,r4)
    6424:	79 02 00 12 	mov.w	#0x12,r2
    6428:	6f c2 00 16 	mov.w	r2,@(0x16:16,r4)
    642c:	7a 02 00 00 	mov.l	#0x47fc,er2
    6430:	47 fc 
    6432:	40 20       	bra	.+32 (0x6454)
    6434:	7a 01 02 02 	mov.l	#0x2020000,er1
    6438:	00 00 
    643a:	0f e0       	mov.l	er6,er0
    643c:	5e 00 71 16 	jsr	@0x7116:24
    6440:	fa 01       	mov.b	#0x1,r2l
    6442:	6e ca 00 0d 	mov.b	r2l,@(0xd:16,r4)
    6446:	79 02 00 20 	mov.w	#0x20,r2
    644a:	6f c2 00 16 	mov.w	r2,@(0x16:16,r4)
    644e:	7a 02 00 00 	mov.l	#0x480e,er2
    6452:	48 0e 
    6454:	01 00 6f c2 	mov.l	er2,@(0x10:16,r4)
    6458:	00 10 
    645a:	6e 4b 00 0a 	mov.b	@(0xa:16,r4),r3l
    645e:	f3 00       	mov.b	#0x0,r3h
    6460:	6f 42 00 16 	mov.w	@(0x16:16,r4),r2
    6464:	1d 32       	cmp.w	r3,r2
    6466:	4f 04       	ble	.+4 (0x646c)
    6468:	6f c3 00 16 	mov.w	r3,@(0x16:16,r4)
    646c:	19 22       	sub.w	r2,r2
    646e:	6f c2 00 14 	mov.w	r2,@(0x14:16,r4)
    6472:	6f 43 00 14 	mov.w	@(0x14:16,r4),r3
    6476:	6f 42 00 16 	mov.w	@(0x16:16,r4),r2
    647a:	1d 23       	cmp.w	r2,r3
    647c:	4c 32       	bge	.+50 (0x64b0)
    647e:	17 f3       	exts.l	er3
    6480:	01 00 6f 42 	mov.l	@(0x10:16,r4),er2
    6484:	00 10 
    6486:	0a b2       	add.l	er3,er2
    6488:	fb 21       	mov.b	#0x21,r3l
    648a:	68 2a       	mov.b	@r2,r2l
    648c:	6a ab 00 20 	mov.b	r3l,@0x200003:32
    6490:	00 03 
	...
    649a:	6a aa 00 20 	mov.b	r2l,@0x200000:32
    649e:	00 00 
    64a0:	6f 42 00 14 	mov.w	@(0x14:16,r4),r2
    64a4:	0b 02       	adds	#1,r2
    64a6:	6f c2 00 14 	mov.w	r2,@(0x14:16,r4)
    64aa:	79 22 00 07 	cmp.w	#0x7,r2
    64ae:	4f c2       	ble	.-62 (0x6472)
    64b0:	01 20 6d 76 	ldm.l	@sp+,er4-er6
    64b4:	54 70       	rts	
    64b6:	01 00 6d f4 	mov.l	er4,@-r7
    64ba:	0f 84       	mov.l	er0,er4
    64bc:	6e 4a 00 06 	mov.b	@(0x6:16,r4),r2l
    64c0:	f2 00       	mov.b	#0x0,r2h
    64c2:	6f c2 00 02 	mov.w	r2,@(0x2:16,r4)
    64c6:	0d 21       	mov.w	r2,r1
    64c8:	17 f1       	exts.l	er1
    64ca:	7a 00 00 ff 	mov.l	#0xfff46c,er0
    64ce:	f4 6c 
    64d0:	7a 11 02 08 	add.l	#0x2080000,er1
    64d4:	00 00 
    64d6:	5e 00 71 16 	jsr	@0x7116:24
    64da:	6f 42 00 02 	mov.w	@(0x2:16,r4),r2
    64de:	47 14       	beq	.+20 (0x64f4)
    64e0:	18 aa       	sub.b	r2l,r2l
    64e2:	6e ca 00 0c 	mov.b	r2l,@(0xc:16,r4)
    64e6:	0f c0       	mov.l	er4,er0
    64e8:	5e 00 70 1e 	jsr	@0x701e:24
    64ec:	0f c0       	mov.l	er4,er0
    64ee:	5e 00 6d d8 	jsr	@0x6dd8:24
    64f2:	40 0c       	bra	.+12 (0x6500)
    64f4:	0f c0       	mov.l	er4,er0
    64f6:	5e 00 6f e6 	jsr	@0x6fe6:24
    64fa:	0f c0       	mov.l	er4,er0
    64fc:	5e 00 6d 98 	jsr	@0x6d98:24
    6500:	01 00 6d 74 	mov.l	@r7+,er4
    6504:	54 70       	rts	
    6506:	01 00 6d f4 	mov.l	er4,@-r7
    650a:	0f 84       	mov.l	er0,er4
    650c:	6e 49 00 04 	mov.b	@(0x4:16,r4),r1l
    6510:	7a 61 02 09 	and.l	#0x20900ff,er1
    6514:	00 ff 
    6516:	7a 00 00 ff 	mov.l	#0xfff46c,er0
    651a:	f4 6c 
    651c:	7a 41 02 09 	or.l	#0x2090000,er1
    6520:	00 00 
    6522:	5e 00 71 16 	jsr	@0x7116:24
    6526:	01 00 6f 42 	mov.l	@(0x4:16,r4),er2
    652a:	00 04 
    652c:	7a 62 1f 00 	and.l	#0x1f00ff00,er2
    6530:	ff 00 
    6532:	7a 22 02 00 	cmp.l	#0x2000000,er2
    6536:	00 00 
    6538:	46 22       	bne	.+34 (0x655c)
    653a:	6e 4a 00 08 	mov.b	@(0x8:16,r4),r2l
    653e:	ea 8f       	and.b	#0x8f,r2l
    6540:	e2 00       	and.b	#0x0,r2h
    6542:	79 22 00 02 	cmp.w	#0x2,r2
    6546:	47 0e       	beq	.+14 (0x6556)
    6548:	79 22 00 81 	cmp.w	#0x81,r2
    654c:	46 0e       	bne	.+14 (0x655c)
    654e:	0f c0       	mov.l	er4,er0
    6550:	5e 00 70 1e 	jsr	@0x701e:24
    6554:	40 06       	bra	.+6 (0x655c)
    6556:	0f c0       	mov.l	er4,er0
    6558:	5e 00 6d d8 	jsr	@0x6dd8:24
    655c:	01 00 6d 74 	mov.l	@r7+,er4
    6560:	54 70       	rts	
    6562:	01 00 6d f4 	mov.l	er4,@-r7
    6566:	0f 84       	mov.l	er0,er4
    6568:	6e 49 00 04 	mov.b	@(0x4:16,r4),r1l
    656c:	7a 61 02 0a 	and.l	#0x20a00ff,er1
    6570:	00 ff 
    6572:	7a 00 00 ff 	mov.l	#0xfff46c,er0
    6576:	f4 6c 
    6578:	7a 41 02 0a 	or.l	#0x20a0000,er1
    657c:	00 00 
    657e:	5e 00 71 16 	jsr	@0x7116:24
    6582:	01 00 6f 42 	mov.l	@(0x4:16,r4),er2
    6586:	00 04 
    6588:	7a 62 1f 00 	and.l	#0x1f00ff00,er2
    658c:	ff 00 
    658e:	7a 22 02 00 	cmp.l	#0x2000000,er2
    6592:	00 00 
    6594:	46 26       	bne	.+38 (0x65bc)
    6596:	6e 4a 00 08 	mov.b	@(0x8:16,r4),r2l
    659a:	ea 8f       	and.b	#0x8f,r2l
    659c:	e2 00       	and.b	#0x0,r2h
    659e:	79 22 00 02 	cmp.w	#0x2,r2
    65a2:	47 10       	beq	.+16 (0x65b4)
    65a4:	79 22 00 81 	cmp.w	#0x81,r2
    65a8:	46 12       	bne	.+18 (0x65bc)
    65aa:	f9 01       	mov.b	#0x1,r1l
    65ac:	0f c0       	mov.l	er4,er0
    65ae:	5e 00 70 88 	jsr	@0x7088:24
    65b2:	40 08       	bra	.+8 (0x65bc)
    65b4:	f9 01       	mov.b	#0x1,r1l
    65b6:	0f c0       	mov.l	er4,er0
    65b8:	5e 00 6e 60 	jsr	@0x6e60:24
    65bc:	01 00 6d 74 	mov.l	@r7+,er4
    65c0:	54 70       	rts	
    65c2:	01 20 6d f4 	stm.l	er4-er6,@-sp
    65c6:	0f 85       	mov.l	er0,er5
    65c8:	fa 26       	mov.b	#0x26,r2l
    65ca:	6a aa 00 20 	mov.b	r2l,@0x200003:32
    65ce:	00 03 
	...
    65d8:	6a 2b 00 20 	mov.b	@0x200000:32,r3l
    65dc:	00 00 
    65de:	73 6b       	btst	#0x6,r3l
    65e0:	58 70 01 0c 	beq	.+268 (0x66f0)
    65e4:	19 11       	sub.w	r1,r1
    65e6:	fa 25       	mov.b	#0x25,r2l
    65e8:	7a 06 00 20 	mov.l	#0x200003,er6
    65ec:	00 03 
    65ee:	68 ea       	mov.b	r2l,@r6
	...
    65f8:	6a 28 00 20 	mov.b	@0x200000:32,r0l
    65fc:	00 00 
    65fe:	f0 00       	mov.b	#0x0,r0h
    6600:	0d 13       	mov.w	r1,r3
    6602:	17 f3       	exts.l	er3
    6604:	0f d4       	mov.l	er5,er4
    6606:	0b 94       	adds	#4,r4
    6608:	0f c2       	mov.l	er4,er2
    660a:	0a b2       	add.l	er3,er2
    660c:	68 a8       	mov.b	r0l,@r2
    660e:	0b 01       	adds	#1,r1
    6610:	79 21 00 07 	cmp.w	#0x7,r1
    6614:	4f d0       	ble	.-48 (0x65e6)
    6616:	fa 23       	mov.b	#0x23,r2l
    6618:	f8 08       	mov.b	#0x8,r0l
    661a:	68 ea       	mov.b	r2l,@r6
	...
    6624:	7a 03 00 20 	mov.l	#0x200000,er3
    6628:	00 00 
    662a:	68 b8       	mov.b	r0l,@r3
    662c:	fa 27       	mov.b	#0x27,r2l
    662e:	18 88       	sub.b	r0l,r0l
    6630:	68 ea       	mov.b	r2l,@r6
	...
    663a:	68 b8       	mov.b	r0l,@r3
    663c:	68 4a       	mov.b	@r4,r2l
    663e:	ea 60       	and.b	#0x60,r2l
    6640:	58 60 00 8c 	bne	.+140 (0x66d0)
    6644:	6e 5b 00 05 	mov.b	@(0x5:16,r5),r3l
    6648:	f3 00       	mov.b	#0x0,r3h
    664a:	0d 32       	mov.w	r3,r2
    664c:	1b 02       	subs	#1,r2
    664e:	79 22 00 08 	cmp.w	#0x8,r2
    6652:	42 66       	bhi	.+102 (0x66ba)
    6654:	17 72       	extu.l	er2
    6656:	10 72       	shll.l	#2,er2
    6658:	01 00 78 20 	mov.l	@(0x47d8:32,r2),er2
    665c:	6b 22 00 00 
    6660:	47 d8 
    6662:	59 20       	jmp	@r2
    6664:	40 54       	bra	.+84 (0x66ba)
    6666:	0f d0       	mov.l	er5,er0
    6668:	5e 00 63 e4 	jsr	@0x63e4:24
    666c:	40 62       	bra	.+98 (0x66d0)
    666e:	fa 20       	mov.b	#0x20,r2l
    6670:	f8 40       	mov.b	#0x40,r0l
    6672:	7a 03 00 20 	mov.l	#0x200003,er3
    6676:	00 03 
    6678:	68 ba       	mov.b	r2l,@r3
	...
    6682:	6a a8 00 20 	mov.b	r0l,@0x200000:32
    6686:	00 00 
    6688:	6e 58 00 06 	mov.b	@(0x6:16,r5),r0l
    668c:	c8 80       	or.b	#0x80,r0l
    668e:	fa 04       	mov.b	#0x4,r2l
    6690:	68 ba       	mov.b	r2l,@r3
	...
    669a:	6a a8 00 20 	mov.b	r0l,@0x200000:32
    669e:	00 00 
    66a0:	40 2e       	bra	.+46 (0x66d0)
    66a2:	0f d0       	mov.l	er5,er0
    66a4:	5e 00 64 b6 	jsr	@0x64b6:24
    66a8:	40 26       	bra	.+38 (0x66d0)
    66aa:	0f d0       	mov.l	er5,er0
    66ac:	5e 00 65 06 	jsr	@0x6506:24
    66b0:	40 1e       	bra	.+30 (0x66d0)
    66b2:	0f d0       	mov.l	er5,er0
    66b4:	5e 00 65 62 	jsr	@0x6562:24
    66b8:	40 16       	bra	.+22 (0x66d0)
    66ba:	01 00 6d f3 	mov.l	er3,@-r7
    66be:	7a 02 00 00 	mov.l	#0x47b4,er2
    66c2:	47 b4 
    66c4:	01 00 6d f2 	mov.l	er2,@-r7
    66c8:	5e 00 5a 20 	jsr	@0x5a20:24
    66cc:	0b 97       	adds	#4,r7
    66ce:	0b 97       	adds	#4,r7
    66d0:	fa 23       	mov.b	#0x23,r2l
    66d2:	fb 05       	mov.b	#0x5,r3l
    66d4:	6a aa 00 20 	mov.b	r2l,@0x200003:32
    66d8:	00 03 
	...
    66e2:	6a ab 00 20 	mov.b	r3l,@0x200000:32
    66e6:	00 00 
    66e8:	18 aa       	sub.b	r2l,r2l
    66ea:	6e da 00 0c 	mov.b	r2l,@(0xc:16,r5)
    66ee:	40 5a       	bra	.+90 (0x674a)
    66f0:	6e 5a 00 0d 	mov.b	@(0xd:16,r5),r2l
    66f4:	47 3c       	beq	.+60 (0x6732)
    66f6:	eb 1f       	and.b	#0x1f,r3l
    66f8:	7a 00 00 ff 	mov.l	#0xfff46c,er0
    66fc:	f4 6c 
    66fe:	ab 10       	cmp.b	#0x10,r3l
    6700:	47 08       	beq	.+8 (0x670a)
    6702:	7a 01 02 03 	mov.l	#0x203ffff,er1
    6706:	ff ff 
    6708:	40 06       	bra	.+6 (0x6710)
    670a:	7a 01 02 04 	mov.l	#0x2040000,er1
    670e:	00 00 
    6710:	5e 00 71 16 	jsr	@0x7116:24
    6714:	18 aa       	sub.b	r2l,r2l
    6716:	6e da 00 0d 	mov.b	r2l,@(0xd:16,r5)
    671a:	fa 23       	mov.b	#0x23,r2l
    671c:	fb 08       	mov.b	#0x8,r3l
    671e:	6a aa 00 20 	mov.b	r2l,@0x200003:32
    6722:	00 03 
	...
    672c:	6a ab 00 20 	mov.b	r3l,@0x200000:32
    6730:	00 00 
    6732:	fa 27       	mov.b	#0x27,r2l
    6734:	fb 01       	mov.b	#0x1,r3l
    6736:	6a aa 00 20 	mov.b	r2l,@0x200003:32
    673a:	00 03 
	...
    6744:	6a ab 00 20 	mov.b	r3l,@0x200000:32
    6748:	00 00 
    674a:	01 20 6d 76 	ldm.l	@sp+,er4-er6
    674e:	54 70       	rts	
    6750:	01 00 6d f4 	mov.l	er4,@-r7
    6754:	0f 84       	mov.l	er0,er4
    6756:	7a 00 00 ff 	mov.l	#0xfff46c,er0
    675a:	f4 6c 
    675c:	7a 01 02 05 	mov.l	#0x2050000,er1
    6760:	00 00 
    6762:	5e 00 71 16 	jsr	@0x7116:24
    6766:	6e 4a 00 0d 	mov.b	@(0xd:16,r4),r2l
    676a:	47 32       	beq	.+50 (0x679e)
    676c:	18 aa       	sub.b	r2l,r2l
    676e:	6e ca 00 0d 	mov.b	r2l,@(0xd:16,r4)
    6772:	fa 23       	mov.b	#0x23,r2l
    6774:	f8 08       	mov.b	#0x8,r0l
    6776:	7a 01 00 20 	mov.l	#0x200003,er1
    677a:	00 03 
    677c:	68 9a       	mov.b	r2l,@r1
	...
    6786:	7a 03 00 20 	mov.l	#0x200000,er3
    678a:	00 00 
    678c:	68 b8       	mov.b	r0l,@r3
    678e:	fa 27       	mov.b	#0x27,r2l
    6790:	f8 01       	mov.b	#0x1,r0l
    6792:	68 9a       	mov.b	r2l,@r1
	...
    679c:	68 b8       	mov.b	r0l,@r3
    679e:	01 00 6d 74 	mov.l	@r7+,er4
    67a2:	54 70       	rts	
    67a4:	fa 22       	mov.b	#0x22,r2l
    67a6:	7a 01 00 20 	mov.l	#0x200003,er1
    67aa:	00 03 
    67ac:	68 9a       	mov.b	r2l,@r1
	...
    67b6:	6a 2a 00 20 	mov.b	@0x200000:32,r2l
    67ba:	00 00 
    67bc:	ea 60       	and.b	#0x60,r2l
    67be:	aa 60       	cmp.b	#0x60,r2l
    67c0:	58 60 00 d8 	bne	.+216 (0x689c)
    67c4:	fa 23       	mov.b	#0x23,r2l
    67c6:	fb 08       	mov.b	#0x8,r3l
    67c8:	6a aa 00 20 	mov.b	r2l,@0x200003:32
    67cc:	00 03 
	...
    67d6:	6a ab 00 20 	mov.b	r3l,@0x200000:32
    67da:	00 00 
    67dc:	6e 0a 00 0d 	mov.b	@(0xd:16,r0),r2l
    67e0:	58 70 00 a2 	beq	.+162 (0x6886)
    67e4:	6f 03 00 14 	mov.w	@(0x14:16,r0),r3
    67e8:	0d 31       	mov.w	r3,r1
    67ea:	0b 91       	adds	#4,r1
    67ec:	0b 91       	adds	#4,r1
    67ee:	1d 13       	cmp.w	r1,r3
    67f0:	4c 3e       	bge	.+62 (0x6830)
    67f2:	6f 02 00 16 	mov.w	@(0x16:16,r0),r2
    67f6:	1d 23       	cmp.w	r2,r3
    67f8:	4c 36       	bge	.+54 (0x6830)
    67fa:	6f 03 00 14 	mov.w	@(0x14:16,r0),r3
    67fe:	17 f3       	exts.l	er3
    6800:	01 00 6f 02 	mov.l	@(0x10:16,r0),er2
    6804:	00 10 
    6806:	0a b2       	add.l	er3,er2
    6808:	fb 21       	mov.b	#0x21,r3l
    680a:	68 2a       	mov.b	@r2,r2l
    680c:	6a ab 00 20 	mov.b	r3l,@0x200003:32
    6810:	00 03 
	...
    681a:	6a aa 00 20 	mov.b	r2l,@0x200000:32
    681e:	00 00 
    6820:	6f 02 00 14 	mov.w	@(0x14:16,r0),r2
    6824:	0b 02       	adds	#1,r2
    6826:	6f 82 00 14 	mov.w	r2,@(0x14:16,r0)
    682a:	0d 23       	mov.w	r2,r3
    682c:	1d 13       	cmp.w	r1,r3
    682e:	4d c2       	blt	.-62 (0x67f2)
    6830:	6e 0a 00 0c 	mov.b	@(0xc:16,r0),r2l
    6834:	47 20       	beq	.+32 (0x6856)
    6836:	fa 23       	mov.b	#0x23,r2l
    6838:	fb 05       	mov.b	#0x5,r3l
    683a:	6a aa 00 20 	mov.b	r2l,@0x200003:32
    683e:	00 03 
	...
    6848:	6a ab 00 20 	mov.b	r3l,@0x200000:32
    684c:	00 00 
    684e:	18 aa       	sub.b	r2l,r2l
    6850:	6e 8a 00 0c 	mov.b	r2l,@(0xc:16,r0)
    6854:	40 1c       	bra	.+28 (0x6872)
    6856:	fa 23       	mov.b	#0x23,r2l
    6858:	fb 01       	mov.b	#0x1,r3l
    685a:	6a aa 00 20 	mov.b	r2l,@0x200003:32
    685e:	00 03 
	...
    6868:	6a ab 00 20 	mov.b	r3l,@0x200000:32
    686c:	00 00 
    686e:	6e 8b 00 0c 	mov.b	r3l,@(0xc:16,r0)
    6872:	6f 01 00 14 	mov.w	@(0x14:16,r0),r1
    6876:	17 f1       	exts.l	er1
    6878:	7a 00 00 ff 	mov.l	#0xfff46c,er0
    687c:	f4 6c 
    687e:	7a 11 02 06 	add.l	#0x2060000,er1
    6882:	00 00 
    6884:	40 22       	bra	.+34 (0x68a8)
    6886:	fa 27       	mov.b	#0x27,r2l
    6888:	fb 01       	mov.b	#0x1,r3l
    688a:	68 9a       	mov.b	r2l,@r1
	...
    6894:	6a ab 00 20 	mov.b	r3l,@0x200000:32
    6898:	00 00 
    689a:	40 10       	bra	.+16 (0x68ac)
    689c:	7a 00 00 ff 	mov.l	#0xfff46c,er0
    68a0:	f4 6c 
    68a2:	7a 01 02 07 	mov.l	#0x207ffff,er1
    68a6:	ff ff 
    68a8:	5e 00 71 16 	jsr	@0x7116:24
    68ac:	54 70       	rts	
    68ae:	01 10 6d f4 	stm.l	er4-er5,@-sp
    68b2:	0f 84       	mov.l	er0,er4
    68b4:	fa 06       	mov.b	#0x6,r2l
    68b6:	7a 03 00 20 	mov.l	#0x200003,er3
    68ba:	00 03 
    68bc:	68 ba       	mov.b	r2l,@r3
	...
    68c6:	6a 2d 00 20 	mov.b	@0x200000:32,r5l
    68ca:	00 00 
    68cc:	0c da       	mov.b	r5l,r2l
    68ce:	ea 56       	and.b	#0x56,r2l
    68d0:	58 70 00 b2 	beq	.+178 (0x6986)
    68d4:	73 4d       	btst	#0x4,r5l
    68d6:	47 40       	beq	.+64 (0x6918)
    68d8:	fa 0e       	mov.b	#0xe,r2l
    68da:	68 ba       	mov.b	r2l,@r3
	...
    68e4:	6a 29 00 20 	mov.b	@0x200000:32,r1l
    68e8:	00 00 
    68ea:	73 49       	btst	#0x4,r1l
    68ec:	47 08       	beq	.+8 (0x68f6)
    68ee:	0f c0       	mov.l	er4,er0
    68f0:	5e 00 67 50 	jsr	@0x6750:24
    68f4:	40 22       	bra	.+34 (0x6918)
    68f6:	73 19       	btst	#0x1,r1l
    68f8:	47 08       	beq	.+8 (0x6902)
    68fa:	0f c0       	mov.l	er4,er0
    68fc:	5e 00 6f 08 	jsr	@0x6f08:24
    6900:	40 16       	bra	.+22 (0x6918)
    6902:	7a 61 08 00 	and.l	#0x80000ff,er1
    6906:	00 ff 
    6908:	7a 41 08 00 	or.l	#0x8000000,er1
    690c:	00 00 
    690e:	7a 00 00 ff 	mov.l	#0xfff46c,er0
    6912:	f4 6c 
    6914:	5e 00 71 16 	jsr	@0x7116:24
    6918:	73 6d       	btst	#0x6,r5l
    691a:	47 2a       	beq	.+42 (0x6946)
    691c:	fa 0c       	mov.b	#0xc,r2l
    691e:	6a aa 00 20 	mov.b	r2l,@0x200003:32
    6922:	00 03 
	...
    692c:	6a 2a 00 20 	mov.b	@0x200000:32,r2l
    6930:	00 00 
    6932:	73 0a       	btst	#0x0,r2l
    6934:	47 08       	beq	.+8 (0x693e)
    6936:	0f c0       	mov.l	er4,er0
    6938:	5e 00 65 c2 	jsr	@0x65c2:24
    693c:	40 08       	bra	.+8 (0x6946)
    693e:	73 1a       	btst	#0x1,r2l
    6940:	47 04       	beq	.+4 (0x6946)
    6942:	0f c0       	mov.l	er4,er0
    6944:	55 46       	bsr	.+70 (0x698c)
    6946:	73 2d       	btst	#0x2,r5l
    6948:	47 2c       	beq	.+44 (0x6976)
    694a:	fa 0a       	mov.b	#0xa,r2l
    694c:	6a aa 00 20 	mov.b	r2l,@0x200003:32
    6950:	00 03 
	...
    695a:	6a 2a 00 20 	mov.b	@0x200000:32,r2l
    695e:	00 00 
    6960:	73 0a       	btst	#0x0,r2l
    6962:	47 08       	beq	.+8 (0x696c)
    6964:	0f c0       	mov.l	er4,er0
    6966:	5e 00 67 a4 	jsr	@0x67a4:24
    696a:	40 0a       	bra	.+10 (0x6976)
    696c:	73 1a       	btst	#0x1,r2l
    696e:	47 06       	beq	.+6 (0x6976)
    6970:	0f c0       	mov.l	er4,er0
    6972:	5e 00 6f 10 	jsr	@0x6f10:24
    6976:	73 1d       	btst	#0x1,r5l
    6978:	58 70 ff 38 	beq	.-200 (0x68b4)
    697c:	0f c0       	mov.l	er4,er0
    697e:	5e 00 63 1e 	jsr	@0x631e:24
    6982:	58 00 ff 2e 	bra	.-210 (0x68b4)
    6986:	01 10 6d 75 	ldm.l	@sp+,er4-er5
    698a:	54 70       	rts	
    698c:	7a 37 00 00 	sub.l	#0x18,er7
    6990:	00 18 
    6992:	01 20 6d f4 	stm.l	er4-er6,@-sp
    6996:	0f 85       	mov.l	er0,er5
    6998:	fa 2e       	mov.b	#0x2e,r2l
    699a:	6a aa 00 20 	mov.b	r2l,@0x200003:32
    699e:	00 03 
	...
    69a8:	6a 2a 00 20 	mov.b	@0x200000:32,r2l
    69ac:	00 00 
    69ae:	73 6a       	btst	#0x6,r2l
    69b0:	47 14       	beq	.+20 (0x69c6)
    69b2:	7a 00 00 ff 	mov.l	#0xfff46c,er0
    69b6:	f4 6c 
    69b8:	7a 01 03 80 	mov.l	#0x3800000,er1
    69bc:	00 00 
    69be:	5e 00 71 16 	jsr	@0x7116:24
    69c2:	58 00 03 9c 	bra	.+924 (0x6d62)
    69c6:	0c aa       	mov.b	r2l,r2l
    69c8:	4c 14       	bge	.+20 (0x69de)
    69ca:	7a 00 00 ff 	mov.l	#0xfff46c,er0
    69ce:	f4 6c 
    69d0:	7a 01 03 81 	mov.l	#0x3810000,er1
    69d4:	00 00 
    69d6:	5e 00 71 16 	jsr	@0x7116:24
    69da:	58 00 03 84 	bra	.+900 (0x6d62)
    69de:	19 66       	sub.w	r6,r6
    69e0:	0d 20       	mov.w	r2,r0
    69e2:	40 42       	bra	.+66 (0x6a26)
    69e4:	fa 2d       	mov.b	#0x2d,r2l
    69e6:	6a aa 00 20 	mov.b	r2l,@0x200003:32
    69ea:	00 03 
	...
    69f4:	6a 2b 00 20 	mov.b	@0x200000:32,r3l
    69f8:	00 00 
    69fa:	f3 00       	mov.b	#0x0,r3h
    69fc:	0d 62       	mov.w	r6,r2
    69fe:	17 f2       	exts.l	er2
    6a00:	78 20 6a ab 	mov.b	r3l,@(0xfff42c:32,r2)
    6a04:	00 ff f4 2c 
    6a08:	0b 06       	adds	#1,r6
    6a0a:	1b 00       	subs	#1,r0
    6a0c:	0d 00       	mov.w	r0,r0
    6a0e:	46 1a       	bne	.+26 (0x6a2a)
    6a10:	fa 2e       	mov.b	#0x2e,r2l
    6a12:	6a aa 00 20 	mov.b	r2l,@0x200003:32
    6a16:	00 03 
	...
    6a20:	6a 28 00 20 	mov.b	@0x200000:32,r0l
    6a24:	00 00 
    6a26:	e8 0f       	and.b	#0xf,r0l
    6a28:	e0 00       	and.b	#0x0,r0h
    6a2a:	0d 00       	mov.w	r0,r0
    6a2c:	4e b6       	bgt	.-74 (0x69e4)
    6a2e:	0d 63       	mov.w	r6,r3
    6a30:	17 f3       	exts.l	er3
    6a32:	01 00 6f f3 	mov.l	er3,@(0x14:16,r7)
    6a36:	00 14 
    6a38:	0f b1       	mov.l	er3,er1
    6a3a:	7a 11 03 00 	add.l	#0x3000000,er1
    6a3e:	00 00 
    6a40:	7a 00 00 ff 	mov.l	#0xfff46c,er0
    6a44:	f4 6c 
    6a46:	5e 00 71 16 	jsr	@0x7116:24
    6a4a:	6f 52 00 1c 	mov.w	@(0x1c:16,r5),r2
    6a4e:	58 60 01 a0 	bne	.+416 (0x6bf2)
    6a52:	6a 0a f4 2c 	mov.b	@0xf42c:16,r2l
    6a56:	6e da 00 1e 	mov.b	r2l,@(0x1e:16,r5)
    6a5a:	f2 00       	mov.b	#0x0,r2h
    6a5c:	79 22 00 3c 	cmp.w	#0x3c,r2
    6a60:	47 26       	beq	.+38 (0x6a88)
    6a62:	4e 0a       	bgt	.+10 (0x6a6e)
    6a64:	79 22 00 1e 	cmp.w	#0x1e,r2
    6a68:	47 0e       	beq	.+14 (0x6a78)
    6a6a:	58 00 02 f4 	bra	.+756 (0x6d62)
    6a6e:	79 22 00 5a 	cmp.w	#0x5a,r2
    6a72:	47 5a       	beq	.+90 (0x6ace)
    6a74:	58 00 02 ea 	bra	.+746 (0x6d62)
    6a78:	79 26 00 01 	cmp.w	#0x1,r6
    6a7c:	58 60 02 da 	bne	.+730 (0x6d5a)
    6a80:	79 02 00 02 	mov.w	#0x2,r2
    6a84:	58 00 02 d6 	bra	.+726 (0x6d5e)
    6a88:	79 26 00 0d 	cmp.w	#0xd,r6
    6a8c:	58 60 02 ca 	bne	.+714 (0x6d5a)
    6a90:	7a 01 00 ff 	mov.l	#0xfff42d,er1
    6a94:	f4 2d 
    6a96:	0f d0       	mov.l	er5,er0
    6a98:	5e 00 61 32 	jsr	@0x6132:24
    6a9c:	01 00 6f d0 	mov.l	er0,@(0x20:16,r5)
    6aa0:	00 20 
    6aa2:	7a 01 00 ff 	mov.l	#0xfff431,er1
    6aa6:	f4 31 
    6aa8:	0f d0       	mov.l	er5,er0
    6aaa:	5e 00 61 32 	jsr	@0x6132:24
    6aae:	01 00 6f d0 	mov.l	er0,@(0x24:16,r5)
    6ab2:	00 24 
    6ab4:	7a 01 00 ff 	mov.l	#0xfff435,er1
    6ab8:	f4 35 
    6aba:	0f d0       	mov.l	er5,er0
    6abc:	5e 00 61 32 	jsr	@0x6132:24
    6ac0:	01 00 6f d0 	mov.l	er0,@(0x28:16,r5)
    6ac4:	00 28 
    6ac6:	79 02 00 02 	mov.w	#0x2,r2
    6aca:	58 00 02 90 	bra	.+656 (0x6d5e)
    6ace:	79 26 00 07 	cmp.w	#0x7,r6
    6ad2:	58 f0 02 84 	ble	.+644 (0x6d5a)
    6ad6:	7a 01 00 ff 	mov.l	#0xfff42d,er1
    6ada:	f4 2d 
    6adc:	0f d0       	mov.l	er5,er0
    6ade:	5e 00 61 22 	jsr	@0x6122:24
    6ae2:	6f d0 00 2c 	mov.w	r0,@(0x2c:16,r5)
    6ae6:	7a 01 00 ff 	mov.l	#0xfff42f,er1
    6aea:	f4 2f 
    6aec:	0f d0       	mov.l	er5,er0
    6aee:	5e 00 61 22 	jsr	@0x6122:24
    6af2:	6f d0 00 2e 	mov.w	r0,@(0x2e:16,r5)
    6af6:	0d 01       	mov.w	r0,r1
    6af8:	17 f1       	exts.l	er1
    6afa:	7a 11 03 01 	add.l	#0x3010000,er1
    6afe:	00 00 
    6b00:	7a 00 00 ff 	mov.l	#0xfff46c,er0
    6b04:	f4 6c 
    6b06:	5e 00 71 16 	jsr	@0x7116:24
    6b0a:	6f f6 00 0e 	mov.w	r6,@(0xe:16,r7)
    6b0e:	0d 64       	mov.w	r6,r4
    6b10:	1b 94       	subs	#4,r4
    6b12:	1b 04       	subs	#1,r4
    6b14:	6f f4 00 0e 	mov.w	r4,@(0xe:16,r7)
    6b18:	6f 52 00 2e 	mov.w	@(0x2e:16,r5),r2
    6b1c:	1d 24       	cmp.w	r2,r4
    6b1e:	58 e0 02 38 	bgt	.+568 (0x6d5a)
    6b22:	01 00 6f 50 	mov.l	@(0x34:16,r5),er0
    6b26:	00 34 
    6b28:	7a 01 00 ff 	mov.l	#0xfff431,er1
    6b2c:	f4 31 
    6b2e:	6f 72 00 0e 	mov.w	@(0xe:16,r7),r2
    6b32:	17 f2       	exts.l	er2
    6b34:	5e 00 12 0c 	jsr	@0x120c:24
    6b38:	6f 73 00 0e 	mov.w	@(0xe:16,r7),r3
    6b3c:	6f d3 00 30 	mov.w	r3,@(0x30:16,r5)
    6b40:	6f 52 00 2e 	mov.w	@(0x2e:16,r5),r2
    6b44:	1d 23       	cmp.w	r2,r3
    6b46:	4c 08       	bge	.+8 (0x6b50)
    6b48:	79 02 00 01 	mov.w	#0x1,r2
    6b4c:	58 00 02 0e 	bra	.+526 (0x6d5e)
    6b50:	79 16 ff f9 	add.w	#0xfff9,r6
    6b54:	6f d6 00 30 	mov.w	r6,@(0x30:16,r5)
    6b58:	0f f2       	mov.l	er7,er2
    6b5a:	7a 12 00 00 	add.l	#0x22,er2
    6b5e:	00 22 
    6b60:	79 03 ff ff 	mov.w	#0xffff,r3
    6b64:	69 a3       	mov.w	r3,@r2
    6b66:	6f 50 00 30 	mov.w	@(0x30:16,r5),r0
    6b6a:	17 f0       	exts.l	er0
    6b6c:	01 00 6f f2 	mov.l	er2,@(0x1c:16,r7)
    6b70:	00 1c 
    6b72:	01 00 6f 56 	mov.l	@(0x34:16,r5),er6
    6b76:	00 34 
    6b78:	6f f3 00 16 	mov.w	r3,@(0x16:16,r7)
    6b7c:	0f 81       	mov.l	er0,er1
    6b7e:	1b 01       	subs	#1,r1
    6b80:	0f 80       	mov.l	er0,er0
    6b82:	47 40       	beq	.+64 (0x6bc4)
    6b84:	6f 74 00 16 	mov.w	@(0x16:16,r7),r4
    6b88:	6f f4 00 0e 	mov.w	r4,@(0xe:16,r7)
    6b8c:	6f 73 00 0e 	mov.w	@(0xe:16,r7),r3
    6b90:	0c 3b       	mov.b	r3h,r3l
    6b92:	18 33       	sub.b	r3h,r3h
    6b94:	6f f3 00 0e 	mov.w	r3,@(0xe:16,r7)
    6b98:	6c 6a       	mov.b	@r6+,r2l
    6b9a:	f2 00       	mov.b	#0x0,r2h
    6b9c:	6f 73 00 16 	mov.w	@(0x16:16,r7),r3
    6ba0:	65 23       	xor.w	r2,r3
    6ba2:	0d 32       	mov.w	r3,r2
    6ba4:	10 32       	shll.l	er2
    6ba6:	7a 62 00 00 	and.l	#0x1fe,er2
    6baa:	01 fe 
    6bac:	78 20 6b 22 	mov.w	@(0x930:32,r2),r2
    6bb0:	00 00 09 30 
    6bb4:	6f 74 00 0e 	mov.w	@(0xe:16,r7),r4
    6bb8:	65 24       	xor.w	r2,r4
    6bba:	6f f4 00 16 	mov.w	r4,@(0x16:16,r7)
    6bbe:	0f 92       	mov.l	er1,er2
    6bc0:	1b 01       	subs	#1,r1
    6bc2:	46 c0       	bne	.-64 (0x6b84)
    6bc4:	6f 74 00 16 	mov.w	@(0x16:16,r7),r4
    6bc8:	01 00 6f 73 	mov.l	@(0x1c:16,r7),er3
    6bcc:	00 1c 
    6bce:	69 b4       	mov.w	r4,@r3
    6bd0:	6f 52 00 30 	mov.w	@(0x30:16,r5),r2
    6bd4:	17 f2       	exts.l	er2
    6bd6:	01 00 6f 51 	mov.l	@(0x34:16,r5),er1
    6bda:	00 34 
    6bdc:	0a a1       	add.l	er2,er1
    6bde:	0f d0       	mov.l	er5,er0
    6be0:	5e 00 61 22 	jsr	@0x6122:24
    6be4:	1d 04       	cmp.w	r0,r4
    6be6:	58 60 01 70 	bne	.+368 (0x6d5a)
    6bea:	79 02 00 02 	mov.w	#0x2,r2
    6bee:	58 00 01 6c 	bra	.+364 (0x6d5e)
    6bf2:	79 22 00 01 	cmp.w	#0x1,r2
    6bf6:	58 60 01 48 	bne	.+328 (0x6d42)
    6bfa:	6f 51 00 30 	mov.w	@(0x30:16,r5),r1
    6bfe:	17 f1       	exts.l	er1
    6c00:	01 00 6f 73 	mov.l	@(0x14:16,r7),er3
    6c04:	00 14 
    6c06:	7a 13 03 02 	add.l	#0x3020000,er3
    6c0a:	00 00 
    6c0c:	0a b1       	add.l	er3,er1
    6c0e:	7a 13 fc fe 	add.l	#0xfcfe0000,er3
    6c12:	00 00 
    6c14:	01 00 6f f3 	mov.l	er3,@(0x14:16,r7)
    6c18:	00 14 
    6c1a:	7a 00 00 ff 	mov.l	#0xfff46c,er0
    6c1e:	f4 6c 
    6c20:	5e 00 71 16 	jsr	@0x7116:24
    6c24:	6f 52 00 30 	mov.w	@(0x30:16,r5),r2
    6c28:	09 62       	add.w	r6,r2
    6c2a:	6f 54 00 2e 	mov.w	@(0x2e:16,r5),r4
    6c2e:	1d 42       	cmp.w	r4,r2
    6c30:	58 e0 01 26 	bgt	.+294 (0x6d5a)
    6c34:	6f 52 00 30 	mov.w	@(0x30:16,r5),r2
    6c38:	17 f2       	exts.l	er2
    6c3a:	01 00 6f 50 	mov.l	@(0x34:16,r5),er0
    6c3e:	00 34 
    6c40:	0a a0       	add.l	er2,er0
    6c42:	7a 01 00 ff 	mov.l	#0xfff42c,er1
    6c46:	f4 2c 
    6c48:	01 00 6f 72 	mov.l	@(0x14:16,r7),er2
    6c4c:	00 14 
    6c4e:	5e 00 12 0c 	jsr	@0x120c:24
    6c52:	6f 50 00 30 	mov.w	@(0x30:16,r5),r0
    6c56:	09 60       	add.w	r6,r0
    6c58:	6f d0 00 30 	mov.w	r0,@(0x30:16,r5)
    6c5c:	6f 52 00 2e 	mov.w	@(0x2e:16,r5),r2
    6c60:	1d 20       	cmp.w	r2,r0
    6c62:	58 60 00 fc 	bne	.+252 (0x6d62)
    6c66:	1b 80       	subs	#2,r0
    6c68:	6f d0 00 30 	mov.w	r0,@(0x30:16,r5)
    6c6c:	0f f2       	mov.l	er7,er2
    6c6e:	7a 12 00 00 	add.l	#0x20,er2
    6c72:	00 20 
    6c74:	79 03 ff ff 	mov.w	#0xffff,r3
    6c78:	69 a3       	mov.w	r3,@r2
    6c7a:	6f 50 00 30 	mov.w	@(0x30:16,r5),r0
    6c7e:	17 f0       	exts.l	er0
    6c80:	01 00 6f f2 	mov.l	er2,@(0x18:16,r7)
    6c84:	00 18 
    6c86:	01 00 6f 56 	mov.l	@(0x34:16,r5),er6
    6c8a:	00 34 
    6c8c:	6f f3 00 16 	mov.w	r3,@(0x16:16,r7)
    6c90:	0f 81       	mov.l	er0,er1
    6c92:	1b 01       	subs	#1,r1
    6c94:	0f 80       	mov.l	er0,er0
    6c96:	47 40       	beq	.+64 (0x6cd8)
    6c98:	6f 73 00 16 	mov.w	@(0x16:16,r7),r3
    6c9c:	6f f3 00 0e 	mov.w	r3,@(0xe:16,r7)
    6ca0:	6f 74 00 0e 	mov.w	@(0xe:16,r7),r4
    6ca4:	0c 4c       	mov.b	r4h,r4l
    6ca6:	18 44       	sub.b	r4h,r4h
    6ca8:	6f f4 00 0e 	mov.w	r4,@(0xe:16,r7)
    6cac:	6c 6a       	mov.b	@r6+,r2l
    6cae:	f2 00       	mov.b	#0x0,r2h
    6cb0:	6f 74 00 16 	mov.w	@(0x16:16,r7),r4
    6cb4:	65 24       	xor.w	r2,r4
    6cb6:	0d 42       	mov.w	r4,r2
    6cb8:	10 32       	shll.l	er2
    6cba:	7a 62 00 00 	and.l	#0x1fe,er2
    6cbe:	01 fe 
    6cc0:	78 20 6b 22 	mov.w	@(0x930:32,r2),r2
    6cc4:	00 00 09 30 
    6cc8:	6f 73 00 0e 	mov.w	@(0xe:16,r7),r3
    6ccc:	65 23       	xor.w	r2,r3
    6cce:	6f f3 00 16 	mov.w	r3,@(0x16:16,r7)
    6cd2:	0f 92       	mov.l	er1,er2
    6cd4:	1b 01       	subs	#1,r1
    6cd6:	46 c0       	bne	.-64 (0x6c98)
    6cd8:	6f 73 00 16 	mov.w	@(0x16:16,r7),r3
    6cdc:	01 00 6f 74 	mov.l	@(0x18:16,r7),er4
    6ce0:	00 18 
    6ce2:	69 c3       	mov.w	r3,@r4
    6ce4:	0d 31       	mov.w	r3,r1
    6ce6:	17 71       	extu.l	er1
    6ce8:	7a 41 03 03 	or.l	#0x3030000,er1
    6cec:	00 00 
    6cee:	7a 00 00 ff 	mov.l	#0xfff46c,er0
    6cf2:	f4 6c 
    6cf4:	5e 00 71 16 	jsr	@0x7116:24
    6cf8:	6f 52 00 30 	mov.w	@(0x30:16,r5),r2
    6cfc:	17 f2       	exts.l	er2
    6cfe:	01 00 6f 51 	mov.l	@(0x34:16,r5),er1
    6d02:	00 34 
    6d04:	0a a1       	add.l	er2,er1
    6d06:	0f d0       	mov.l	er5,er0
    6d08:	5e 00 61 22 	jsr	@0x6122:24
    6d0c:	0d 01       	mov.w	r0,r1
    6d0e:	17 71       	extu.l	er1
    6d10:	7a 41 03 04 	or.l	#0x3040000,er1
    6d14:	00 00 
    6d16:	7a 00 00 ff 	mov.l	#0xfff46c,er0
    6d1a:	f4 6c 
    6d1c:	5e 00 71 16 	jsr	@0x7116:24
    6d20:	6f 52 00 30 	mov.w	@(0x30:16,r5),r2
    6d24:	17 f2       	exts.l	er2
    6d26:	01 00 6f 51 	mov.l	@(0x34:16,r5),er1
    6d2a:	00 34 
    6d2c:	0a a1       	add.l	er2,er1
    6d2e:	0f d0       	mov.l	er5,er0
    6d30:	5e 00 61 22 	jsr	@0x6122:24
    6d34:	6f 74 00 16 	mov.w	@(0x16:16,r7),r4
    6d38:	1d 04       	cmp.w	r0,r4
    6d3a:	46 1e       	bne	.+30 (0x6d5a)
    6d3c:	79 02 00 02 	mov.w	#0x2,r2
    6d40:	40 1c       	bra	.+28 (0x6d5e)
    6d42:	6a 0a f4 2c 	mov.b	@0xf42c:16,r2l
    6d46:	6e da 00 1e 	mov.b	r2l,@(0x1e:16,r5)
    6d4a:	aa 1e       	cmp.b	#0x1e,r2l
    6d4c:	46 0c       	bne	.+12 (0x6d5a)
    6d4e:	79 26 00 01 	cmp.w	#0x1,r6
    6d52:	46 06       	bne	.+6 (0x6d5a)
    6d54:	79 02 00 02 	mov.w	#0x2,r2
    6d58:	40 04       	bra	.+4 (0x6d5e)
    6d5a:	79 02 00 03 	mov.w	#0x3,r2
    6d5e:	6f d2 00 1c 	mov.w	r2,@(0x1c:16,r5)
    6d62:	f9 2f       	mov.b	#0x2f,r1l
    6d64:	f8 08       	mov.b	#0x8,r0l
    6d66:	7a 03 00 20 	mov.l	#0x200003,er3
    6d6a:	00 03 
    6d6c:	68 b9       	mov.b	r1l,@r3
	...
    6d76:	7a 02 00 20 	mov.l	#0x200000,er2
    6d7a:	00 00 
    6d7c:	68 a8       	mov.b	r0l,@r2
    6d7e:	f8 01       	mov.b	#0x1,r0l
    6d80:	68 b9       	mov.b	r1l,@r3
	...
    6d8a:	68 a8       	mov.b	r0l,@r2
    6d8c:	01 20 6d 76 	ldm.l	@sp+,er4-er6
    6d90:	7a 17 00 00 	add.l	#0x18,er7
    6d94:	00 18 
    6d96:	54 70       	rts	
    6d98:	01 00 6d f4 	mov.l	er4,@-r7
    6d9c:	0f 84       	mov.l	er0,er4
    6d9e:	fa 2f       	mov.b	#0x2f,r2l
    6da0:	fb 08       	mov.b	#0x8,r3l
    6da2:	6a aa 00 20 	mov.b	r2l,@0x200003:32
    6da6:	00 03 
	...
    6db0:	6a ab 00 20 	mov.b	r3l,@0x200000:32
    6db4:	00 00 
    6db6:	fa 02       	mov.b	#0x2,r2l
    6db8:	6e ca 00 1a 	mov.b	r2l,@(0x1a:16,r4)
    6dbc:	18 99       	sub.b	r1l,r1l
    6dbe:	55 72       	bsr	.+114 (0x6e32)
    6dc0:	19 22       	sub.w	r2,r2
    6dc2:	6f c2 00 1c 	mov.w	r2,@(0x1c:16,r4)
    6dc6:	1a a2       	sub.l	er2,er2
    6dc8:	01 00 6f c2 	mov.l	er2,@(0x24:16,r4)
    6dcc:	00 24 
    6dce:	6f c2 00 30 	mov.w	r2,@(0x30:16,r4)
    6dd2:	01 00 6d 74 	mov.l	@r7+,er4
    6dd6:	54 70       	rts	
    6dd8:	01 20 6d f4 	stm.l	er4-er6,@-sp
    6ddc:	0f 84       	mov.l	er0,er4
    6dde:	19 33       	sub.w	r3,r3
    6de0:	6f c3 00 18 	mov.w	r3,@(0x18:16,r4)
    6de4:	fa 08       	mov.b	#0x8,r2l
    6de6:	7a 06 00 20 	mov.l	#0x200003,er6
    6dea:	00 03 
    6dec:	fb 2f       	mov.b	#0x2f,r3l
    6dee:	68 eb       	mov.b	r3l,@r6
	...
    6df8:	7a 05 00 20 	mov.l	#0x200000,er5
    6dfc:	00 00 
    6dfe:	68 da       	mov.b	r2l,@r5
    6e00:	f9 01       	mov.b	#0x1,r1l
    6e02:	55 2e       	bsr	.+46 (0x6e32)
    6e04:	18 99       	sub.b	r1l,r1l
    6e06:	0f c0       	mov.l	er4,er0
    6e08:	55 56       	bsr	.+86 (0x6e60)
    6e0a:	fa 01       	mov.b	#0x1,r2l
    6e0c:	fb 2f       	mov.b	#0x2f,r3l
    6e0e:	68 eb       	mov.b	r3l,@r6
	...
    6e18:	68 da       	mov.b	r2l,@r5
    6e1a:	19 33       	sub.w	r3,r3
    6e1c:	6f c3 00 1c 	mov.w	r3,@(0x1c:16,r4)
    6e20:	1a a2       	sub.l	er2,er2
    6e22:	01 00 6f c2 	mov.l	er2,@(0x24:16,r4)
    6e26:	00 24 
    6e28:	6f c2 00 30 	mov.w	r2,@(0x30:16,r4)
    6e2c:	01 20 6d 76 	ldm.l	@sp+,er4-er6
    6e30:	54 70       	rts	
    6e32:	6e 0a 00 1a 	mov.b	@(0x1a:16,r0),r2l
    6e36:	0c 99       	mov.b	r1l,r1l
    6e38:	47 04       	beq	.+4 (0x6e3e)
    6e3a:	ca 10       	or.b	#0x10,r2l
    6e3c:	40 02       	bra	.+2 (0x6e40)
    6e3e:	ea ef       	and.b	#0xef,r2l
    6e40:	6e 8a 00 1a 	mov.b	r2l,@(0x1a:16,r0)
    6e44:	fa 2c       	mov.b	#0x2c,r2l
    6e46:	6e 0b 00 1a 	mov.b	@(0x1a:16,r0),r3l
    6e4a:	6a aa 00 20 	mov.b	r2l,@0x200003:32
    6e4e:	00 03 
	...
    6e58:	6a ab 00 20 	mov.b	r3l,@0x200000:32
    6e5c:	00 00 
    6e5e:	54 70       	rts	
    6e60:	6e 0a 00 1a 	mov.b	@(0x1a:16,r0),r2l
    6e64:	0c 99       	mov.b	r1l,r1l
    6e66:	47 04       	beq	.+4 (0x6e6c)
    6e68:	ca 80       	or.b	#0x80,r2l
    6e6a:	40 02       	bra	.+2 (0x6e6e)
    6e6c:	ea 7f       	and.b	#0x7f,r2l
    6e6e:	6e 8a 00 1a 	mov.b	r2l,@(0x1a:16,r0)
    6e72:	fa 2c       	mov.b	#0x2c,r2l
    6e74:	6e 0b 00 1a 	mov.b	@(0x1a:16,r0),r3l
    6e78:	6a aa 00 20 	mov.b	r2l,@0x200003:32
    6e7c:	00 03 
	...
    6e86:	6a ab 00 20 	mov.b	r3l,@0x200000:32
    6e8a:	00 00 
    6e8c:	54 70       	rts	
    6e8e:	18 bb       	sub.b	r3l,r3l
    6e90:	6f 02 00 1c 	mov.w	@(0x1c:16,r0),r2
    6e94:	79 22 00 03 	cmp.w	#0x3,r2
    6e98:	46 02       	bne	.+2 (0x6e9c)
    6e9a:	fb 01       	mov.b	#0x1,r3l
    6e9c:	0c b8       	mov.b	r3l,r0l
    6e9e:	54 70       	rts	
    6ea0:	19 22       	sub.w	r2,r2
    6ea2:	6f 82 00 1c 	mov.w	r2,@(0x1c:16,r0)
    6ea6:	54 70       	rts	
    6ea8:	6f 02 00 1c 	mov.w	@(0x1c:16,r0),r2
    6eac:	79 22 00 02 	cmp.w	#0x2,r2
    6eb0:	46 08       	bne	.+8 (0x6eba)
    6eb2:	6e 08 00 1e 	mov.b	@(0x1e:16,r0),r0l
    6eb6:	f0 00       	mov.b	#0x0,r0h
    6eb8:	40 04       	bra	.+4 (0x6ebe)
    6eba:	79 00 ff ff 	mov.w	#0xffff,r0
    6ebe:	54 70       	rts	
    6ec0:	6f 02 00 1c 	mov.w	@(0x1c:16,r0),r2
    6ec4:	79 22 00 02 	cmp.w	#0x2,r2
    6ec8:	46 08       	bne	.+8 (0x6ed2)
    6eca:	01 00 6f 02 	mov.l	@(0x24:16,r0),er2
    6ece:	00 24 
    6ed0:	46 04       	bne	.+4 (0x6ed6)
    6ed2:	1a 80       	sub.l	er0,er0
    6ed4:	40 06       	bra	.+6 (0x6edc)
    6ed6:	7a 10 00 00 	add.l	#0x20,er0
    6eda:	00 20 
    6edc:	54 70       	rts	
    6ede:	6f 02 00 1c 	mov.w	@(0x1c:16,r0),r2
    6ee2:	79 22 00 02 	cmp.w	#0x2,r2
    6ee6:	46 06       	bne	.+6 (0x6eee)
    6ee8:	6f 02 00 30 	mov.w	@(0x30:16,r0),r2
    6eec:	46 04       	bne	.+4 (0x6ef2)
    6eee:	1a 80       	sub.l	er0,er0
    6ef0:	40 06       	bra	.+6 (0x6ef8)
    6ef2:	7a 10 00 00 	add.l	#0x2c,er0
    6ef6:	00 2c 
    6ef8:	54 70       	rts	
    6efa:	19 22       	sub.w	r2,r2
    6efc:	6f 82 00 30 	mov.w	r2,@(0x30:16,r0)
    6f00:	01 00 6f 81 	mov.l	er1,@(0x34:16,r0)
    6f04:	00 34 
    6f06:	54 70       	rts	
    6f08:	6e 0a 00 3b 	mov.b	@(0x3b:16,r0),r2l
    6f0c:	47 3e       	beq	.+62 (0x6f4c)
    6f0e:	54 70       	rts	
    6f10:	01 00 6d f4 	mov.l	er4,@-r7
    6f14:	0f 84       	mov.l	er0,er4
    6f16:	fa 2a       	mov.b	#0x2a,r2l
    6f18:	6a aa 00 20 	mov.b	r2l,@0x200003:32
    6f1c:	00 03 
	...
    6f26:	6a 2a 00 20 	mov.b	@0x200000:32,r2l
    6f2a:	00 00 
    6f2c:	ea 60       	and.b	#0x60,r2l
    6f2e:	aa 60       	cmp.b	#0x60,r2l
    6f30:	47 10       	beq	.+16 (0x6f42)
    6f32:	7a 00 00 ff 	mov.l	#0xfff46c,er0
    6f36:	f4 6c 
    6f38:	7a 01 04 01 	mov.l	#0x4010000,er1
    6f3c:	00 00 
    6f3e:	5e 00 71 16 	jsr	@0x7116:24
    6f42:	0f c0       	mov.l	er4,er0
    6f44:	55 06       	bsr	.+6 (0x6f4c)
    6f46:	01 00 6d 74 	mov.l	@r7+,er4
    6f4a:	54 70       	rts	
    6f4c:	fa 2b       	mov.b	#0x2b,r2l
    6f4e:	fb 08       	mov.b	#0x8,r3l
    6f50:	6a aa 00 20 	mov.b	r2l,@0x200003:32
    6f54:	00 03 
	...
    6f5e:	6a ab 00 20 	mov.b	r3l,@0x200000:32
    6f62:	00 00 
    6f64:	19 11       	sub.w	r1,r1
    6f66:	40 24       	bra	.+36 (0x6f8c)
    6f68:	0d 13       	mov.w	r1,r3
    6f6a:	17 f3       	exts.l	er3
    6f6c:	0f 82       	mov.l	er0,er2
    6f6e:	0a b2       	add.l	er3,er2
    6f70:	fb 29       	mov.b	#0x29,r3l
    6f72:	6e 2a 00 3e 	mov.b	@(0x3e:16,r2),r2l
    6f76:	6a ab 00 20 	mov.b	r3l,@0x200003:32
    6f7a:	00 03 
	...
    6f84:	6a aa 00 20 	mov.b	r2l,@0x200000:32
    6f88:	00 00 
    6f8a:	0b 01       	adds	#1,r1
    6f8c:	6f 02 00 3c 	mov.w	@(0x3c:16,r0),r2
    6f90:	1d 21       	cmp.w	r2,r1
    6f92:	4d d4       	blt	.-44 (0x6f68)
    6f94:	19 11       	sub.w	r1,r1
    6f96:	6f 81 00 3c 	mov.w	r1,@(0x3c:16,r0)
    6f9a:	6f 02 00 38 	mov.w	@(0x38:16,r0),r2
    6f9e:	46 22       	bne	.+34 (0x6fc2)
    6fa0:	fa 2b       	mov.b	#0x2b,r2l
    6fa2:	fb 03       	mov.b	#0x3,r3l
    6fa4:	6a aa 00 20 	mov.b	r2l,@0x200003:32
    6fa8:	00 03 
	...
    6fb2:	6a ab 00 20 	mov.b	r3l,@0x200000:32
    6fb6:	00 00 
    6fb8:	79 02 00 01 	mov.w	#0x1,r2
    6fbc:	6f 82 00 38 	mov.w	r2,@(0x38:16,r0)
    6fc0:	40 1c       	bra	.+28 (0x6fde)
    6fc2:	fa 2b       	mov.b	#0x2b,r2l
    6fc4:	fb 07       	mov.b	#0x7,r3l
    6fc6:	6a aa 00 20 	mov.b	r2l,@0x200003:32
    6fca:	00 03 
	...
    6fd4:	6a ab 00 20 	mov.b	r3l,@0x200000:32
    6fd8:	00 00 
    6fda:	6f 81 00 38 	mov.w	r1,@(0x38:16,r0)
    6fde:	fa 01       	mov.b	#0x1,r2l
    6fe0:	6e 8a 00 3b 	mov.b	r2l,@(0x3b:16,r0)
    6fe4:	54 70       	rts	
    6fe6:	01 10 6d f4 	stm.l	er4-er5,@-sp
    6fea:	0f 84       	mov.l	er0,er4
    6fec:	19 55       	sub.w	r5,r5
    6fee:	6f c5 00 3c 	mov.w	r5,@(0x3c:16,r4)
    6ff2:	fa 2b       	mov.b	#0x2b,r2l
    6ff4:	fb 08       	mov.b	#0x8,r3l
    6ff6:	6a aa 00 20 	mov.b	r2l,@0x200003:32
    6ffa:	00 03 
	...
    7004:	6a ab 00 20 	mov.b	r3l,@0x200000:32
    7008:	00 00 
    700a:	fa 01       	mov.b	#0x1,r2l
    700c:	6e ca 00 3a 	mov.b	r2l,@(0x3a:16,r4)
    7010:	18 99       	sub.b	r1l,r1l
    7012:	55 46       	bsr	.+70 (0x705a)
    7014:	6e cd 00 3b 	mov.b	r5l,@(0x3b:16,r4)
    7018:	01 10 6d 75 	ldm.l	@sp+,er4-er5
    701c:	54 70       	rts	
    701e:	01 10 6d f4 	stm.l	er4-er5,@-sp
    7022:	0f 84       	mov.l	er0,er4
    7024:	19 55       	sub.w	r5,r5
    7026:	6f c5 00 3c 	mov.w	r5,@(0x3c:16,r4)
    702a:	6f c5 00 38 	mov.w	r5,@(0x38:16,r4)
    702e:	fa 2b       	mov.b	#0x2b,r2l
    7030:	fb 08       	mov.b	#0x8,r3l
    7032:	6a aa 00 20 	mov.b	r2l,@0x200003:32
    7036:	00 03 
	...
    7040:	6a ab 00 20 	mov.b	r3l,@0x200000:32
    7044:	00 00 
    7046:	f9 01       	mov.b	#0x1,r1l
    7048:	55 10       	bsr	.+16 (0x705a)
    704a:	18 99       	sub.b	r1l,r1l
    704c:	0f c0       	mov.l	er4,er0
    704e:	55 38       	bsr	.+56 (0x7088)
    7050:	6e cd 00 3b 	mov.b	r5l,@(0x3b:16,r4)
    7054:	01 10 6d 75 	ldm.l	@sp+,er4-er5
    7058:	54 70       	rts	
    705a:	6e 0a 00 3a 	mov.b	@(0x3a:16,r0),r2l
    705e:	0c 99       	mov.b	r1l,r1l
    7060:	47 04       	beq	.+4 (0x7066)
    7062:	ca 10       	or.b	#0x10,r2l
    7064:	40 02       	bra	.+2 (0x7068)
    7066:	ea ef       	and.b	#0xef,r2l
    7068:	6e 8a 00 3a 	mov.b	r2l,@(0x3a:16,r0)
    706c:	fa 28       	mov.b	#0x28,r2l
    706e:	6e 0b 00 3a 	mov.b	@(0x3a:16,r0),r3l
    7072:	6a aa 00 20 	mov.b	r2l,@0x200003:32
    7076:	00 03 
	...
    7080:	6a ab 00 20 	mov.b	r3l,@0x200000:32
    7084:	00 00 
    7086:	54 70       	rts	
    7088:	6e 0a 00 3a 	mov.b	@(0x3a:16,r0),r2l
    708c:	0c 99       	mov.b	r1l,r1l
    708e:	47 04       	beq	.+4 (0x7094)
    7090:	ca 80       	or.b	#0x80,r2l
    7092:	40 02       	bra	.+2 (0x7096)
    7094:	ea 7f       	and.b	#0x7f,r2l
    7096:	6e 8a 00 3a 	mov.b	r2l,@(0x3a:16,r0)
    709a:	fa 28       	mov.b	#0x28,r2l
    709c:	6e 0b 00 3a 	mov.b	@(0x3a:16,r0),r3l
    70a0:	6a aa 00 20 	mov.b	r2l,@0x200003:32
    70a4:	00 03 
	...
    70ae:	6a ab 00 20 	mov.b	r3l,@0x200000:32
    70b2:	00 00 
    70b4:	54 70       	rts	
    70b6:	18 bb       	sub.b	r3l,r3l
    70b8:	6f 02 00 3c 	mov.w	@(0x3c:16,r0),r2
    70bc:	46 02       	bne	.+2 (0x70c0)
    70be:	fb 01       	mov.b	#0x1,r3l
    70c0:	0c b8       	mov.b	r3l,r0l
    70c2:	54 70       	rts	
    70c4:	18 88       	sub.b	r0l,r0l
    70c6:	54 70       	rts	
    70c8:	01 20 6d f4 	stm.l	er4-er6,@-sp
    70cc:	0f 85       	mov.l	er0,er5
    70ce:	0f 96       	mov.l	er1,er6
    70d0:	0d 24       	mov.w	r2,r4
    70d2:	55 e2       	bsr	.-30 (0x70b6)
    70d4:	0c 88       	mov.b	r0l,r0l
    70d6:	47 06       	beq	.+6 (0x70de)
    70d8:	79 24 00 40 	cmp.w	#0x40,r4
    70dc:	4f 04       	ble	.+4 (0x70e2)
    70de:	18 88       	sub.b	r0l,r0l
    70e0:	40 24       	bra	.+36 (0x7106)
    70e2:	19 11       	sub.w	r1,r1
    70e4:	1d 41       	cmp.w	r4,r1
    70e6:	4c 18       	bge	.+24 (0x7100)
    70e8:	0d 10       	mov.w	r1,r0
    70ea:	17 f0       	exts.l	er0
    70ec:	0f d3       	mov.l	er5,er3
    70ee:	0a 83       	add.l	er0,er3
    70f0:	0f e2       	mov.l	er6,er2
    70f2:	0a 82       	add.l	er0,er2
    70f4:	68 2a       	mov.b	@r2,r2l
    70f6:	6e ba 00 3e 	mov.b	r2l,@(0x3e:16,r3)
    70fa:	0b 01       	adds	#1,r1
    70fc:	1d 41       	cmp.w	r4,r1
    70fe:	4d e8       	blt	.-24 (0x70e8)
    7100:	6f d4 00 3c 	mov.w	r4,@(0x3c:16,r5)
    7104:	f8 01       	mov.b	#0x1,r0l
    7106:	01 20 6d 76 	ldm.l	@sp+,er4-er6
    710a:	54 70       	rts	
    710c:	19 22       	sub.w	r2,r2
    710e:	69 82       	mov.w	r2,@r0
    7110:	6f 82 00 02 	mov.w	r2,@(0x2:16,r0)
    7114:	54 70       	rts	
    7116:	69 02       	mov.w	@r0,r2
    7118:	79 22 00 7f 	cmp.w	#0x7f,r2
    711c:	4e 14       	bgt	.+20 (0x7132)
    711e:	17 f2       	exts.l	er2
    7120:	10 72       	shll.l	#2,er2
    7122:	0f 83       	mov.l	er0,er3
    7124:	0a a3       	add.l	er2,er3
    7126:	01 00 6f b1 	mov.l	er1,@(0x4:16,r3)
    712a:	00 04 
    712c:	69 02       	mov.w	@r0,r2
    712e:	0b 02       	adds	#1,r2
    7130:	69 82       	mov.w	r2,@r0
    7132:	54 70       	rts	
    7134:	01 00 6d f4 	mov.l	er4,@-r7
    7138:	0f 94       	mov.l	er1,er4
    713a:	02 0a       	stc	ccr,r2l
    713c:	04 80       	orc	#0x80,ccr
    713e:	0c a9       	mov.b	r2l,r1l
    7140:	f1 00       	mov.b	#0x0,r1h
    7142:	6f 03 00 02 	mov.w	@(0x2:16,r0),r3
    7146:	69 02       	mov.w	@r0,r2
    7148:	1d 23       	cmp.w	r2,r3
    714a:	47 22       	beq	.+34 (0x716e)
    714c:	17 f3       	exts.l	er3
    714e:	10 73       	shll.l	#2,er3
    7150:	0f 82       	mov.l	er0,er2
    7152:	0a b2       	add.l	er3,er2
    7154:	01 00 6f 22 	mov.l	@(0x4:16,r2),er2
    7158:	00 04 
    715a:	01 00 69 c2 	mov.l	er2,@r4
    715e:	6f 02 00 02 	mov.w	@(0x2:16,r0),r2
    7162:	0b 02       	adds	#1,r2
    7164:	6f 82 00 02 	mov.w	r2,@(0x2:16,r0)
    7168:	03 09       	ldc	r1l,ccr
    716a:	f8 01       	mov.b	#0x1,r0l
    716c:	40 04       	bra	.+4 (0x7172)
    716e:	03 09       	ldc	r1l,ccr
    7170:	18 88       	sub.b	r0l,r0l
    7172:	01 00 6d 74 	mov.l	@r7+,er4
    7176:	54 70       	rts	
    7178:	7a 00 00 ff 	mov.l	#0xfff46c,er0
    717c:	f4 6c 
    717e:	55 8c       	bsr	.-116 (0x710c)
    7180:	54 70       	rts	
    7182:	61 00       	bnot	r0h,r0h
    7184:	01 00 6d f4 	mov.l	er4,@-r7
    7188:	0f 84       	mov.l	er0,er4
    718a:	1a a2       	sub.l	er2,er2
    718c:	1b 02       	subs	#1,r2
    718e:	01 00 6f c2 	mov.l	er2,@(0x24:16,r4)
    7192:	00 24 
    7194:	55 08       	bsr	.+8 (0x719e)
    7196:	0f c0       	mov.l	er4,er0
    7198:	01 00 6d 74 	mov.l	@r7+,er4
    719c:	54 70       	rts	
    719e:	19 22       	sub.w	r2,r2
    71a0:	69 82       	mov.w	r2,@r0
    71a2:	1a a2       	sub.l	er2,er2
    71a4:	01 00 6f 82 	mov.l	er2,@(0x4:16,r0)
    71a8:	00 04 
    71aa:	01 00 6f 82 	mov.l	er2,@(0x8:16,r0)
    71ae:	00 08 
    71b0:	01 00 6f 82 	mov.l	er2,@(0xc:16,r0)
    71b4:	00 0c 
    71b6:	6f 82 00 1c 	mov.w	r2,@(0x1c:16,r0)
    71ba:	01 00 6f 82 	mov.l	er2,@(0x20:16,r0)
    71be:	00 20 
    71c0:	1a a2       	sub.l	er2,er2
    71c2:	1b 02       	subs	#1,r2
    71c4:	01 00 6f 82 	mov.l	er2,@(0x24:16,r0)
    71c8:	00 24 
    71ca:	54 70       	rts	
    71cc:	18 bb       	sub.b	r3l,r3l
    71ce:	69 02       	mov.w	@r0,r2
    71d0:	47 02       	beq	.+2 (0x71d4)
    71d2:	fb 01       	mov.b	#0x1,r3l
    71d4:	0c b8       	mov.b	r3l,r0l
    71d6:	54 70       	rts	
    71d8:	7a 37 00 00 	sub.l	#0xc,er7
    71dc:	00 0c 
    71de:	01 20 6d f4 	stm.l	er4-er6,@-sp
    71e2:	0f 85       	mov.l	er0,er5
    71e4:	0f 96       	mov.l	er1,er6
    71e6:	0f e0       	mov.l	er6,er0
    71e8:	5e 00 6e 8e 	jsr	@0x6e8e:24
    71ec:	0c 88       	mov.b	r0l,r0l
    71ee:	47 38       	beq	.+56 (0x7228)
    71f0:	69 52       	mov.w	@r5,r2
    71f2:	79 22 00 02 	cmp.w	#0x2,r2
    71f6:	58 60 04 12 	bne	.+1042 (0x760c)
    71fa:	fa 4b       	mov.b	#0x4b,r2l
    71fc:	6e da 00 28 	mov.b	r2l,@(0x28:16,r5)
    7200:	6f 50 00 1c 	mov.w	@(0x1c:16,r5),r0
    7204:	0d 02       	mov.w	r0,r2
    7206:	0d 00       	mov.w	r0,r0
    7208:	4c 04       	bge	.+4 (0x720e)
    720a:	79 12 00 ff 	add.w	#0xff,r2
    720e:	0c 2a       	mov.b	r2h,r2l
    7210:	17 d2       	exts.w	r2
    7212:	6e d8 00 29 	mov.b	r0l,@(0x29:16,r5)
    7216:	6e da 00 2a 	mov.b	r2l,@(0x2a:16,r5)
    721a:	7a 15 00 00 	add.l	#0x28,er5
    721e:	00 28 
    7220:	79 02 00 03 	mov.w	#0x3,r2
    7224:	58 00 03 fa 	bra	.+1018 (0x7622)
    7228:	0f e0       	mov.l	er6,er0
    722a:	5e 00 6e a8 	jsr	@0x6ea8:24
    722e:	79 20 ff ff 	cmp.w	#0xffff,r0
    7232:	58 70 04 0a 	beq	.+1034 (0x7640)
    7236:	18 99       	sub.b	r1l,r1l
    7238:	79 20 00 1e 	cmp.w	#0x1e,r0
    723c:	46 26       	bne	.+38 (0x7264)
    723e:	0f d0       	mov.l	er5,er0
    7240:	5e 00 71 9e 	jsr	@0x719e:24
    7244:	7a 01 00 00 	mov.l	#0x4960,er1
    7248:	49 60 
    724a:	79 02 00 0c 	mov.w	#0xc,r2
    724e:	0f e0       	mov.l	er6,er0
    7250:	5e 00 70 c8 	jsr	@0x70c8:24
    7254:	0c 88       	mov.b	r0l,r0l
    7256:	58 70 03 d4 	beq	.+980 (0x762e)
    725a:	79 02 00 01 	mov.w	#0x1,r2
    725e:	69 d2       	mov.w	r2,@r5
    7260:	58 00 03 d6 	bra	.+982 (0x763a)
    7264:	69 52       	mov.w	@r5,r2
    7266:	79 22 00 01 	cmp.w	#0x1,r2
    726a:	58 60 00 bc 	bne	.+188 (0x732a)
    726e:	79 20 00 3c 	cmp.w	#0x3c,r0
    7272:	58 60 03 92 	bne	.+914 (0x7608)
    7276:	0f e0       	mov.l	er6,er0
    7278:	5e 00 6e c0 	jsr	@0x6ec0:24
    727c:	0f d4       	mov.l	er5,er4
    727e:	0b 94       	adds	#4,r4
    7280:	1a a2       	sub.l	er2,er2
    7282:	8a 0c       	add.b	#0xc,r2l
    7284:	0f 81       	mov.l	er0,er1
    7286:	0f c0       	mov.l	er4,er0
    7288:	5e 00 12 0c 	jsr	@0x120c:24
    728c:	19 22       	sub.w	r2,r2
    728e:	6f d2 00 1c 	mov.w	r2,@(0x1c:16,r5)
    7292:	1a a2       	sub.l	er2,er2
    7294:	01 00 6f d2 	mov.l	er2,@(0x20:16,r5)
    7298:	00 20 
    729a:	01 00 69 41 	mov.l	@r4,er1
    729e:	0f e0       	mov.l	er6,er0
    72a0:	5e 00 6e fa 	jsr	@0x6efa:24
    72a4:	01 00 69 42 	mov.l	@r4,er2
    72a8:	01 00 6d f2 	mov.l	er2,@-r7
    72ac:	7a 02 00 00 	mov.l	#0x4846,er2
    72b0:	48 46 
    72b2:	01 00 6d f2 	mov.l	er2,@-r7
    72b6:	5e 00 5a 20 	jsr	@0x5a20:24
    72ba:	01 00 6f 52 	mov.l	@(0xc:16,r5),er2
    72be:	00 0c 
    72c0:	01 00 6d f2 	mov.l	er2,@-r7
    72c4:	01 00 6f 52 	mov.l	@(0x8:16,r5),er2
    72c8:	00 08 
    72ca:	01 00 6d f2 	mov.l	er2,@-r7
    72ce:	7a 02 00 00 	mov.l	#0x485f,er2
    72d2:	48 5f 
    72d4:	01 00 6d f2 	mov.l	er2,@-r7
    72d8:	5e 00 5a 20 	jsr	@0x5a20:24
    72dc:	fa 4b       	mov.b	#0x4b,r2l
    72de:	6e da 00 28 	mov.b	r2l,@(0x28:16,r5)
    72e2:	6f 50 00 1c 	mov.w	@(0x1c:16,r5),r0
    72e6:	0d 02       	mov.w	r0,r2
    72e8:	0d 00       	mov.w	r0,r0
    72ea:	4c 04       	bge	.+4 (0x72f0)
    72ec:	79 12 00 ff 	add.w	#0xff,r2
    72f0:	0c 2a       	mov.b	r2h,r2l
    72f2:	17 d2       	exts.w	r2
    72f4:	6e d8 00 29 	mov.b	r0l,@(0x29:16,r5)
    72f8:	6e da 00 2a 	mov.b	r2l,@(0x2a:16,r5)
    72fc:	7a 15 00 00 	add.l	#0x28,er5
    7300:	00 28 
    7302:	79 02 00 03 	mov.w	#0x3,r2
    7306:	0f d1       	mov.l	er5,er1
    7308:	7a 15 ff ff 	add.l	#0xffffffd8,er5
    730c:	ff d8 
    730e:	0f e0       	mov.l	er6,er0
    7310:	5e 00 70 c8 	jsr	@0x70c8:24
    7314:	7a 17 00 00 	add.l	#0x14,er7
    7318:	00 14 
    731a:	0c 88       	mov.b	r0l,r0l
    731c:	58 70 03 0e 	beq	.+782 (0x762e)
    7320:	79 02 00 02 	mov.w	#0x2,r2
    7324:	69 d2       	mov.w	r2,@r5
    7326:	58 00 03 10 	bra	.+784 (0x763a)
    732a:	79 22 00 02 	cmp.w	#0x2,r2
    732e:	58 60 02 d6 	bne	.+726 (0x7608)
    7332:	79 20 00 5a 	cmp.w	#0x5a,r0
    7336:	58 60 02 ce 	bne	.+718 (0x7608)
    733a:	18 bb       	sub.b	r3l,r3l
    733c:	6e fb 00 17 	mov.b	r3l,@(0x17:16,r7)
    7340:	0f e0       	mov.l	er6,er0
    7342:	5e 00 6e de 	jsr	@0x6ede:24
    7346:	01 00 6f f5 	mov.l	er5,@(0x10:16,r7)
    734a:	00 10 
    734c:	0f d4       	mov.l	er5,er4
    734e:	7a 14 00 00 	add.l	#0x10,er4
    7352:	00 10 
    7354:	01 00 6f f4 	mov.l	er4,@(0x10:16,r7)
    7358:	00 10 
    735a:	1a a2       	sub.l	er2,er2
    735c:	8a 0c       	add.b	#0xc,r2l
    735e:	0f 81       	mov.l	er0,er1
    7360:	01 00 6f 70 	mov.l	@(0x10:16,r7),er0
    7364:	00 10 
    7366:	5e 00 12 0c 	jsr	@0x120c:24
    736a:	69 40       	mov.w	@r4,r0
    736c:	6f 52 00 1c 	mov.w	@(0x1c:16,r5),r2
    7370:	1d 20       	cmp.w	r2,r0
    7372:	58 60 02 2c 	bne	.+556 (0x75a2)
    7376:	6f 53 00 14 	mov.w	@(0x14:16,r5),r3
    737a:	17 f3       	exts.l	er3
    737c:	01 00 6f f3 	mov.l	er3,@(0xc:16,r7)
    7380:	00 0c 
    7382:	01 00 6f f5 	mov.l	er5,@(0x10:16,r7)
    7386:	00 10 
    7388:	0f d4       	mov.l	er5,er4
    738a:	7a 14 00 00 	add.l	#0x24,er4
    738e:	00 24 
    7390:	01 00 6f f4 	mov.l	er4,@(0x10:16,r7)
    7394:	00 10 
    7396:	01 00 6f 51 	mov.l	@(0x4:16,r5),er1
    739a:	00 04 
    739c:	01 00 6f 52 	mov.l	@(0x20:16,r5),er2
    73a0:	00 20 
    73a2:	0a a1       	add.l	er2,er1
    73a4:	01 00 6f 70 	mov.l	@(0xc:16,r7),er0
    73a8:	00 0c 
    73aa:	1b 00       	subs	#1,r0
    73ac:	0f b3       	mov.l	er3,er3
    73ae:	47 48       	beq	.+72 (0x73f8)
    73b0:	6c 1a       	mov.b	@r1+,r2l
    73b2:	f2 00       	mov.b	#0x0,r2h
    73b4:	01 00 6f 73 	mov.l	@(0x10:16,r7),er3
    73b8:	00 10 
    73ba:	6f 33 00 02 	mov.w	@(0x2:16,r3),r3
    73be:	65 32       	xor.w	r3,r2
    73c0:	10 72       	shll.l	#2,er2
    73c2:	7a 62 00 00 	and.l	#0x3fc,er2
    73c6:	03 fc 
    73c8:	01 00 6f 74 	mov.l	@(0x10:16,r7),er4
    73cc:	00 10 
    73ce:	01 00 69 44 	mov.l	@r4,er4
    73d2:	11 74       	shlr.l	#2,er4
    73d4:	11 74       	shlr.l	#2,er4
    73d6:	11 74       	shlr.l	#2,er4
    73d8:	11 74       	shlr.l	#2,er4
    73da:	01 00 78 20 	mov.l	@(0x4e0:32,r2),er2
    73de:	6b 22 00 00 
    73e2:	04 e0 
    73e4:	01 f0 65 42 	xor.l	er4,er2
    73e8:	01 00 6f 74 	mov.l	@(0x10:16,r7),er4
    73ec:	00 10 
    73ee:	01 00 69 c2 	mov.l	er2,@r4
    73f2:	0f 82       	mov.l	er0,er2
    73f4:	1b 00       	subs	#1,r0
    73f6:	46 b8       	bne	.-72 (0x73b0)
    73f8:	6f 53 00 14 	mov.w	@(0x14:16,r5),r3
    73fc:	17 f3       	exts.l	er3
    73fe:	01 00 6f 52 	mov.l	@(0x20:16,r5),er2
    7402:	00 20 
    7404:	0a b2       	add.l	er3,er2
    7406:	01 00 6f d2 	mov.l	er2,@(0x20:16,r5)
    740a:	00 20 
    740c:	01 00 6f 53 	mov.l	@(0x8:16,r5),er3
    7410:	00 08 
    7412:	01 00 6d f3 	mov.l	er3,@-r7
    7416:	01 00 6d f2 	mov.l	er2,@-r7
    741a:	7a 02 00 00 	mov.l	#0x4882,er2
    741e:	48 82 
    7420:	01 00 6d f2 	mov.l	er2,@-r7
    7424:	5e 00 5a 20 	jsr	@0x5a20:24
    7428:	01 00 6f 52 	mov.l	@(0x20:16,r5),er2
    742c:	00 20 
    742e:	01 00 6f 50 	mov.l	@(0x8:16,r5),er0
    7432:	00 08 
    7434:	7a 17 00 00 	add.l	#0xc,er7
    7438:	00 0c 
    743a:	1f 82       	cmp.l	er0,er2
    743c:	58 60 00 d6 	bne	.+214 (0x7516)
    7440:	01 00 6f 73 	mov.l	@(0x10:16,r7),er3
    7444:	00 10 
    7446:	01 00 69 30 	mov.l	@r3,er0
    744a:	17 30       	not.l	er0
    744c:	01 00 6f 52 	mov.l	@(0xc:16,r5),er2
    7450:	00 0c 
    7452:	1f 82       	cmp.l	er0,er2
    7454:	47 0e       	beq	.+14 (0x7464)
    7456:	01 00 6d f0 	mov.l	er0,@-r7
    745a:	7a 02 00 00 	mov.l	#0x48a1,er2
    745e:	48 a1 
    7460:	58 00 01 2a 	bra	.+298 (0x758e)
    7464:	fa 69       	mov.b	#0x69,r2l
    7466:	6e da 00 28 	mov.b	r2l,@(0x28:16,r5)
    746a:	7a 15 00 00 	add.l	#0x28,er5
    746e:	00 28 
    7470:	79 02 00 01 	mov.w	#0x1,r2
    7474:	0f d1       	mov.l	er5,er1
    7476:	7a 15 ff ff 	add.l	#0xffffffd8,er5
    747a:	ff d8 
    747c:	0f e0       	mov.l	er6,er0
    747e:	5e 00 70 c8 	jsr	@0x70c8:24
    7482:	0c 88       	mov.b	r0l,r0l
    7484:	46 0c       	bne	.+12 (0x7492)
    7486:	7a 00 00 00 	mov.l	#0x482e,er0
    748a:	48 2e 
    748c:	1a 91       	sub.l	er1,er1
    748e:	5e 00 59 e0 	jsr	@0x59e0:24
    7492:	01 00 6f 52 	mov.l	@(0xc:16,r5),er2
    7496:	00 0c 
    7498:	01 00 6d f2 	mov.l	er2,@-r7
    749c:	01 00 6f 52 	mov.l	@(0x8:16,r5),er2
    74a0:	00 08 
    74a2:	01 00 6d f2 	mov.l	er2,@-r7
    74a6:	7a 02 00 00 	mov.l	#0x48b7,er2
    74aa:	48 b7 
    74ac:	01 00 6d f2 	mov.l	er2,@-r7
    74b0:	5e 00 5a 20 	jsr	@0x5a20:24
    74b4:	01 00 6f 52 	mov.l	@(0x4:16,r5),er2
    74b8:	00 04 
    74ba:	01 00 69 22 	mov.l	@r2,er2
    74be:	7a 17 00 00 	add.l	#0xc,er7
    74c2:	00 0c 
    74c4:	7a 22 ff c0 	cmp.l	#0xffc0ffab,er2
    74c8:	ff ab 
    74ca:	46 30       	bne	.+48 (0x74fc)
    74cc:	0f e0       	mov.l	er6,er0
    74ce:	5e 00 63 02 	jsr	@0x6302:24
    74d2:	01 00 6f 52 	mov.l	@(0x4:16,r5),er2
    74d6:	00 04 
    74d8:	01 00 6d f2 	mov.l	er2,@-r7
    74dc:	7a 02 00 00 	mov.l	#0x48e3,er2
    74e0:	48 e3 
    74e2:	01 00 6d f2 	mov.l	er2,@-r7
    74e6:	5e 00 5a 20 	jsr	@0x5a20:24
    74ea:	01 00 6f 50 	mov.l	@(0x4:16,r5),er0
    74ee:	00 04 
    74f0:	f9 01       	mov.b	#0x1,r1l
    74f2:	5e 00 4c 54 	jsr	@0x4c54:24
    74f6:	0b 97       	adds	#4,r7
    74f8:	0b 97       	adds	#4,r7
    74fa:	40 10       	bra	.+16 (0x750c)
    74fc:	7a 02 00 00 	mov.l	#0x48f5,er2
    7500:	48 f5 
    7502:	01 00 6d f2 	mov.l	er2,@-r7
    7506:	5e 00 5a 20 	jsr	@0x5a20:24
    750a:	0b 97       	adds	#4,r7
    750c:	0f d0       	mov.l	er5,er0
    750e:	5e 00 71 9e 	jsr	@0x719e:24
    7512:	58 00 00 ae 	bra	.+174 (0x75c4)
    7516:	1f 82       	cmp.l	er0,er2
    7518:	44 6a       	bcc	.+106 (0x7584)
    751a:	01 00 6f 51 	mov.l	@(0x4:16,r5),er1
    751e:	00 04 
    7520:	0a a1       	add.l	er2,er1
    7522:	0f e0       	mov.l	er6,er0
    7524:	5e 00 6e fa 	jsr	@0x6efa:24
    7528:	6f 50 00 1c 	mov.w	@(0x1c:16,r5),r0
    752c:	0d 01       	mov.w	r0,r1
    752e:	0b 01       	adds	#1,r1
    7530:	6f d1 00 1c 	mov.w	r1,@(0x1c:16,r5)
    7534:	fa 4b       	mov.b	#0x4b,r2l
    7536:	6e da 00 28 	mov.b	r2l,@(0x28:16,r5)
    753a:	0d 12       	mov.w	r1,r2
    753c:	0d 11       	mov.w	r1,r1
    753e:	4c 06       	bge	.+6 (0x7546)
    7540:	0d 02       	mov.w	r0,r2
    7542:	79 12 01 00 	add.w	#0x100,r2
    7546:	0c 2a       	mov.b	r2h,r2l
    7548:	17 d2       	exts.w	r2
    754a:	6e d9 00 29 	mov.b	r1l,@(0x29:16,r5)
    754e:	6e da 00 2a 	mov.b	r2l,@(0x2a:16,r5)
    7552:	7a 15 00 00 	add.l	#0x28,er5
    7556:	00 28 
    7558:	79 02 00 03 	mov.w	#0x3,r2
    755c:	0f d1       	mov.l	er5,er1
    755e:	7a 15 ff ff 	add.l	#0xffffffd8,er5
    7562:	ff d8 
    7564:	0f e0       	mov.l	er6,er0
    7566:	5e 00 70 c8 	jsr	@0x70c8:24
    756a:	0c 88       	mov.b	r0l,r0l
    756c:	46 0e       	bne	.+14 (0x757c)
    756e:	7a 00 00 00 	mov.l	#0x482e,er0
    7572:	48 2e 
    7574:	1a 91       	sub.l	er1,er1
    7576:	5e 00 59 e0 	jsr	@0x59e0:24
    757a:	40 48       	bra	.+72 (0x75c4)
    757c:	79 02 00 02 	mov.w	#0x2,r2
    7580:	69 d2       	mov.w	r2,@r5
    7582:	40 40       	bra	.+64 (0x75c4)
    7584:	01 00 6d f2 	mov.l	er2,@-r7
    7588:	7a 02 00 00 	mov.l	#0x4909,er2
    758c:	49 09 
    758e:	01 00 6d f2 	mov.l	er2,@-r7
    7592:	5e 00 5a 20 	jsr	@0x5a20:24
    7596:	fc 01       	mov.b	#0x1,r4l
    7598:	6e fc 00 1f 	mov.b	r4l,@(0x1f:16,r7)
    759c:	0b 97       	adds	#4,r7
    759e:	0b 97       	adds	#4,r7
    75a0:	40 22       	bra	.+34 (0x75c4)
    75a2:	01 00 6d f2 	mov.l	er2,@-r7
    75a6:	01 00 6d f0 	mov.l	er0,@-r7
    75aa:	7a 02 00 00 	mov.l	#0x4920,er2
    75ae:	49 20 
    75b0:	01 00 6d f2 	mov.l	er2,@-r7
    75b4:	5e 00 5a 20 	jsr	@0x5a20:24
    75b8:	fb 01       	mov.b	#0x1,r3l
    75ba:	6e fb 00 23 	mov.b	r3l,@(0x23:16,r7)
    75be:	7a 17 00 00 	add.l	#0xc,er7
    75c2:	00 0c 
    75c4:	6e 7c 00 17 	mov.b	@(0x17:16,r7),r4l
    75c8:	47 3c       	beq	.+60 (0x7606)
    75ca:	0f d0       	mov.l	er5,er0
    75cc:	5e 00 71 9e 	jsr	@0x719e:24
    75d0:	fa 1e       	mov.b	#0x1e,r2l
    75d2:	6e da 00 28 	mov.b	r2l,@(0x28:16,r5)
    75d6:	7a 15 00 00 	add.l	#0x28,er5
    75da:	00 28 
    75dc:	79 02 00 01 	mov.w	#0x1,r2
    75e0:	0f d1       	mov.l	er5,er1
    75e2:	7a 15 ff ff 	add.l	#0xffffffd8,er5
    75e6:	ff d8 
    75e8:	0f e0       	mov.l	er6,er0
    75ea:	5e 00 70 c8 	jsr	@0x70c8:24
    75ee:	0c 88       	mov.b	r0l,r0l
    75f0:	46 08       	bne	.+8 (0x75fa)
    75f2:	7a 00 00 00 	mov.l	#0x482e,er0
    75f6:	48 2e 
    75f8:	40 06       	bra	.+6 (0x7600)
    75fa:	7a 00 00 00 	mov.l	#0x4942,er0
    75fe:	49 42 
    7600:	1a 91       	sub.l	er1,er1
    7602:	5e 00 59 e0 	jsr	@0x59e0:24
    7606:	f9 01       	mov.b	#0x1,r1l
    7608:	0c 99       	mov.b	r1l,r1l
    760a:	46 2e       	bne	.+46 (0x763a)
    760c:	0f d0       	mov.l	er5,er0
    760e:	5e 00 71 9e 	jsr	@0x719e:24
    7612:	fa 1e       	mov.b	#0x1e,r2l
    7614:	6e da 00 28 	mov.b	r2l,@(0x28:16,r5)
    7618:	7a 15 00 00 	add.l	#0x28,er5
    761c:	00 28 
    761e:	79 02 00 01 	mov.w	#0x1,r2
    7622:	0f d1       	mov.l	er5,er1
    7624:	0f e0       	mov.l	er6,er0
    7626:	5e 00 70 c8 	jsr	@0x70c8:24
    762a:	0c 88       	mov.b	r0l,r0l
    762c:	46 0c       	bne	.+12 (0x763a)
    762e:	7a 00 00 00 	mov.l	#0x482e,er0
    7632:	48 2e 
    7634:	1a 91       	sub.l	er1,er1
    7636:	5e 00 59 e0 	jsr	@0x59e0:24
    763a:	0f e0       	mov.l	er6,er0
    763c:	5e 00 6e a0 	jsr	@0x6ea0:24
    7640:	01 20 6d 76 	ldm.l	@sp+,er4-er6
    7644:	7a 17 00 00 	add.l	#0xc,er7
    7648:	00 0c 
    764a:	54 70       	rts	
    764c:	1b 97       	subs	#4,r7
    764e:	01 20 6d f4 	stm.l	er4-er6,@-sp
    7652:	0f 85       	mov.l	er0,er5
    7654:	01 00 6f f1 	mov.l	er1,@(0xc:16,r7)
    7658:	00 0c 
    765a:	0f a6       	mov.l	er2,er6
    765c:	7a 02 16 49 	mov.l	#0x1649b442,er2
    7660:	b4 42 
    7662:	01 00 6b 82 	mov.l	er2,@0xedee:16
    7666:	ed ee 
    7668:	1a c4       	sub.l	er4,er4
    766a:	1f e4       	cmp.l	er6,er4
    766c:	44 38       	bcc	.+56 (0x76a6)
    766e:	01 00 6b 00 	mov.l	@0xedee:16,er0
    7672:	ed ee 
    7674:	7a 01 00 03 	mov.l	#0x343fd,er1
    7678:	43 fd 
    767a:	55 34       	bsr	.+52 (0x76b0)
    767c:	7a 10 00 26 	add.l	#0x269ec3,er0
    7680:	9e c3 
    7682:	01 00 6b 80 	mov.l	er0,@0xedee:16
    7686:	ed ee 
    7688:	0d 80       	mov.w	e0,r0
    768a:	19 88       	sub.w	e0,e0
    768c:	01 00 6f 73 	mov.l	@(0xc:16,r7),er3
    7690:	00 0c 
    7692:	6c 3a       	mov.b	@r3+,r2l
    7694:	01 00 6f f3 	mov.l	er3,@(0xc:16,r7)
    7698:	00 0c 
    769a:	15 8a       	xor.b	r0l,r2l
    769c:	68 da       	mov.b	r2l,@r5
    769e:	0b 05       	adds	#1,r5
    76a0:	0b 04       	adds	#1,r4
    76a2:	1f e4       	cmp.l	er6,er4
    76a4:	45 c8       	bcs	.-56 (0x766e)
    76a6:	0f e0       	mov.l	er6,er0
    76a8:	01 20 6d 76 	ldm.l	@sp+,er4-er6
    76ac:	0b 97       	adds	#4,r7
    76ae:	54 70       	rts	
    76b0:	1a a2       	sub.l	er2,er2
    76b2:	0f 80       	mov.l	er0,er0
    76b4:	47 0c       	beq	.+12 (0x76c2)
    76b6:	77 08       	bld	#0x0,r0l
    76b8:	44 02       	bcc	.+2 (0x76bc)
    76ba:	0a 92       	add.l	er1,er2
    76bc:	11 30       	shlr.l	er0
    76be:	10 31       	shll.l	er1
    76c0:	40 f0       	bra	.-16 (0x76b2)
    76c2:	0f a0       	mov.l	er2,er0
    76c4:	54 70       	rts	
    76c6:	fe 00       	mov.b	#0x0,r6l
    76c8:	0f 80       	mov.l	er0,er0
    76ca:	4c 04       	bge	.+4 (0x76d0)
    76cc:	17 b0       	neg.l	er0
    76ce:	fe 01       	mov.b	#0x1,r6l
    76d0:	0f 91       	mov.l	er1,er1
    76d2:	4c 04       	bge	.+4 (0x76d8)
    76d4:	17 b1       	neg.l	er1
    76d6:	de 01       	xor.b	#0x1,r6l
    76d8:	54 70       	rts	
    76da:	fe 00       	mov.b	#0x0,r6l
    76dc:	0f 80       	mov.l	er0,er0
    76de:	4c 04       	bge	.+4 (0x76e4)
    76e0:	17 b0       	neg.l	er0
    76e2:	fe 01       	mov.b	#0x1,r6l
    76e4:	0f 91       	mov.l	er1,er1
    76e6:	4c 02       	bge	.+2 (0x76ea)
    76e8:	17 b1       	neg.l	er1
    76ea:	54 70       	rts	
    76ec:	01 00 6d f6 	mov.l	er6,@-r7
    76f0:	01 00 6d f4 	mov.l	er4,@-r7
    76f4:	01 00 6d f5 	mov.l	er5,@-r7
    76f8:	55 e0       	bsr	.-32 (0x76da)
    76fa:	55 4e       	bsr	.+78 (0x774a)
    76fc:	0f c0       	mov.l	er4,er0
    76fe:	40 36       	bra	.+54 (0x7736)
    7700:	01 00 6d f6 	mov.l	er6,@-r7
    7704:	01 00 6d f4 	mov.l	er4,@-r7
    7708:	01 00 6d f5 	mov.l	er5,@-r7
    770c:	fe 00       	mov.b	#0x0,r6l
    770e:	55 3a       	bsr	.+58 (0x774a)
    7710:	40 24       	bra	.+36 (0x7736)
    7712:	01 00 6d f6 	mov.l	er6,@-r7
    7716:	01 00 6d f4 	mov.l	er4,@-r7
    771a:	01 00 6d f5 	mov.l	er5,@-r7
    771e:	fe 00       	mov.b	#0x0,r6l
    7720:	55 28       	bsr	.+40 (0x774a)
    7722:	0f c0       	mov.l	er4,er0
    7724:	40 10       	bra	.+16 (0x7736)
    7726:	01 00 6d f6 	mov.l	er6,@-r7
    772a:	01 00 6d f4 	mov.l	er4,@-r7
    772e:	01 00 6d f5 	mov.l	er5,@-r7
    7732:	55 92       	bsr	.-110 (0x76c6)
    7734:	55 14       	bsr	.+20 (0x774a)
    7736:	01 00 6d 75 	mov.l	@r7+,er5
    773a:	01 00 6d 74 	mov.l	@r7+,er4
    773e:	14 ee       	or.b	r6l,r6l
    7740:	47 02       	beq	.+2 (0x7744)
    7742:	17 b0       	neg.l	er0
    7744:	01 00 6d 76 	mov.l	@r7+,er6
    7748:	54 70       	rts	
    774a:	1a c4       	sub.l	er4,er4
    774c:	0d 99       	mov.w	e1,e1
    774e:	46 12       	bne	.+18 (0x7762)
    7750:	0d 82       	mov.w	e0,r2
    7752:	17 72       	extu.l	er2
    7754:	53 12       	divxu.w	r1,er2
    7756:	0d a8       	mov.w	e2,e0
    7758:	53 10       	divxu.w	r1,er0
    775a:	0d 84       	mov.w	e0,r4
    775c:	0d 28       	mov.w	r2,e0
    775e:	17 74       	extu.l	er4
    7760:	54 70       	rts	
    7762:	0d 82       	mov.w	e0,r2
    7764:	0c 2c       	mov.b	r2h,r4l
    7766:	0c a2       	mov.b	r2l,r2h
    7768:	0c 0a       	mov.b	r0h,r2l
    776a:	0d 28       	mov.w	r2,e0
    776c:	0c 80       	mov.b	r0l,r0h
    776e:	f8 00       	mov.b	#0x0,r0l
    7770:	f6 18       	mov.b	#0x18,r6h
    7772:	10 30       	shll.l	er0
    7774:	12 34       	rotxl.l	er4
    7776:	1a 94       	sub.l	er1,er4
    7778:	44 08       	bcc	.+8 (0x7782)
    777a:	0a 94       	add.l	er1,er4
    777c:	1a 06       	dec.b	r6h
    777e:	46 f2       	bne	.-14 (0x7772)
    7780:	54 70       	rts	
    7782:	0a 08       	inc	r0l
    7784:	1a 06       	dec.b	r6h
    7786:	46 ea       	bne	.-22 (0x7772)
    7788:	54 70       	rts	
    778a:	00 00       	nop	
    778c:	52 ca       	.word	H'52,H'ca
    778e:	00 00       	nop	
    7790:	71 78       	bnot	#0x7,r0l
    7792:	00 00       	nop	
    7794:	00 00       	nop	
    7796:	00 00       	nop	
    7798:	0b 3c       	.word	H'b,H'3c
    779a:	00 00       	nop	
    779c:	0b 3c       	.word	H'b,H'3c
    779e:	00 00       	nop	
    77a0:	0b 3c       	.word	H'b,H'3c
    77a2:	00 00       	nop	
    77a4:	0b 3c       	.word	H'b,H'3c
    77a6:	00 00       	nop	
    77a8:	0b 3c       	.word	H'b,H'3c
    77aa:	00 00       	nop	
    77ac:	0b 3c       	.word	H'b,H'3c
    77ae:	00 00       	nop	
    77b0:	0b 3c       	.word	H'b,H'3c
    77b2:	00 00       	nop	
    77b4:	0b 3c       	.word	H'b,H'3c
    77b6:	00 00       	nop	
    77b8:	0b 3c       	.word	H'b,H'3c
    77ba:	00 00       	nop	
    77bc:	0b 3c       	.word	H'b,H'3c
    77be:	00 00       	nop	
    77c0:	0b 3c       	.word	H'b,H'3c
    77c2:	00 00       	nop	
    77c4:	0b 3c       	.word	H'b,H'3c
    77c6:	00 00       	nop	
    77c8:	0b 3c       	.word	H'b,H'3c
    77ca:	00 00       	nop	
    77cc:	0b 3c       	.word	H'b,H'3c
    77ce:	00 00       	nop	
    77d0:	0b 3c       	.word	H'b,H'3c
    77d2:	00 00       	nop	
    77d4:	0b 3c       	.word	H'b,H'3c
    77d6:	00 00       	nop	
    77d8:	0b 3c       	.word	H'b,H'3c
    77da:	00 00       	nop	
    77dc:	0b 3c       	.word	H'b,H'3c
    77de:	00 00       	nop	
    77e0:	0b 3c       	.word	H'b,H'3c
    77e2:	00 00       	nop	
    77e4:	0b 3c       	.word	H'b,H'3c
    77e6:	00 00       	nop	
    77e8:	0b 3c       	.word	H'b,H'3c
    77ea:	00 00       	nop	
    77ec:	0b 3c       	.word	H'b,H'3c
    77ee:	00 00       	nop	
    77f0:	0b 3c       	.word	H'b,H'3c
    77f2:	00 00       	nop	
    77f4:	0b 3c       	.word	H'b,H'3c
    77f6:	00 00       	nop	
    77f8:	0b 3c       	.word	H'b,H'3c
    77fa:	00 00       	nop	
    77fc:	0b 3c       	.word	H'b,H'3c
    77fe:	00 00       	nop	
    7800:	0b 3c       	.word	H'b,H'3c
    7802:	00 00       	nop	
    7804:	0b 3c       	.word	H'b,H'3c
    7806:	00 00       	nop	
    7808:	0b 3c       	.word	H'b,H'3c
    780a:	00 00       	nop	
    780c:	0b 3c       	.word	H'b,H'3c
    780e:	00 00       	nop	
    7810:	0b 3c       	.word	H'b,H'3c
    7812:	00 00       	nop	
    7814:	0b 3c       	.word	H'b,H'3c
    7816:	00 00       	nop	
    7818:	0b 3c       	.word	H'b,H'3c
    781a:	00 00       	nop	
    781c:	0b 3c       	.word	H'b,H'3c
    781e:	00 00       	nop	
    7820:	0b 3c       	.word	H'b,H'3c
    7822:	00 00       	nop	
    7824:	0b 3c       	.word	H'b,H'3c
    7826:	00 00       	nop	
    7828:	0b 3c       	.word	H'b,H'3c
    782a:	00 00       	nop	
    782c:	0b 3c       	.word	H'b,H'3c
    782e:	00 00       	nop	
    7830:	0b 3c       	.word	H'b,H'3c
    7832:	00 00       	nop	
    7834:	0b 3c       	.word	H'b,H'3c
    7836:	00 00       	nop	
    7838:	0b 3c       	.word	H'b,H'3c
    783a:	00 00       	nop	
    783c:	0b 3c       	.word	H'b,H'3c
    783e:	00 00       	nop	
    7840:	0b 3c       	.word	H'b,H'3c
    7842:	00 00       	nop	
    7844:	0b 3c       	.word	H'b,H'3c
    7846:	00 00       	nop	
    7848:	0b 3c       	.word	H'b,H'3c
    784a:	00 00       	nop	
    784c:	0b 3c       	.word	H'b,H'3c
    784e:	00 00       	nop	
    7850:	0b 3c       	.word	H'b,H'3c
    7852:	00 00       	nop	
    7854:	0b 3c       	.word	H'b,H'3c
    7856:	00 00       	nop	
    7858:	0b 3c       	.word	H'b,H'3c
    785a:	00 00       	nop	
    785c:	0b 3c       	.word	H'b,H'3c
    785e:	00 00       	nop	
    7860:	0b 3c       	.word	H'b,H'3c
    7862:	00 00       	nop	
    7864:	0b 3c       	.word	H'b,H'3c
    7866:	00 00       	nop	
    7868:	0b 3c       	.word	H'b,H'3c
    786a:	00 00       	nop	
    786c:	0b 3c       	.word	H'b,H'3c
    786e:	00 00       	nop	
    7870:	0b 3c       	.word	H'b,H'3c
    7872:	00 00       	nop	
    7874:	0b 3c       	.word	H'b,H'3c
    7876:	00 00       	nop	
    7878:	0b 3c       	.word	H'b,H'3c
    787a:	00 00       	nop	
    787c:	0b 3c       	.word	H'b,H'3c
    787e:	00 00       	nop	
    7880:	0b 3c       	.word	H'b,H'3c
    7882:	00 00       	nop	
    7884:	0b 3c       	.word	H'b,H'3c
    7886:	00 00       	nop	
    7888:	0b 3c       	.word	H'b,H'3c
    788a:	00 00       	nop	
    788c:	04 b6       	orc	#0xb6,ccr
    788e:	05 3c       	xorc	#0x3c,ccr
    7890:	64 54       	or.w	r5,r4
    7892:	c0 30       	or.b	#0x30,r0h
    7894:	0c 03       	mov.b	r0h,r3h
    7896:	ff 3f       	mov.b	#0x3f,r7l
    7898:	0f 03       	daa	r3h
    789a:	c0 f0       	or.b	#0xf0,r0h
    789c:	fc ff       	mov.b	#0xff,r4l
    789e:	00 55       	.word	H'0,H'55
    78a0:	aa ff       	cmp.b	#0xff,r2l
    78a2:	00 00       	nop	
    78a4:	00 00       	nop	
    78a6:	40 10       	bra	.+16 (0x78b8)
    78a8:	04 01       	orc	#0x1,ccr
    78aa:	80 20       	add.b	#0x20,r0h
    78ac:	08 02       	add.b	r0h,r2h
    78ae:	c0 30       	or.b	#0x30,r0h
    78b0:	0c 03       	mov.b	r0h,r3h
	...
    797e:	00 00       	nop	
    7980:	16 49       	and.b	r4h,r1l
    7982:	b4 42       	subx	#0x42,r4h
    7984:	ff ff       	mov.b	#0xff,r7l
    7986:	ff ff       	mov.b	#0xff,r7l
    7988:	ff ff       	mov.b	#0xff,r7l
    798a:	ff ff       	mov.b	#0xff,r7l
    798c:	ff ff       	mov.b	#0xff,r7l
    798e:	ff ff       	mov.b	#0xff,r7l
    7990:	ff ff       	mov.b	#0xff,r7l
    7992:	ff ff       	mov.b	#0xff,r7l
    7994:	ff ff       	mov.b	#0xff,r7l
    7996:	ff ff       	mov.b	#0xff,r7l
    7998:	ff ff       	mov.b	#0xff,r7l
    799a:	ff ff       	mov.b	#0xff,r7l
    799c:	ff ff       	mov.b	#0xff,r7l
    799e:	ff ff       	mov.b	#0xff,r7l
    79a0:	ff ff       	mov.b	#0xff,r7l
    79a2:	ff ff       	mov.b	#0xff,r7l
    79a4:	ff ff       	mov.b	#0xff,r7l
    79a6:	ff ff       	mov.b	#0xff,r7l
    79a8:	ff ff       	mov.b	#0xff,r7l
    79aa:	ff ff       	mov.b	#0xff,r7l
    79ac:	ff ff       	mov.b	#0xff,r7l
    79ae:	ff ff       	mov.b	#0xff,r7l
    79b0:	ff ff       	mov.b	#0xff,r7l
    79b2:	ff ff       	mov.b	#0xff,r7l
    79b4:	ff ff       	mov.b	#0xff,r7l
    79b6:	ff ff       	mov.b	#0xff,r7l
    79b8:	ff ff       	mov.b	#0xff,r7l
    79ba:	ff ff       	mov.b	#0xff,r7l
    79bc:	ff ff       	mov.b	#0xff,r7l
    79be:	ff ff       	mov.b	#0xff,r7l
    79c0:	ff ff       	mov.b	#0xff,r7l
    79c2:	ff ff       	mov.b	#0xff,r7l
    79c4:	ff ff       	mov.b	#0xff,r7l
    79c6:	ff ff       	mov.b	#0xff,r7l
    79c8:	ff ff       	mov.b	#0xff,r7l
    79ca:	ff ff       	mov.b	#0xff,r7l
    79cc:	ff ff       	mov.b	#0xff,r7l
    79ce:	ff ff       	mov.b	#0xff,r7l
    79d0:	ff ff       	mov.b	#0xff,r7l
    79d2:	ff ff       	mov.b	#0xff,r7l
    79d4:	ff ff       	mov.b	#0xff,r7l
    79d6:	ff ff       	mov.b	#0xff,r7l
    79d8:	ff ff       	mov.b	#0xff,r7l
    79da:	ff ff       	mov.b	#0xff,r7l
    79dc:	ff ff       	mov.b	#0xff,r7l
    79de:	ff ff       	mov.b	#0xff,r7l
    79e0:	ff ff       	mov.b	#0xff,r7l
    79e2:	ff ff       	mov.b	#0xff,r7l
    79e4:	ff ff       	mov.b	#0xff,r7l
    79e6:	ff ff       	mov.b	#0xff,r7l
    79e8:	ff ff       	mov.b	#0xff,r7l
    79ea:	ff ff       	mov.b	#0xff,r7l
    79ec:	ff ff       	mov.b	#0xff,r7l
    79ee:	ff ff       	mov.b	#0xff,r7l
    79f0:	ff ff       	mov.b	#0xff,r7l
    79f2:	ff ff       	mov.b	#0xff,r7l
    79f4:	ff ff       	mov.b	#0xff,r7l
    79f6:	ff ff       	mov.b	#0xff,r7l
    79f8:	ff ff       	mov.b	#0xff,r7l
    79fa:	ff ff       	mov.b	#0xff,r7l
    79fc:	ff ff       	mov.b	#0xff,r7l
    79fe:	ff ff       	mov.b	#0xff,r7l
    7a00:	ff ff       	mov.b	#0xff,r7l
    7a02:	ff ff       	mov.b	#0xff,r7l
    7a04:	ff ff       	mov.b	#0xff,r7l
    7a06:	ff ff       	mov.b	#0xff,r7l
    7a08:	ff ff       	mov.b	#0xff,r7l
    7a0a:	ff ff       	mov.b	#0xff,r7l
    7a0c:	ff ff       	mov.b	#0xff,r7l
    7a0e:	ff ff       	mov.b	#0xff,r7l
    7a10:	ff ff       	mov.b	#0xff,r7l
    7a12:	ff ff       	mov.b	#0xff,r7l
    7a14:	ff ff       	mov.b	#0xff,r7l
    7a16:	ff ff       	mov.b	#0xff,r7l
    7a18:	ff ff       	mov.b	#0xff,r7l
    7a1a:	ff ff       	mov.b	#0xff,r7l
    7a1c:	ff ff       	mov.b	#0xff,r7l
    7a1e:	ff ff       	mov.b	#0xff,r7l
    7a20:	ff ff       	mov.b	#0xff,r7l
    7a22:	ff ff       	mov.b	#0xff,r7l
    7a24:	ff ff       	mov.b	#0xff,r7l
    7a26:	ff ff       	mov.b	#0xff,r7l
    7a28:	ff ff       	mov.b	#0xff,r7l
    7a2a:	ff ff       	mov.b	#0xff,r7l
    7a2c:	ff ff       	mov.b	#0xff,r7l
    7a2e:	ff ff       	mov.b	#0xff,r7l
    7a30:	ff ff       	mov.b	#0xff,r7l
    7a32:	ff ff       	mov.b	#0xff,r7l
    7a34:	ff ff       	mov.b	#0xff,r7l
    7a36:	ff ff       	mov.b	#0xff,r7l
    7a38:	ff ff       	mov.b	#0xff,r7l
    7a3a:	ff ff       	mov.b	#0xff,r7l
    7a3c:	ff ff       	mov.b	#0xff,r7l
    7a3e:	ff ff       	mov.b	#0xff,r7l
    7a40:	ff ff       	mov.b	#0xff,r7l
    7a42:	ff ff       	mov.b	#0xff,r7l
    7a44:	ff ff       	mov.b	#0xff,r7l
    7a46:	ff ff       	mov.b	#0xff,r7l
    7a48:	ff ff       	mov.b	#0xff,r7l
    7a4a:	ff ff       	mov.b	#0xff,r7l
    7a4c:	ff ff       	mov.b	#0xff,r7l
    7a4e:	ff ff       	mov.b	#0xff,r7l
    7a50:	ff ff       	mov.b	#0xff,r7l
    7a52:	ff ff       	mov.b	#0xff,r7l
    7a54:	ff ff       	mov.b	#0xff,r7l
    7a56:	ff ff       	mov.b	#0xff,r7l
    7a58:	ff ff       	mov.b	#0xff,r7l
    7a5a:	ff ff       	mov.b	#0xff,r7l
    7a5c:	ff ff       	mov.b	#0xff,r7l
    7a5e:	ff ff       	mov.b	#0xff,r7l
    7a60:	ff ff       	mov.b	#0xff,r7l
    7a62:	ff ff       	mov.b	#0xff,r7l
    7a64:	ff ff       	mov.b	#0xff,r7l
    7a66:	ff ff       	mov.b	#0xff,r7l
    7a68:	ff ff       	mov.b	#0xff,r7l
    7a6a:	ff ff       	mov.b	#0xff,r7l
    7a6c:	ff ff       	mov.b	#0xff,r7l
    7a6e:	ff ff       	mov.b	#0xff,r7l
    7a70:	ff ff       	mov.b	#0xff,r7l
    7a72:	ff ff       	mov.b	#0xff,r7l
    7a74:	ff ff       	mov.b	#0xff,r7l
    7a76:	ff ff       	mov.b	#0xff,r7l
    7a78:	ff ff       	mov.b	#0xff,r7l
    7a7a:	ff ff       	mov.b	#0xff,r7l
    7a7c:	ff ff       	mov.b	#0xff,r7l
    7a7e:	ff ff       	mov.b	#0xff,r7l
    7a80:	ff ff       	mov.b	#0xff,r7l
    7a82:	ff ff       	mov.b	#0xff,r7l
    7a84:	ff ff       	mov.b	#0xff,r7l
    7a86:	ff ff       	mov.b	#0xff,r7l
    7a88:	ff ff       	mov.b	#0xff,r7l
    7a8a:	ff ff       	mov.b	#0xff,r7l
    7a8c:	ff ff       	mov.b	#0xff,r7l
    7a8e:	ff ff       	mov.b	#0xff,r7l
    7a90:	ff ff       	mov.b	#0xff,r7l
    7a92:	ff ff       	mov.b	#0xff,r7l
    7a94:	ff ff       	mov.b	#0xff,r7l
    7a96:	ff ff       	mov.b	#0xff,r7l
    7a98:	ff ff       	mov.b	#0xff,r7l
    7a9a:	ff ff       	mov.b	#0xff,r7l
    7a9c:	ff ff       	mov.b	#0xff,r7l
    7a9e:	ff ff       	mov.b	#0xff,r7l
    7aa0:	ff ff       	mov.b	#0xff,r7l
    7aa2:	ff ff       	mov.b	#0xff,r7l
    7aa4:	ff ff       	mov.b	#0xff,r7l
    7aa6:	ff ff       	mov.b	#0xff,r7l
    7aa8:	ff ff       	mov.b	#0xff,r7l
    7aaa:	ff ff       	mov.b	#0xff,r7l
    7aac:	ff ff       	mov.b	#0xff,r7l
    7aae:	ff ff       	mov.b	#0xff,r7l
    7ab0:	ff ff       	mov.b	#0xff,r7l
    7ab2:	ff ff       	mov.b	#0xff,r7l
    7ab4:	ff ff       	mov.b	#0xff,r7l
    7ab6:	ff ff       	mov.b	#0xff,r7l
    7ab8:	ff ff       	mov.b	#0xff,r7l
    7aba:	ff ff       	mov.b	#0xff,r7l
    7abc:	ff ff       	mov.b	#0xff,r7l
    7abe:	ff ff       	mov.b	#0xff,r7l
    7ac0:	ff ff       	mov.b	#0xff,r7l
    7ac2:	ff ff       	mov.b	#0xff,r7l
    7ac4:	ff ff       	mov.b	#0xff,r7l
    7ac6:	ff ff       	mov.b	#0xff,r7l
    7ac8:	ff ff       	mov.b	#0xff,r7l
    7aca:	ff ff       	mov.b	#0xff,r7l
    7acc:	ff ff       	mov.b	#0xff,r7l
    7ace:	ff ff       	mov.b	#0xff,r7l
    7ad0:	ff ff       	mov.b	#0xff,r7l
    7ad2:	ff ff       	mov.b	#0xff,r7l
    7ad4:	ff ff       	mov.b	#0xff,r7l
    7ad6:	ff ff       	mov.b	#0xff,r7l
    7ad8:	ff ff       	mov.b	#0xff,r7l
    7ada:	ff ff       	mov.b	#0xff,r7l
    7adc:	ff ff       	mov.b	#0xff,r7l
    7ade:	ff ff       	mov.b	#0xff,r7l
    7ae0:	ff ff       	mov.b	#0xff,r7l
    7ae2:	ff ff       	mov.b	#0xff,r7l
    7ae4:	ff ff       	mov.b	#0xff,r7l
    7ae6:	ff ff       	mov.b	#0xff,r7l
    7ae8:	ff ff       	mov.b	#0xff,r7l
    7aea:	ff ff       	mov.b	#0xff,r7l
    7aec:	ff ff       	mov.b	#0xff,r7l
    7aee:	ff ff       	mov.b	#0xff,r7l
    7af0:	ff ff       	mov.b	#0xff,r7l
    7af2:	ff ff       	mov.b	#0xff,r7l
    7af4:	ff ff       	mov.b	#0xff,r7l
    7af6:	ff ff       	mov.b	#0xff,r7l
    7af8:	ff ff       	mov.b	#0xff,r7l
    7afa:	ff ff       	mov.b	#0xff,r7l
    7afc:	ff ff       	mov.b	#0xff,r7l
    7afe:	ff ff       	mov.b	#0xff,r7l
    7b00:	ff ff       	mov.b	#0xff,r7l
    7b02:	ff ff       	mov.b	#0xff,r7l
    7b04:	ff ff       	mov.b	#0xff,r7l
    7b06:	ff ff       	mov.b	#0xff,r7l
    7b08:	ff ff       	mov.b	#0xff,r7l
    7b0a:	ff ff       	mov.b	#0xff,r7l
    7b0c:	ff ff       	mov.b	#0xff,r7l
    7b0e:	ff ff       	mov.b	#0xff,r7l
    7b10:	ff ff       	mov.b	#0xff,r7l
    7b12:	ff ff       	mov.b	#0xff,r7l
    7b14:	ff ff       	mov.b	#0xff,r7l
    7b16:	ff ff       	mov.b	#0xff,r7l
    7b18:	ff ff       	mov.b	#0xff,r7l
    7b1a:	ff ff       	mov.b	#0xff,r7l
    7b1c:	ff ff       	mov.b	#0xff,r7l
    7b1e:	ff ff       	mov.b	#0xff,r7l
    7b20:	ff ff       	mov.b	#0xff,r7l
    7b22:	ff ff       	mov.b	#0xff,r7l
    7b24:	ff ff       	mov.b	#0xff,r7l
    7b26:	ff ff       	mov.b	#0xff,r7l
    7b28:	ff ff       	mov.b	#0xff,r7l
    7b2a:	ff ff       	mov.b	#0xff,r7l
    7b2c:	ff ff       	mov.b	#0xff,r7l
    7b2e:	ff ff       	mov.b	#0xff,r7l
    7b30:	ff ff       	mov.b	#0xff,r7l
    7b32:	ff ff       	mov.b	#0xff,r7l
    7b34:	ff ff       	mov.b	#0xff,r7l
    7b36:	ff ff       	mov.b	#0xff,r7l
    7b38:	ff ff       	mov.b	#0xff,r7l
    7b3a:	ff ff       	mov.b	#0xff,r7l
    7b3c:	ff ff       	mov.b	#0xff,r7l
    7b3e:	ff ff       	mov.b	#0xff,r7l
    7b40:	ff ff       	mov.b	#0xff,r7l
    7b42:	ff ff       	mov.b	#0xff,r7l
    7b44:	ff ff       	mov.b	#0xff,r7l
    7b46:	ff ff       	mov.b	#0xff,r7l
    7b48:	ff ff       	mov.b	#0xff,r7l
    7b4a:	ff ff       	mov.b	#0xff,r7l
    7b4c:	ff ff       	mov.b	#0xff,r7l
    7b4e:	ff ff       	mov.b	#0xff,r7l
    7b50:	ff ff       	mov.b	#0xff,r7l
    7b52:	ff ff       	mov.b	#0xff,r7l
    7b54:	ff ff       	mov.b	#0xff,r7l
    7b56:	ff ff       	mov.b	#0xff,r7l
    7b58:	ff ff       	mov.b	#0xff,r7l
    7b5a:	ff ff       	mov.b	#0xff,r7l
    7b5c:	ff ff       	mov.b	#0xff,r7l
    7b5e:	ff ff       	mov.b	#0xff,r7l
    7b60:	ff ff       	mov.b	#0xff,r7l
    7b62:	ff ff       	mov.b	#0xff,r7l
    7b64:	ff ff       	mov.b	#0xff,r7l
    7b66:	ff ff       	mov.b	#0xff,r7l
    7b68:	ff ff       	mov.b	#0xff,r7l
    7b6a:	ff ff       	mov.b	#0xff,r7l
    7b6c:	ff ff       	mov.b	#0xff,r7l
    7b6e:	ff ff       	mov.b	#0xff,r7l
    7b70:	ff ff       	mov.b	#0xff,r7l
    7b72:	ff ff       	mov.b	#0xff,r7l
    7b74:	ff ff       	mov.b	#0xff,r7l
    7b76:	ff ff       	mov.b	#0xff,r7l
    7b78:	ff ff       	mov.b	#0xff,r7l
    7b7a:	ff ff       	mov.b	#0xff,r7l
    7b7c:	ff ff       	mov.b	#0xff,r7l
    7b7e:	ff ff       	mov.b	#0xff,r7l
    7b80:	ff ff       	mov.b	#0xff,r7l
    7b82:	ff ff       	mov.b	#0xff,r7l
    7b84:	ff ff       	mov.b	#0xff,r7l
    7b86:	ff ff       	mov.b	#0xff,r7l
    7b88:	ff ff       	mov.b	#0xff,r7l
    7b8a:	ff ff       	mov.b	#0xff,r7l
    7b8c:	ff ff       	mov.b	#0xff,r7l
    7b8e:	ff ff       	mov.b	#0xff,r7l
    7b90:	ff ff       	mov.b	#0xff,r7l
    7b92:	ff ff       	mov.b	#0xff,r7l
    7b94:	ff ff       	mov.b	#0xff,r7l
    7b96:	ff ff       	mov.b	#0xff,r7l
    7b98:	ff ff       	mov.b	#0xff,r7l
    7b9a:	ff ff       	mov.b	#0xff,r7l
    7b9c:	ff ff       	mov.b	#0xff,r7l
    7b9e:	ff ff       	mov.b	#0xff,r7l
    7ba0:	ff ff       	mov.b	#0xff,r7l
    7ba2:	ff ff       	mov.b	#0xff,r7l
    7ba4:	ff ff       	mov.b	#0xff,r7l
    7ba6:	ff ff       	mov.b	#0xff,r7l
    7ba8:	ff ff       	mov.b	#0xff,r7l
    7baa:	ff ff       	mov.b	#0xff,r7l
    7bac:	ff ff       	mov.b	#0xff,r7l
    7bae:	ff ff       	mov.b	#0xff,r7l
    7bb0:	ff ff       	mov.b	#0xff,r7l
    7bb2:	ff ff       	mov.b	#0xff,r7l
    7bb4:	ff ff       	mov.b	#0xff,r7l
    7bb6:	ff ff       	mov.b	#0xff,r7l
    7bb8:	ff ff       	mov.b	#0xff,r7l
    7bba:	ff ff       	mov.b	#0xff,r7l
    7bbc:	ff ff       	mov.b	#0xff,r7l
    7bbe:	ff ff       	mov.b	#0xff,r7l
    7bc0:	ff ff       	mov.b	#0xff,r7l
    7bc2:	ff ff       	mov.b	#0xff,r7l
    7bc4:	ff ff       	mov.b	#0xff,r7l
    7bc6:	ff ff       	mov.b	#0xff,r7l
    7bc8:	ff ff       	mov.b	#0xff,r7l
    7bca:	ff ff       	mov.b	#0xff,r7l
    7bcc:	ff ff       	mov.b	#0xff,r7l
    7bce:	ff ff       	mov.b	#0xff,r7l
    7bd0:	ff ff       	mov.b	#0xff,r7l
    7bd2:	ff ff       	mov.b	#0xff,r7l
    7bd4:	ff ff       	mov.b	#0xff,r7l
    7bd6:	ff ff       	mov.b	#0xff,r7l
    7bd8:	ff ff       	mov.b	#0xff,r7l
    7bda:	ff ff       	mov.b	#0xff,r7l
    7bdc:	ff ff       	mov.b	#0xff,r7l
    7bde:	ff ff       	mov.b	#0xff,r7l
    7be0:	ff ff       	mov.b	#0xff,r7l
    7be2:	ff ff       	mov.b	#0xff,r7l
    7be4:	ff ff       	mov.b	#0xff,r7l
    7be6:	ff ff       	mov.b	#0xff,r7l
    7be8:	ff ff       	mov.b	#0xff,r7l
    7bea:	ff ff       	mov.b	#0xff,r7l
    7bec:	ff ff       	mov.b	#0xff,r7l
    7bee:	ff ff       	mov.b	#0xff,r7l
    7bf0:	ff ff       	mov.b	#0xff,r7l
    7bf2:	ff ff       	mov.b	#0xff,r7l
    7bf4:	ff ff       	mov.b	#0xff,r7l
    7bf6:	ff ff       	mov.b	#0xff,r7l
    7bf8:	ff ff       	mov.b	#0xff,r7l
    7bfa:	ff ff       	mov.b	#0xff,r7l
    7bfc:	ff ff       	mov.b	#0xff,r7l
    7bfe:	ff ff       	mov.b	#0xff,r7l
    7c00:	ff ff       	mov.b	#0xff,r7l
    7c02:	ff ff       	mov.b	#0xff,r7l
    7c04:	ff ff       	mov.b	#0xff,r7l
    7c06:	ff ff       	mov.b	#0xff,r7l
    7c08:	ff ff       	mov.b	#0xff,r7l
    7c0a:	ff ff       	mov.b	#0xff,r7l
    7c0c:	ff ff       	mov.b	#0xff,r7l
    7c0e:	ff ff       	mov.b	#0xff,r7l
    7c10:	ff ff       	mov.b	#0xff,r7l
    7c12:	ff ff       	mov.b	#0xff,r7l
    7c14:	ff ff       	mov.b	#0xff,r7l
    7c16:	ff ff       	mov.b	#0xff,r7l
    7c18:	ff ff       	mov.b	#0xff,r7l
    7c1a:	ff ff       	mov.b	#0xff,r7l
    7c1c:	ff ff       	mov.b	#0xff,r7l
    7c1e:	ff ff       	mov.b	#0xff,r7l
    7c20:	ff ff       	mov.b	#0xff,r7l
    7c22:	ff ff       	mov.b	#0xff,r7l
    7c24:	ff ff       	mov.b	#0xff,r7l
    7c26:	ff ff       	mov.b	#0xff,r7l
    7c28:	ff ff       	mov.b	#0xff,r7l
    7c2a:	ff ff       	mov.b	#0xff,r7l
    7c2c:	ff ff       	mov.b	#0xff,r7l
    7c2e:	ff ff       	mov.b	#0xff,r7l
    7c30:	ff ff       	mov.b	#0xff,r7l
    7c32:	ff ff       	mov.b	#0xff,r7l
    7c34:	ff ff       	mov.b	#0xff,r7l
    7c36:	ff ff       	mov.b	#0xff,r7l
    7c38:	ff ff       	mov.b	#0xff,r7l
    7c3a:	ff ff       	mov.b	#0xff,r7l
    7c3c:	ff ff       	mov.b	#0xff,r7l
    7c3e:	ff ff       	mov.b	#0xff,r7l
    7c40:	ff ff       	mov.b	#0xff,r7l
    7c42:	ff ff       	mov.b	#0xff,r7l
    7c44:	ff ff       	mov.b	#0xff,r7l
    7c46:	ff ff       	mov.b	#0xff,r7l
    7c48:	ff ff       	mov.b	#0xff,r7l
    7c4a:	ff ff       	mov.b	#0xff,r7l
    7c4c:	ff ff       	mov.b	#0xff,r7l
    7c4e:	ff ff       	mov.b	#0xff,r7l
    7c50:	ff ff       	mov.b	#0xff,r7l
    7c52:	ff ff       	mov.b	#0xff,r7l
    7c54:	ff ff       	mov.b	#0xff,r7l
    7c56:	ff ff       	mov.b	#0xff,r7l
    7c58:	ff ff       	mov.b	#0xff,r7l
    7c5a:	ff ff       	mov.b	#0xff,r7l
    7c5c:	ff ff       	mov.b	#0xff,r7l
    7c5e:	ff ff       	mov.b	#0xff,r7l
    7c60:	ff ff       	mov.b	#0xff,r7l
    7c62:	ff ff       	mov.b	#0xff,r7l
    7c64:	ff ff       	mov.b	#0xff,r7l
    7c66:	ff ff       	mov.b	#0xff,r7l
    7c68:	ff ff       	mov.b	#0xff,r7l
    7c6a:	ff ff       	mov.b	#0xff,r7l
    7c6c:	ff ff       	mov.b	#0xff,r7l
    7c6e:	ff ff       	mov.b	#0xff,r7l
    7c70:	ff ff       	mov.b	#0xff,r7l
    7c72:	ff ff       	mov.b	#0xff,r7l
    7c74:	ff ff       	mov.b	#0xff,r7l
    7c76:	ff ff       	mov.b	#0xff,r7l
    7c78:	ff ff       	mov.b	#0xff,r7l
    7c7a:	ff ff       	mov.b	#0xff,r7l
    7c7c:	ff ff       	mov.b	#0xff,r7l
    7c7e:	ff ff       	mov.b	#0xff,r7l
    7c80:	ff ff       	mov.b	#0xff,r7l
    7c82:	ff ff       	mov.b	#0xff,r7l
    7c84:	ff ff       	mov.b	#0xff,r7l
    7c86:	ff ff       	mov.b	#0xff,r7l
    7c88:	ff ff       	mov.b	#0xff,r7l
    7c8a:	ff ff       	mov.b	#0xff,r7l
    7c8c:	ff ff       	mov.b	#0xff,r7l
    7c8e:	ff ff       	mov.b	#0xff,r7l
    7c90:	ff ff       	mov.b	#0xff,r7l
    7c92:	ff ff       	mov.b	#0xff,r7l
    7c94:	ff ff       	mov.b	#0xff,r7l
    7c96:	ff ff       	mov.b	#0xff,r7l
    7c98:	ff ff       	mov.b	#0xff,r7l
    7c9a:	ff ff       	mov.b	#0xff,r7l
    7c9c:	ff ff       	mov.b	#0xff,r7l
    7c9e:	ff ff       	mov.b	#0xff,r7l
    7ca0:	ff ff       	mov.b	#0xff,r7l
    7ca2:	ff ff       	mov.b	#0xff,r7l
    7ca4:	ff ff       	mov.b	#0xff,r7l
    7ca6:	ff ff       	mov.b	#0xff,r7l
    7ca8:	ff ff       	mov.b	#0xff,r7l
    7caa:	ff ff       	mov.b	#0xff,r7l
    7cac:	ff ff       	mov.b	#0xff,r7l
    7cae:	ff ff       	mov.b	#0xff,r7l
    7cb0:	ff ff       	mov.b	#0xff,r7l
    7cb2:	ff ff       	mov.b	#0xff,r7l
    7cb4:	ff ff       	mov.b	#0xff,r7l
    7cb6:	ff ff       	mov.b	#0xff,r7l
    7cb8:	ff ff       	mov.b	#0xff,r7l
    7cba:	ff ff       	mov.b	#0xff,r7l
    7cbc:	ff ff       	mov.b	#0xff,r7l
    7cbe:	ff ff       	mov.b	#0xff,r7l
    7cc0:	ff ff       	mov.b	#0xff,r7l
    7cc2:	ff ff       	mov.b	#0xff,r7l
    7cc4:	ff ff       	mov.b	#0xff,r7l
    7cc6:	ff ff       	mov.b	#0xff,r7l
    7cc8:	ff ff       	mov.b	#0xff,r7l
    7cca:	ff ff       	mov.b	#0xff,r7l
    7ccc:	ff ff       	mov.b	#0xff,r7l
    7cce:	ff ff       	mov.b	#0xff,r7l
    7cd0:	ff ff       	mov.b	#0xff,r7l
    7cd2:	ff ff       	mov.b	#0xff,r7l
    7cd4:	ff ff       	mov.b	#0xff,r7l
    7cd6:	ff ff       	mov.b	#0xff,r7l
    7cd8:	ff ff       	mov.b	#0xff,r7l
    7cda:	ff ff       	mov.b	#0xff,r7l
    7cdc:	ff ff       	mov.b	#0xff,r7l
    7cde:	ff ff       	mov.b	#0xff,r7l
    7ce0:	ff ff       	mov.b	#0xff,r7l
    7ce2:	ff ff       	mov.b	#0xff,r7l
    7ce4:	ff ff       	mov.b	#0xff,r7l
    7ce6:	ff ff       	mov.b	#0xff,r7l
    7ce8:	ff ff       	mov.b	#0xff,r7l
    7cea:	ff ff       	mov.b	#0xff,r7l
    7cec:	ff ff       	mov.b	#0xff,r7l
    7cee:	ff ff       	mov.b	#0xff,r7l
    7cf0:	ff ff       	mov.b	#0xff,r7l
    7cf2:	ff ff       	mov.b	#0xff,r7l
    7cf4:	ff ff       	mov.b	#0xff,r7l
    7cf6:	ff ff       	mov.b	#0xff,r7l
    7cf8:	ff ff       	mov.b	#0xff,r7l
    7cfa:	ff ff       	mov.b	#0xff,r7l
    7cfc:	ff ff       	mov.b	#0xff,r7l
    7cfe:	ff ff       	mov.b	#0xff,r7l
    7d00:	ff ff       	mov.b	#0xff,r7l
    7d02:	ff ff       	mov.b	#0xff,r7l
    7d04:	ff ff       	mov.b	#0xff,r7l
    7d06:	ff ff       	mov.b	#0xff,r7l
    7d08:	ff ff       	mov.b	#0xff,r7l
    7d0a:	ff ff       	mov.b	#0xff,r7l
    7d0c:	ff ff       	mov.b	#0xff,r7l
    7d0e:	ff ff       	mov.b	#0xff,r7l
    7d10:	ff ff       	mov.b	#0xff,r7l
    7d12:	ff ff       	mov.b	#0xff,r7l
    7d14:	ff ff       	mov.b	#0xff,r7l
    7d16:	ff ff       	mov.b	#0xff,r7l
    7d18:	ff ff       	mov.b	#0xff,r7l
    7d1a:	ff ff       	mov.b	#0xff,r7l
    7d1c:	ff ff       	mov.b	#0xff,r7l
    7d1e:	ff ff       	mov.b	#0xff,r7l
    7d20:	ff ff       	mov.b	#0xff,r7l
    7d22:	ff ff       	mov.b	#0xff,r7l
    7d24:	ff ff       	mov.b	#0xff,r7l
    7d26:	ff ff       	mov.b	#0xff,r7l
    7d28:	ff ff       	mov.b	#0xff,r7l
    7d2a:	ff ff       	mov.b	#0xff,r7l
    7d2c:	ff ff       	mov.b	#0xff,r7l
    7d2e:	ff ff       	mov.b	#0xff,r7l
    7d30:	ff ff       	mov.b	#0xff,r7l
    7d32:	ff ff       	mov.b	#0xff,r7l
    7d34:	ff ff       	mov.b	#0xff,r7l
    7d36:	ff ff       	mov.b	#0xff,r7l
    7d38:	ff ff       	mov.b	#0xff,r7l
    7d3a:	ff ff       	mov.b	#0xff,r7l
    7d3c:	ff ff       	mov.b	#0xff,r7l
    7d3e:	ff ff       	mov.b	#0xff,r7l
    7d40:	ff ff       	mov.b	#0xff,r7l
    7d42:	ff ff       	mov.b	#0xff,r7l
    7d44:	ff ff       	mov.b	#0xff,r7l
    7d46:	ff ff       	mov.b	#0xff,r7l
    7d48:	ff ff       	mov.b	#0xff,r7l
    7d4a:	ff ff       	mov.b	#0xff,r7l
    7d4c:	ff ff       	mov.b	#0xff,r7l
    7d4e:	ff ff       	mov.b	#0xff,r7l
    7d50:	ff ff       	mov.b	#0xff,r7l
    7d52:	ff ff       	mov.b	#0xff,r7l
    7d54:	ff ff       	mov.b	#0xff,r7l
    7d56:	ff ff       	mov.b	#0xff,r7l
    7d58:	ff ff       	mov.b	#0xff,r7l
    7d5a:	ff ff       	mov.b	#0xff,r7l
    7d5c:	ff ff       	mov.b	#0xff,r7l
    7d5e:	ff ff       	mov.b	#0xff,r7l
    7d60:	ff ff       	mov.b	#0xff,r7l
    7d62:	ff ff       	mov.b	#0xff,r7l
    7d64:	ff ff       	mov.b	#0xff,r7l
    7d66:	ff ff       	mov.b	#0xff,r7l
    7d68:	ff ff       	mov.b	#0xff,r7l
    7d6a:	ff ff       	mov.b	#0xff,r7l
    7d6c:	ff ff       	mov.b	#0xff,r7l
    7d6e:	ff ff       	mov.b	#0xff,r7l
    7d70:	ff ff       	mov.b	#0xff,r7l
    7d72:	ff ff       	mov.b	#0xff,r7l
    7d74:	ff ff       	mov.b	#0xff,r7l
    7d76:	ff ff       	mov.b	#0xff,r7l
    7d78:	ff ff       	mov.b	#0xff,r7l
    7d7a:	ff ff       	mov.b	#0xff,r7l
    7d7c:	ff ff       	mov.b	#0xff,r7l
    7d7e:	ff ff       	mov.b	#0xff,r7l
    7d80:	ff ff       	mov.b	#0xff,r7l
    7d82:	ff ff       	mov.b	#0xff,r7l
    7d84:	ff ff       	mov.b	#0xff,r7l
    7d86:	ff ff       	mov.b	#0xff,r7l
    7d88:	ff ff       	mov.b	#0xff,r7l
    7d8a:	ff ff       	mov.b	#0xff,r7l
    7d8c:	ff ff       	mov.b	#0xff,r7l
    7d8e:	ff ff       	mov.b	#0xff,r7l
    7d90:	ff ff       	mov.b	#0xff,r7l
    7d92:	ff ff       	mov.b	#0xff,r7l
    7d94:	ff ff       	mov.b	#0xff,r7l
    7d96:	ff ff       	mov.b	#0xff,r7l
    7d98:	ff ff       	mov.b	#0xff,r7l
    7d9a:	ff ff       	mov.b	#0xff,r7l
    7d9c:	ff ff       	mov.b	#0xff,r7l
    7d9e:	ff ff       	mov.b	#0xff,r7l
    7da0:	ff ff       	mov.b	#0xff,r7l
    7da2:	ff ff       	mov.b	#0xff,r7l
    7da4:	ff ff       	mov.b	#0xff,r7l
    7da6:	ff ff       	mov.b	#0xff,r7l
    7da8:	ff ff       	mov.b	#0xff,r7l
    7daa:	ff ff       	mov.b	#0xff,r7l
    7dac:	ff ff       	mov.b	#0xff,r7l
    7dae:	ff ff       	mov.b	#0xff,r7l
    7db0:	ff ff       	mov.b	#0xff,r7l
    7db2:	ff ff       	mov.b	#0xff,r7l
    7db4:	ff ff       	mov.b	#0xff,r7l
    7db6:	ff ff       	mov.b	#0xff,r7l
    7db8:	ff ff       	mov.b	#0xff,r7l
    7dba:	ff ff       	mov.b	#0xff,r7l
    7dbc:	ff ff       	mov.b	#0xff,r7l
    7dbe:	ff ff       	mov.b	#0xff,r7l
    7dc0:	ff ff       	mov.b	#0xff,r7l
    7dc2:	ff ff       	mov.b	#0xff,r7l
    7dc4:	ff ff       	mov.b	#0xff,r7l
    7dc6:	ff ff       	mov.b	#0xff,r7l
    7dc8:	ff ff       	mov.b	#0xff,r7l
    7dca:	ff ff       	mov.b	#0xff,r7l
    7dcc:	ff ff       	mov.b	#0xff,r7l
    7dce:	ff ff       	mov.b	#0xff,r7l
    7dd0:	ff ff       	mov.b	#0xff,r7l
    7dd2:	ff ff       	mov.b	#0xff,r7l
    7dd4:	ff ff       	mov.b	#0xff,r7l
    7dd6:	ff ff       	mov.b	#0xff,r7l
    7dd8:	ff ff       	mov.b	#0xff,r7l
    7dda:	ff ff       	mov.b	#0xff,r7l
    7ddc:	ff ff       	mov.b	#0xff,r7l
    7dde:	ff ff       	mov.b	#0xff,r7l
    7de0:	ff ff       	mov.b	#0xff,r7l
    7de2:	ff ff       	mov.b	#0xff,r7l
    7de4:	ff ff       	mov.b	#0xff,r7l
    7de6:	ff ff       	mov.b	#0xff,r7l
    7de8:	ff ff       	mov.b	#0xff,r7l
    7dea:	ff ff       	mov.b	#0xff,r7l
    7dec:	ff ff       	mov.b	#0xff,r7l
    7dee:	ff ff       	mov.b	#0xff,r7l
    7df0:	ff ff       	mov.b	#0xff,r7l
    7df2:	ff ff       	mov.b	#0xff,r7l
    7df4:	ff ff       	mov.b	#0xff,r7l
    7df6:	ff ff       	mov.b	#0xff,r7l
    7df8:	ff ff       	mov.b	#0xff,r7l
    7dfa:	ff ff       	mov.b	#0xff,r7l
    7dfc:	ff ff       	mov.b	#0xff,r7l
    7dfe:	ff ff       	mov.b	#0xff,r7l
    7e00:	ff ff       	mov.b	#0xff,r7l
    7e02:	ff ff       	mov.b	#0xff,r7l
    7e04:	ff ff       	mov.b	#0xff,r7l
    7e06:	ff ff       	mov.b	#0xff,r7l
    7e08:	ff ff       	mov.b	#0xff,r7l
    7e0a:	ff ff       	mov.b	#0xff,r7l
    7e0c:	ff ff       	mov.b	#0xff,r7l
    7e0e:	ff ff       	mov.b	#0xff,r7l
    7e10:	ff ff       	mov.b	#0xff,r7l
    7e12:	ff ff       	mov.b	#0xff,r7l
    7e14:	ff ff       	mov.b	#0xff,r7l
    7e16:	ff ff       	mov.b	#0xff,r7l
    7e18:	ff ff       	mov.b	#0xff,r7l
    7e1a:	ff ff       	mov.b	#0xff,r7l
    7e1c:	ff ff       	mov.b	#0xff,r7l
    7e1e:	ff ff       	mov.b	#0xff,r7l
    7e20:	ff ff       	mov.b	#0xff,r7l
    7e22:	ff ff       	mov.b	#0xff,r7l
    7e24:	ff ff       	mov.b	#0xff,r7l
    7e26:	ff ff       	mov.b	#0xff,r7l
    7e28:	ff ff       	mov.b	#0xff,r7l
    7e2a:	ff ff       	mov.b	#0xff,r7l
    7e2c:	ff ff       	mov.b	#0xff,r7l
    7e2e:	ff ff       	mov.b	#0xff,r7l
    7e30:	ff ff       	mov.b	#0xff,r7l
    7e32:	ff ff       	mov.b	#0xff,r7l
    7e34:	ff ff       	mov.b	#0xff,r7l
    7e36:	ff ff       	mov.b	#0xff,r7l
    7e38:	ff ff       	mov.b	#0xff,r7l
    7e3a:	ff ff       	mov.b	#0xff,r7l
    7e3c:	ff ff       	mov.b	#0xff,r7l
    7e3e:	ff ff       	mov.b	#0xff,r7l
    7e40:	ff ff       	mov.b	#0xff,r7l
    7e42:	ff ff       	mov.b	#0xff,r7l
    7e44:	ff ff       	mov.b	#0xff,r7l
    7e46:	ff ff       	mov.b	#0xff,r7l
    7e48:	ff ff       	mov.b	#0xff,r7l
    7e4a:	ff ff       	mov.b	#0xff,r7l
    7e4c:	ff ff       	mov.b	#0xff,r7l
    7e4e:	ff ff       	mov.b	#0xff,r7l
    7e50:	ff ff       	mov.b	#0xff,r7l
    7e52:	ff ff       	mov.b	#0xff,r7l
    7e54:	ff ff       	mov.b	#0xff,r7l
    7e56:	ff ff       	mov.b	#0xff,r7l
    7e58:	ff ff       	mov.b	#0xff,r7l
    7e5a:	ff ff       	mov.b	#0xff,r7l
    7e5c:	ff ff       	mov.b	#0xff,r7l
    7e5e:	ff ff       	mov.b	#0xff,r7l
    7e60:	ff ff       	mov.b	#0xff,r7l
    7e62:	ff ff       	mov.b	#0xff,r7l
    7e64:	ff ff       	mov.b	#0xff,r7l
    7e66:	ff ff       	mov.b	#0xff,r7l
    7e68:	ff ff       	mov.b	#0xff,r7l
    7e6a:	ff ff       	mov.b	#0xff,r7l
    7e6c:	ff ff       	mov.b	#0xff,r7l
    7e6e:	ff ff       	mov.b	#0xff,r7l
    7e70:	ff ff       	mov.b	#0xff,r7l
    7e72:	ff ff       	mov.b	#0xff,r7l
    7e74:	ff ff       	mov.b	#0xff,r7l
    7e76:	ff ff       	mov.b	#0xff,r7l
    7e78:	ff ff       	mov.b	#0xff,r7l
    7e7a:	ff ff       	mov.b	#0xff,r7l
    7e7c:	ff ff       	mov.b	#0xff,r7l
    7e7e:	ff ff       	mov.b	#0xff,r7l
    7e80:	ff ff       	mov.b	#0xff,r7l
    7e82:	ff ff       	mov.b	#0xff,r7l
    7e84:	ff ff       	mov.b	#0xff,r7l
    7e86:	ff ff       	mov.b	#0xff,r7l
    7e88:	ff ff       	mov.b	#0xff,r7l
    7e8a:	ff ff       	mov.b	#0xff,r7l
    7e8c:	ff ff       	mov.b	#0xff,r7l
    7e8e:	ff ff       	mov.b	#0xff,r7l
    7e90:	ff ff       	mov.b	#0xff,r7l
    7e92:	ff ff       	mov.b	#0xff,r7l
    7e94:	ff ff       	mov.b	#0xff,r7l
    7e96:	ff ff       	mov.b	#0xff,r7l
    7e98:	ff ff       	mov.b	#0xff,r7l
    7e9a:	ff ff       	mov.b	#0xff,r7l
    7e9c:	ff ff       	mov.b	#0xff,r7l
    7e9e:	ff ff       	mov.b	#0xff,r7l
    7ea0:	ff ff       	mov.b	#0xff,r7l
    7ea2:	ff ff       	mov.b	#0xff,r7l
    7ea4:	ff ff       	mov.b	#0xff,r7l
    7ea6:	ff ff       	mov.b	#0xff,r7l
    7ea8:	ff ff       	mov.b	#0xff,r7l
    7eaa:	ff ff       	mov.b	#0xff,r7l
    7eac:	ff ff       	mov.b	#0xff,r7l
    7eae:	ff ff       	mov.b	#0xff,r7l
    7eb0:	ff ff       	mov.b	#0xff,r7l
    7eb2:	ff ff       	mov.b	#0xff,r7l
    7eb4:	ff ff       	mov.b	#0xff,r7l
    7eb6:	ff ff       	mov.b	#0xff,r7l
    7eb8:	ff ff       	mov.b	#0xff,r7l
    7eba:	ff ff       	mov.b	#0xff,r7l
    7ebc:	ff ff       	mov.b	#0xff,r7l
    7ebe:	ff ff       	mov.b	#0xff,r7l
    7ec0:	ff ff       	mov.b	#0xff,r7l
    7ec2:	ff ff       	mov.b	#0xff,r7l
    7ec4:	ff ff       	mov.b	#0xff,r7l
    7ec6:	ff ff       	mov.b	#0xff,r7l
    7ec8:	ff ff       	mov.b	#0xff,r7l
    7eca:	ff ff       	mov.b	#0xff,r7l
    7ecc:	ff ff       	mov.b	#0xff,r7l
    7ece:	ff ff       	mov.b	#0xff,r7l
    7ed0:	ff ff       	mov.b	#0xff,r7l
    7ed2:	ff ff       	mov.b	#0xff,r7l
    7ed4:	ff ff       	mov.b	#0xff,r7l
    7ed6:	ff ff       	mov.b	#0xff,r7l
    7ed8:	ff ff       	mov.b	#0xff,r7l
    7eda:	ff ff       	mov.b	#0xff,r7l
    7edc:	ff ff       	mov.b	#0xff,r7l
    7ede:	ff ff       	mov.b	#0xff,r7l
    7ee0:	ff ff       	mov.b	#0xff,r7l
    7ee2:	ff ff       	mov.b	#0xff,r7l
    7ee4:	ff ff       	mov.b	#0xff,r7l
    7ee6:	ff ff       	mov.b	#0xff,r7l
    7ee8:	ff ff       	mov.b	#0xff,r7l
    7eea:	ff ff       	mov.b	#0xff,r7l
    7eec:	ff ff       	mov.b	#0xff,r7l
    7eee:	ff ff       	mov.b	#0xff,r7l
    7ef0:	ff ff       	mov.b	#0xff,r7l
    7ef2:	ff ff       	mov.b	#0xff,r7l
    7ef4:	ff ff       	mov.b	#0xff,r7l
    7ef6:	ff ff       	mov.b	#0xff,r7l
    7ef8:	ff ff       	mov.b	#0xff,r7l
    7efa:	ff ff       	mov.b	#0xff,r7l
    7efc:	ff ff       	mov.b	#0xff,r7l
    7efe:	ff ff       	mov.b	#0xff,r7l
    7f00:	ff ff       	mov.b	#0xff,r7l
    7f02:	ff ff       	mov.b	#0xff,r7l
    7f04:	ff ff       	mov.b	#0xff,r7l
    7f06:	ff ff       	mov.b	#0xff,r7l
    7f08:	ff ff       	mov.b	#0xff,r7l
    7f0a:	ff ff       	mov.b	#0xff,r7l
    7f0c:	ff ff       	mov.b	#0xff,r7l
    7f0e:	ff ff       	mov.b	#0xff,r7l
    7f10:	ff ff       	mov.b	#0xff,r7l
    7f12:	ff ff       	mov.b	#0xff,r7l
    7f14:	ff ff       	mov.b	#0xff,r7l
    7f16:	ff ff       	mov.b	#0xff,r7l
    7f18:	ff ff       	mov.b	#0xff,r7l
    7f1a:	ff ff       	mov.b	#0xff,r7l
    7f1c:	ff ff       	mov.b	#0xff,r7l
    7f1e:	ff ff       	mov.b	#0xff,r7l
    7f20:	ff ff       	mov.b	#0xff,r7l
    7f22:	ff ff       	mov.b	#0xff,r7l
    7f24:	ff ff       	mov.b	#0xff,r7l
    7f26:	ff ff       	mov.b	#0xff,r7l
    7f28:	ff ff       	mov.b	#0xff,r7l
    7f2a:	ff ff       	mov.b	#0xff,r7l
    7f2c:	ff ff       	mov.b	#0xff,r7l
    7f2e:	ff ff       	mov.b	#0xff,r7l
    7f30:	ff ff       	mov.b	#0xff,r7l
    7f32:	ff ff       	mov.b	#0xff,r7l
    7f34:	ff ff       	mov.b	#0xff,r7l
    7f36:	ff ff       	mov.b	#0xff,r7l
    7f38:	ff ff       	mov.b	#0xff,r7l
    7f3a:	ff ff       	mov.b	#0xff,r7l
    7f3c:	ff ff       	mov.b	#0xff,r7l
    7f3e:	ff ff       	mov.b	#0xff,r7l
    7f40:	ff ff       	mov.b	#0xff,r7l
    7f42:	ff ff       	mov.b	#0xff,r7l
    7f44:	ff ff       	mov.b	#0xff,r7l
    7f46:	ff ff       	mov.b	#0xff,r7l
    7f48:	ff ff       	mov.b	#0xff,r7l
    7f4a:	ff ff       	mov.b	#0xff,r7l
    7f4c:	ff ff       	mov.b	#0xff,r7l
    7f4e:	ff ff       	mov.b	#0xff,r7l
    7f50:	ff ff       	mov.b	#0xff,r7l
    7f52:	ff ff       	mov.b	#0xff,r7l
    7f54:	ff ff       	mov.b	#0xff,r7l
    7f56:	ff ff       	mov.b	#0xff,r7l
    7f58:	ff ff       	mov.b	#0xff,r7l
    7f5a:	ff ff       	mov.b	#0xff,r7l
    7f5c:	ff ff       	mov.b	#0xff,r7l
    7f5e:	ff ff       	mov.b	#0xff,r7l
    7f60:	ff ff       	mov.b	#0xff,r7l
    7f62:	ff ff       	mov.b	#0xff,r7l
    7f64:	ff ff       	mov.b	#0xff,r7l
    7f66:	ff ff       	mov.b	#0xff,r7l
    7f68:	ff ff       	mov.b	#0xff,r7l
    7f6a:	ff ff       	mov.b	#0xff,r7l
    7f6c:	ff ff       	mov.b	#0xff,r7l
    7f6e:	ff ff       	mov.b	#0xff,r7l
    7f70:	ff ff       	mov.b	#0xff,r7l
    7f72:	ff ff       	mov.b	#0xff,r7l
    7f74:	ff ff       	mov.b	#0xff,r7l
    7f76:	ff ff       	mov.b	#0xff,r7l
    7f78:	ff ff       	mov.b	#0xff,r7l
    7f7a:	ff ff       	mov.b	#0xff,r7l
    7f7c:	ff ff       	mov.b	#0xff,r7l
    7f7e:	ff ff       	mov.b	#0xff,r7l
    7f80:	ff ff       	mov.b	#0xff,r7l
    7f82:	ff ff       	mov.b	#0xff,r7l
    7f84:	ff ff       	mov.b	#0xff,r7l
    7f86:	ff ff       	mov.b	#0xff,r7l
    7f88:	ff ff       	mov.b	#0xff,r7l
    7f8a:	ff ff       	mov.b	#0xff,r7l
    7f8c:	ff ff       	mov.b	#0xff,r7l
    7f8e:	ff ff       	mov.b	#0xff,r7l
    7f90:	ff ff       	mov.b	#0xff,r7l
    7f92:	ff ff       	mov.b	#0xff,r7l
    7f94:	ff ff       	mov.b	#0xff,r7l
    7f96:	ff ff       	mov.b	#0xff,r7l
    7f98:	ff ff       	mov.b	#0xff,r7l
    7f9a:	ff ff       	mov.b	#0xff,r7l
    7f9c:	ff ff       	mov.b	#0xff,r7l
    7f9e:	ff ff       	mov.b	#0xff,r7l
    7fa0:	ff ff       	mov.b	#0xff,r7l
    7fa2:	ff ff       	mov.b	#0xff,r7l
    7fa4:	ff ff       	mov.b	#0xff,r7l
    7fa6:	ff ff       	mov.b	#0xff,r7l
    7fa8:	ff ff       	mov.b	#0xff,r7l
    7faa:	ff ff       	mov.b	#0xff,r7l
    7fac:	ff ff       	mov.b	#0xff,r7l
    7fae:	ff ff       	mov.b	#0xff,r7l
    7fb0:	ff ff       	mov.b	#0xff,r7l
    7fb2:	ff ff       	mov.b	#0xff,r7l
    7fb4:	ff ff       	mov.b	#0xff,r7l
    7fb6:	ff ff       	mov.b	#0xff,r7l
    7fb8:	ff ff       	mov.b	#0xff,r7l
    7fba:	ff ff       	mov.b	#0xff,r7l
    7fbc:	ff ff       	mov.b	#0xff,r7l
    7fbe:	ff ff       	mov.b	#0xff,r7l
    7fc0:	ff ff       	mov.b	#0xff,r7l
    7fc2:	ff ff       	mov.b	#0xff,r7l
    7fc4:	ff ff       	mov.b	#0xff,r7l
    7fc6:	ff ff       	mov.b	#0xff,r7l
    7fc8:	ff ff       	mov.b	#0xff,r7l
    7fca:	ff ff       	mov.b	#0xff,r7l
    7fcc:	ff ff       	mov.b	#0xff,r7l
    7fce:	ff ff       	mov.b	#0xff,r7l
    7fd0:	ff ff       	mov.b	#0xff,r7l
    7fd2:	ff ff       	mov.b	#0xff,r7l
    7fd4:	ff ff       	mov.b	#0xff,r7l
    7fd6:	ff ff       	mov.b	#0xff,r7l
    7fd8:	ff ff       	mov.b	#0xff,r7l
    7fda:	ff ff       	mov.b	#0xff,r7l
    7fdc:	ff ff       	mov.b	#0xff,r7l
    7fde:	ff ff       	mov.b	#0xff,r7l
    7fe0:	ff ff       	mov.b	#0xff,r7l
    7fe2:	ff ff       	mov.b	#0xff,r7l
    7fe4:	ff ff       	mov.b	#0xff,r7l
    7fe6:	ff ff       	mov.b	#0xff,r7l
    7fe8:	ff ff       	mov.b	#0xff,r7l
    7fea:	ff ff       	mov.b	#0xff,r7l
    7fec:	ff ff       	mov.b	#0xff,r7l
    7fee:	ff ff       	mov.b	#0xff,r7l
    7ff0:	ff ff       	mov.b	#0xff,r7l
    7ff2:	ff ff       	mov.b	#0xff,r7l
    7ff4:	ff ff       	mov.b	#0xff,r7l
    7ff6:	ff ff       	mov.b	#0xff,r7l
    7ff8:	ff ff       	mov.b	#0xff,r7l
    7ffa:	ff ff       	mov.b	#0xff,r7l
    7ffc:	ff ff       	mov.b	#0xff,r7l
    7ffe:	ff ff       	mov.b	#0xff,r7l
