0000: 0000                      nop
0002: 4f96                      ble     h'ffff9a
0004: 0000                      nop
0006: 0000                      nop
0008: 0000                      nop
000a: 0000                      nop
000c: 0000                      nop
000e: 0000                      nop
0010: 0000                      nop
0012: 0000                      nop
0014: 0000                      nop
0016: 0000                      nop
0018: 0000                      nop
001a: 0000                      nop
001c: 0000                      nop
001e: 0b4c                      .word
0020: 0000                      nop
0022: 0000                      nop
0024: 0000                      nop
0026: 0000                      nop
0028: 0000                      nop
002a: 0000                      nop
002c: 0000                      nop
002e: 0000                      nop
0030: 0000                      nop
0032: 0000                      nop
0034: 0000                      nop
0036: 0000                      nop
0038: 0000                      nop
003a: 0000                      nop
003c: 0000                      nop
003e: 0000                      nop
0040: 0000                      nop
0042: 0bc0                      .word
0044: 0000                      nop
0046: 0bda                      inc.w   #2, e2
0048: 0000                      nop
004a: 0bf4                      inc.l   #2, er4
004c: 0000                      nop
004e: 0c0e                      mov.b   r0h, r6l
0050: 0000                      nop
0052: 0c28                      mov.b   r2h, r0l
0054: 0000                      nop
0056: 0c42                      mov.b   r4h, r2h
0058: 0000                      nop
005a: 0c5c                      mov.b   r5h, r4l
005c: 0000                      nop
005e: 0c76                      mov.b   r7h, r6h
0060: 0000                      nop
0062: 0c90                      mov.b   r1l, r0h
0064: 0000                      nop
0066: 0caa                      mov.b   r2l, r2l
0068: 0000                      nop
006a: 0cc4                      mov.b   r4l, r4h
006c: 0000                      nop
006e: 0000                      nop
0070: 0000                      nop
0072: 0cde                      mov.b   r5l, r6l
0074: 0000                      nop
0076: 0000                      nop
0078: 0000                      nop
007a: 0000                      nop
007c: 0000                      nop
007e: 0000                      nop
0080: 0000                      nop
0082: 0cf8                      mov.b   r7l, r0l
0084: 0000                      nop
0086: 0d12                      mov.w   r1, r2
0088: 0000                      nop
008a: 0d2c                      mov.w   r2, e4
008c: 0000                      nop
008e: 0d46                      mov.w   r4, r6
0090: 0000                      nop
0092: 0d60                      mov.w   r6, r0
0094: 0000                      nop
0096: 0000                      nop
0098: 0000                      nop
009a: 0000                      nop
009c: 0000                      nop
009e: 0000                      nop
00a0: 0000                      nop
00a2: 0d7a                      mov.w   r7, e2
00a4: 0000                      nop
00a6: 0d94                      mov.w   e1, r4
00a8: 0000                      nop
00aa: 0dae                      mov.w   e2, e6
00ac: 0000                      nop
00ae: 0dc8                      mov.w   e4, e0
00b0: 0000                      nop
00b2: 0de2                      mov.w   e6, r2
00b4: 0000                      nop
00b6: 0dfc                      mov.w   e7, e4
00b8: 0000                      nop
00ba: 0e16                      addx.b  r1h, r6h
00bc: 0000                      nop
00be: 0e30                      addx.b  r3h, r0h
00c0: 0000                      nop
00c2: 0e4a                      addx.b  r4h, r2l
00c4: 0000                      nop
00c6: 0e64                      addx.b  r6h, r4h
00c8: 0000                      nop
00ca: 0e7e                      addx.b  r7h, r6l
00cc: 0000                      nop
00ce: 0e98                      addx.b  r1l, r0l
00d0: 0000                      nop
00d2: 0eb2                      addx.b  r3l, r2h
00d4: 0000                      nop
00d6: 0000                      nop
00d8: 0000                      nop
00da: 0000                      nop
00dc: 0000                      nop
00de: 0000                      nop
00e0: 0000                      nop
00e2: 0ecc                      addx.b  r4l, r4l
00e4: 0000                      nop
00e6: 0ee6                      addx.b  r6l, r6h
00e8: 0000                      nop
00ea: 0f00                      daa.b   r0h
00ec: 0000                      nop
00ee: 0f1a                      .word
00f0: 0000                      nop
00f2: 0f34                      .word
00f4: 0000                      nop
00f6: 0f4e                      .word
00f8: 0000                      nop
00fa: 0f68                      .word
00fc: 0000                      nop
00fe: 0f82                      mov.l   er0, er2
0100: 0000                      nop
0102: 0f9c                      .word
0104: 0000                      nop
0106: 0fb6                      mov.l   er3, er6
0108: 0000                      nop
010a: 0fd0                      mov.l   er5, er0
010c: 0000                      nop
010e: 0000                      nop
0110: 0000                      nop
0112: 0fea                      .word
0114: 0000                      nop
0116: 1004                      shll.b  r4h
0118: 0000                      nop
011a: 101e                      shll.w  e6
011c: 0000                      nop
011e: 0000                      nop
0120: 0000                      nop
0122: 1038                      .word
0124: 0000                      nop
0126: 1052                      shll.w  #2, r2
0128: 0000                      nop
012a: 106c                      .word
012c: 0000                      nop
012e: 1086                      shal.b  r6h
0130: 0000                      nop
0132: 0000                      nop
0134: 0000                      nop
0136: 0000                      nop
0138: 0000                      nop
013a: 0000                      nop
013c: 0000                      nop
013e: 0000                      nop
0140: 0000                      nop
0142: 10a0                      .word
0144: 0000                      nop
0146: 10ba                      .word
0148: 0000                      nop
014a: 10d4                      shal.w  #2, r4
014c: 0000                      nop
014e: 10ee                      .word
0150: 0000                      nop
0152: 1108                      shlr.b  r0l
0154: 0000                      nop
0156: 1122                      .word
0158: 0000                      nop
015a: 113c                      .word
015c: 0000                      nop
015e: 1156                      shlr.w  #2, r6
0160: 0000                      nop
0162: 1170                      shlr.l  #2, er0
0164: 0000                      nop
0166: 118a                      shar.b  r2l
0168: 0000                      nop
016a: 11a4                      .word
016c: 0000                      nop
016e: 11be                      .word
0170: 0102                      .word
0172: 0408                      orc     #h'08, ccr
0174: 1020                      .word
0176: 4080                      bt      h'0000f8
0178: 1d3a                      cmp.w   r3, e2
017a: 74e8                      bior    #6, r0l
017c: cd87                      or.b    #h'87, r5l
017e: 1326                      .word
0180: 4c98                      bge     h'00011a
0182: 2d5a                      mov.b   @h'ffff5a, r5l
0184: b475                      subx.b  #h'75, r4h
0186: eac9                      and.b   #h'c9, r2l
0188: 8f03                      add.b   #h'03, r7l
018a: 060c                      andc    #h'0c, ccr
018c: 1830                      sub.b   r3h, r0h
018e: 60c0                      bset    r4l, r0h
0190: 9d27                      addx.b  #h'27, r5l
0192: 4e9c                      bgt     h'000130
0194: 254a                      mov.b   @h'ffff4a, r5h
0196: 9435                      addx.b  #h'35, r4h
0198: 6ad4                      .word
019a: b577                      subx.b  #h'77, r5h
019c: eec1                      and.b   #h'c1, r6l
019e: 9f23                      addx.b  #h'23, r7l
01a0: 468c                      bne     h'00012e
01a2: 050a                      xorc    #h'0a, ccr
01a4: 1428                      or.b    r2h, r0l
01a6: 50a0                      mulxu.b r2l, r0
01a8: 5dba                      .word
01aa: 69d2                      mov.w   r2, @er5
01ac: b96f                      subx.b  #h'6f, r1l
01ae: dea1                      xor.b   #h'a1, r6l
01b0: 5fbe                      jsr     @h'be
01b2: 61c2                      bnot    r4l, r2h
01b4: 992f                      addx.b  #h'2f, r1l
01b6: 5ebc 65ca                 jsr     h'bc65ca
01ba: 890f                      add.b   #h'0f, r1l
01bc: 1e3c                      subx.b  r3h, r4l
01be: 78f0                      .word
01c0: fde7                      mov.b   #h'e7, r5l
01c2: d3bb                      xor.b   #h'bb, r3h
01c4: 6bd6                      .word
01c6: b17f                      subx.b  #h'7f, r1h
01c8: fee1                      mov.b   #h'e1, r6l
01ca: dfa3                      xor.b   #h'a3, r7l
01cc: 5bb6                      jmp     @h'b6
01ce: 71e2                      .word
01d0: d9af                      xor.b   #h'af, r1l
01d2: 4386                      bls     h'00015a
01d4: 1122                      .word
01d6: 4488                      bcc     h'000160
01d8: 0d1a                      mov.w   r1, e2
01da: 3468                      mov.b   r4h, @h'ffff68
01dc: d0bd                      xor.b   #h'bd, r0h
01de: 67ce                      bist    #4, r6l
01e0: 811f                      add.b   #h'1f, r1h
01e2: 3e7c                      mov.b   r6l, @h'ffff7c
01e4: f8ed                      mov.b   #h'ed, r0l
01e6: c793                      or.b    #h'93, r7h
01e8: 3b76                      mov.b   r3l, @h'ffff76
01ea: ecc5                      and.b   #h'c5, r4l
01ec: 9733                      addx.b  #h'33, r7h
01ee: 66cc                      and.w   e4, e4
01f0: 8517                      add.b   #h'17, r5h
01f2: 2e5c                      mov.b   @h'ffff5c, r6l
01f4: b86d                      subx.b  #h'6d, r0l
01f6: daa9                      xor.b   #h'a9, r2l
01f8: 4f9e                      ble     h'000198
01fa: 2142                      mov.b   @h'ffff42, r1h
01fc: 8415                      add.b   #h'15, r4h
01fe: 2a54                      mov.b   @h'ffff54, r2l
0200: a84d                      cmp.b   #h'4d, r0l
0202: 9a29                      addx.b  #h'29, r2l
0204: 52a4                      mulxu.w e2, er4
0206: 55aa                      bsr     h'0001b2
0208: 4992                      bvs     h'00019c
020a: 3972                      mov.b   r1l, @h'ffff72
020c: e4d5                      and.b   #h'd5, r4h
020e: b773                      subx.b  #h'73, r7h
0210: e6d1                      and.b   #h'd1, r6h
0212: bf63                      subx.b  #h'63, r7l
0214: c691                      or.b    #h'91, r6h
0216: 3f7e                      mov.b   r7l, @h'ffff7e
0218: fce5                      mov.b   #h'e5, r4l
021a: d7b3                      xor.b   #h'b3, r7h
021c: 7bf6                      .word
021e: f1ff                      mov.b   #h'ff, r1h
0220: e3db                      and.b   #h'db, r3h
0222: ab4b                      cmp.b   #h'4b, r3l
0224: 9631                      addx.b  #h'31, r6h
0226: 62c4                      bclr    r4l, r4h
0228: 9537                      addx.b  #h'37, r5h
022a: 6edc a557                 mov.b   r4l, @(h'a557, er5)
022e: ae41                      cmp.b   #h'41, r6l
0230: 8219                      add.b   #h'19, r2h
0232: 3264                      mov.b   r2h, @h'ffff64
0234: c88d                      or.b    #h'8d, r0l
0236: 070e                      ldc     #h'0e, ccr
0238: 1c38                      cmp.b   r3h, r0l
023a: 70e0                      .word
023c: dda7                      xor.b   #h'a7, r5l
023e: 53a6                      divxu.w e2, er6
0240: 51a2                      divxu.b r2l, r2
0242: 59b2                      .word
0244: 79f2                      .word
0246: f9ef                      mov.b   #h'ef, r1l
0248: c39b                      or.b    #h'9b, r3h
024a: 2b56                      mov.b   @h'ffff56, r3l
024c: ac45                      cmp.b   #h'45, r4l
024e: 8a09                      add.b   #h'09, r2l
0250: 1224                      .word
0252: 4890                      bvc     h'0001e4
0254: 3d7a                      mov.b   r5l, @h'ffff7a
0256: f4f5                      mov.b   #h'f5, r4h
0258: f7f3                      mov.b   #h'f3, r7h
025a: fbeb                      mov.b   #h'eb, r3l
025c: cb8b                      or.b    #h'8b, r3l
025e: 0b16                      .word
0260: 2c58                      mov.b   @h'ffff58, r4l
0262: b07d                      subx.b  #h'7d, r0h
0264: fae9                      mov.b   #h'e9, r2l
0266: cf83                      or.b    #h'83, r7l
0268: 1b36                      .word
026a: 6cd8                      mov.b   r0l, @-er5
026c: ad47                      cmp.b   #h'47, r5l
026e: 8e00                      add.b   #h'00, r6l
0270: ff00                      mov.b   #h'00, r7l
0272: 0119                      .word
0274: 0232                      .word
0276: 1ac6                      sub.l   er4, er6
0278: 03df                      .word
027a: 33ee                      mov.b   r3h, @h'ffffee
027c: 1b68                      .word
027e: c74b                      or.b    #h'4b, r7h
0280: 0464                      orc     #h'64, ccr
0282: e00e                      and.b   #h'0e, r0h
0284: 348d                      mov.b   r4h, @h'ffff8d
0286: ef81                      and.b   #h'81, r7l
0288: 1cc1                      cmp.b   r4l, r1h
028a: 69f8                      mov.w   e0, @sp
028c: c808                      or.b    #h'08, r0l
028e: 4c71                      bge     h'000301
0290: 058a                      xorc    #h'8a, ccr
0292: 652f                      xor.w   r2, e7
0294: e124                      and.b   #h'24, r1h
0296: 0f21                      .word
0298: 3593                      mov.b   r5h, @h'ffff93
029a: 8eda                      add.b   #h'da, r6l
029c: f012                      mov.b   #h'12, r0h
029e: 8245                      add.b   #h'45, r2h
02a0: 1db5                      cmp.w   e3, r5
02a2: c27d                      or.b    #h'7d, r2h
02a4: 6a27 f9b9 c99a            mov.b   @h'f9b9c99a, r7h
02aa: 0978                      add.w   r7, e0
02ac: 4de4                      blt     h'000292
02ae: 72a6                      .word
02b0: 06bf                      andc    #h'bf, ccr
02b2: 8b62                      add.b   #h'62, r3l
02b4: 66dd                      and.w   e5, e5
02b6: 30fd                      mov.b   r0h, @h'fffffd
02b8: e298                      and.b   #h'98, r2h
02ba: 25b3                      mov.b   @h'ffffb3, r5h
02bc: 1091                      shal.w  r1
02be: 2288                      mov.b   @h'ffff88, r2h
02c0: 36d0                      mov.b   r6h, @h'ffffd0
02c2: 94ce                      addx.b  #h'ce, r4h
02c4: 8f96                      add.b   #h'96, r7l
02c6: dbbd                      xor.b   #h'bd, r3l
02c8: f1d2                      mov.b   #h'd2, r1h
02ca: 135c                      rotxr.w #2, e4
02cc: 8338                      add.b   #h'38, r3h
02ce: 4640                      bne     h'000310
02d0: 1e42                      subx.b  r4h, r2h
02d2: b6a3                      subx.b  #h'a3, r6h
02d4: c348                      or.b    #h'48, r3h
02d6: 7e6e                      .word
02d8: 6b3a                      .word
02da: 2854                      mov.b   @h'ffff54, r0l
02dc: fa85                      mov.b   #h'85, r2l
02de: ba3d                      subx.b  #h'3d, r2l
02e0: ca5e                      or.b    #h'5e, r2l
02e2: 9b9f                      addx.b  #h'9f, r3l
02e4: 0a15                      .word
02e6: 792b 4ed4                 cmp.w   #h'4ed4, e3
02ea: e5ac                      and.b   #h'ac, r5h
02ec: 73f3                      .word
02ee: a757                      cmp.b   #h'57, r7h
02f0: 0770                      ldc     #h'70, ccr
02f2: c0f7                      or.b    #h'f7, r0h
02f4: 8c80                      add.b   #h'80, r4l
02f6: 630d                      btst    r0h, r5l
02f8: 674a                      bst     #4, r2l
02fa: deed                      xor.b   #h'ed, r6l
02fc: 31c5                      mov.b   r1h, @h'ffffc5
02fe: fe18                      mov.b   #h'18, r6l
0300: e3a5                      and.b   #h'a5, r3h
0302: 9977                      addx.b  #h'77, r1l
0304: 26b8                      mov.b   @h'ffffb8, r6h
0306: b47c                      subx.b  #h'7c, r4h
0308: 1144                      shlr.b  #2, r4h
030a: 92d9                      addx.b  #h'd9, r2h
030c: 2320                      mov.b   @h'ffff20, r3h
030e: 892e                      add.b   #h'2e, r1l
0310: 373f                      mov.b   r7h, @h'ffff3f
0312: d15b                      xor.b   #h'5b, r1h
0314: 95bc                      addx.b  #h'bc, r5h
0316: cfcd                      or.b    #h'cd, r7l
0318: 9087                      addx.b  #h'87, r0h
031a: 97b2                      addx.b  #h'b2, r7h
031c: dcfc                      xor.b   #h'fc, r4l
031e: be61                      subx.b  #h'61, r6l
0320: f256                      mov.b   #h'56, r2h
0322: d3ab                      xor.b   #h'ab, r3h
0324: 142a                      or.b    r2h, r2l
0326: 5d9e                      .word
0328: 843c                      add.b   #h'3c, r4h
032a: 3953                      mov.b   r1l, @h'ffff53
032c: 476d                      beq     h'00039b
032e: 41a2                      bf      h'0002d2
0330: 1f2d                      .word
0332: 43d8                      bls     h'00030c
0334: b77b                      subx.b  #h'7b, r7h
0336: a476                      cmp.b   #h'76, r4h
0338: c417                      or.b    #h'17, r4h
033a: 49ec                      bvs     h'000328
033c: 7f0c                      .word
033e: 6ff6 6ca1                 mov.w   r6, @(h'6ca1, sp)
0342: 3b52                      mov.b   r3l, @h'ffff52
0344: 299d                      mov.b   @h'ffff9d, r1l
0346: 55aa                      bsr     h'0002f2
0348: fb60                      mov.b   #h'60, r3l
034a: 86b1                      add.b   #h'b1, r6h
034c: bbcc                      subx.b  #h'cc, r3l
034e: 3e5a                      mov.b   r6l, @h'ffff5a
0350: cb59                      or.b    #h'59, r3l
0352: 5fb0                      jsr     @h'b0
0354: 9ca9                      addx.b  #h'a9, r4l
0356: a051                      cmp.b   #h'51, r0h
0358: 0bf5                      inc.l   #2, er5
035a: 16eb                      and.b   r6l, r3l
035c: 7a75                      .word
035e: 2cd7                      mov.b   @h'ffffd7, r4l
0360: 4fae                      ble     h'000310
0362: d5e9                      xor.b   #h'e9, r5h
0364: e6e7                      and.b   #h'e7, r6h
0366: ade8                      cmp.b   #h'e8, r5l
0368: 74d6                      bior    #5, r6h
036a: f4ea                      mov.b   #h'ea, r4h
036c: a850                      cmp.b   #h'50, r0l
036e: 58af                      .word
0370: d2cf                      xor.b   #h'cf, r2h
0372: e6e5                      and.b   #h'e5, r6h
0374: b4ab                      subx.b  #h'ab, r4h
0376: fd60                      mov.b   #h'60, r5l
0378: ede8                      and.b   #h'e8, r5l
037a: bed3                      subx.b  #h'd3, r6l
037c: c321                      or.b    #h'21, r3h
037e: a942                      cmp.b   #h'42, r1l
0380: 3652                      mov.b   r6h, @h'ffff52
0382: 3e12                      mov.b   r6l, @h'ffff12
0384: 00b4                      .word
0386: f321                      mov.b   #h'21, r3h
0388: c7fa                      or.b    #h'fa, r7h
038a: 9552                      addx.b  #h'52, r5h
038c: fed9                      mov.b   #h'd9, r6l
038e: dced                      xor.b   #h'ed, r4l
0390: f1af                      mov.b   #h'af, r1h
0392: 19cd                      sub.w   e4, e5
0394: 8858                      add.b   #h'58, r0l
0396: 1a21                      .word
0398: e034                      and.b   #h'34, r0h
039a: 729d                      .word
039c: 0a25                      .word
039e: 6fb0 e27f                 mov.w   r0, @(h'e27f, er3)
03a2: 239c                      mov.b   @h'ffff9c, r3h
03a4: 3fb0                      mov.b   r7l, @h'ffffb0
03a6: 6f1d 5868                 mov.w   @(h'5868, er1), e5
03aa: 60f5                      bset    r7l, r5h
03ac: 7595                      bixor   #1, r5h
03ae: 2453                      mov.b   @h'ffff53, r4h
03b0: 6c23                      mov.b   @er2+, r3h
03b2: c135                      or.b    #h'35, r1h
03b4: 3626                      mov.b   r6h, @h'ffff26
03b6: 636f                      btst    r6h, r7l
03b8: a4af                      cmp.b   #h'af, r4h
03ba: c13e                      or.b    #h'3e, r1h
03bc: ab10                      cmp.b   #h'10, r3l
03be: a3e5                      cmp.b   #h'e5, r3h
03c0: 69d9                      mov.w   e1, @er5
03c2: 3524                      mov.b   r5h, @h'ffff24
03c4: cbb8                      or.b    #h'b8, r3l
03c6: 978b                      addx.b  #h'8b, r7h
03c8: 85ca                      add.b   #h'ca, r5h
03ca: bb66                      subx.b  #h'66, r3l
03cc: 04af                      orc     #h'af, ccr
03ce: 8385                      add.b   #h'85, r3h
03d0: 778b                      bild    #0, r3l
03d2: 070f                      ldc     #h'0f, ccr
03d4: 9000                      addx.b  #h'00, r0h
03d6: 3729                      mov.b   r7h, @h'ffff29
03d8: 6647                      and.w   r4, r7
03da: 4c7b                      bge     h'000457
03dc: 4131                      bf      h'00040f
03de: 45fc                      bcs     h'0003dc
03e0: 00d2                      .word
03e2: dd44                      xor.b   #h'44, r5l
03e4: 0af2                      add.l   sp, er2
03e6: 153d                      xor.b   r3h, r5l
03e8: b398                      subx.b  #h'98, r3h
03ea: f5d5                      mov.b   #h'd5, r5h
03ec: f5bf                      mov.b   #h'bf, r5h
03ee: 3b8d                      mov.b   r3l, @h'ffff8d
03f0: ed6e                      and.b   #h'6e, r5l
03f2: fc62                      mov.b   #h'62, r4l
03f4: 793a 3bbe                 sub.w   #h'3bbe, e2
03f8: ba25                      subx.b  #h'25, r2l
03fa: dd9c                      xor.b   #h'9c, r5l
03fc: 94af                      addx.b  #h'af, r4h
03fe: 2a00                      mov.b   @h'ffff00, r2l
0400: ffff                      mov.b   #h'ff, r7l
0402: ffff                      mov.b   #h'ff, r7l
0404: ffff                      mov.b   #h'ff, r7l
0406: ffff                      mov.b   #h'ff, r7l
0408: ffff                      mov.b   #h'ff, r7l
040a: ffff                      mov.b   #h'ff, r7l
040c: ffff                      mov.b   #h'ff, r7l
040e: ffff                      mov.b   #h'ff, r7l
0410: ffff                      mov.b   #h'ff, r7l
0412: ffff                      mov.b   #h'ff, r7l
0414: ffff                      mov.b   #h'ff, r7l
0416: ffff                      mov.b   #h'ff, r7l
0418: ffff                      mov.b   #h'ff, r7l
041a: ffff                      mov.b   #h'ff, r7l
041c: ffff                      mov.b   #h'ff, r7l
041e: ffff                      mov.b   #h'ff, r7l
0420: 0000                      nop
0422: 0000                      nop
0424: 0000                      nop
0426: 0000                      nop
0428: 0000                      nop
042a: 0000                      nop
042c: 0000                      nop
042e: 0000                      nop
0430: 0000                      nop
0432: 0000                      nop
0434: 0000                      nop
0436: 0000                      nop
0438: fbac                      mov.b   #h'ac, r3l
043a: fb10                      mov.b   #h'10, r3l
043c: 0000                      nop
043e: 0000                      nop
0440: fb4c                      mov.b   #h'4c, r3l
0442: fb58                      mov.b   #h'58, r3l
0444: fb64                      mov.b   #h'64, r3l
0446: fb70                      mov.b   #h'70, r3l
0448: 0000                      nop
044a: 0000                      nop
044c: 0000                      nop
044e: 0000                      nop
0450: fb7c                      mov.b   #h'7c, r3l
0452: fb88                      mov.b   #h'88, r3l
0454: 0000                      nop
0456: 0000                      nop
0458: fb94                      mov.b   #h'94, r3l
045a: fba0                      mov.b   #h'a0, r3l
045c: 0000                      nop
045e: 0000                      nop
0460: fb1c                      mov.b   #h'1c, r3l
0462: fb28                      mov.b   #h'28, r3l
0464: fb34                      mov.b   #h'34, r3l
0466: fb40                      mov.b   #h'40, r3l
0468: 0000                      nop
046a: 0000                      nop
046c: 0000                      nop
046e: 0000                      nop
0470: fb1c                      mov.b   #h'1c, r3l
0472: fb28                      mov.b   #h'28, r3l
0474: 0000                      nop
0476: 0000                      nop
0478: fb34                      mov.b   #h'34, r3l
047a: fb40                      mov.b   #h'40, r3l
047c: 0000                      nop
047e: 0000                      nop
0480: fb34                      mov.b   #h'34, r3l
0482: fb40                      mov.b   #h'40, r3l
0484: 0000                      nop
0486: 0000                      nop
0488: fb1c                      mov.b   #h'1c, r3l
048a: fb28                      mov.b   #h'28, r3l
048c: 0000                      nop
048e: 0000                      nop
0490: faf8                      mov.b   #h'f8, r2l
0492: fb04                      mov.b   #h'04, r3l
0494: fae0                      mov.b   #h'e0, r2l
0496: faec                      mov.b   #h'ec, r2l
0498: 0000                      nop
049a: 0000                      nop
049c: 0000                      nop
049e: 0000                      nop
04a0: 0000                      nop
04a2: fbb8                      mov.b   #h'b8, r3l
04a4: fbc4                      mov.b   #h'c4, r3l
04a6: 0000                      nop
04a8: 0000                      nop
04aa: fbd0                      mov.b   #h'd0, r3l
04ac: fbd0                      mov.b   #h'd0, r3l
04ae: 0000                      nop
04b0: 0000                      nop
04b2: fbe8                      mov.b   #h'e8, r3l
04b4: fbf4                      mov.b   #h'f4, r3l
04b6: 3030                      mov.b   r0h, @h'ffff30
04b8: 3131                      mov.b   r1h, @h'ffff31
04ba: 3232                      mov.b   r2h, @h'ffff32
04bc: 3333                      mov.b   r3h, @h'ffff33
04be: 3434                      mov.b   r4h, @h'ffff34
04c0: 3535                      mov.b   r5h, @h'ffff35
04c2: 3636                      mov.b   r6h, @h'ffff36
04c4: 3737                      mov.b   r7h, @h'ffff37
04c6: 3838                      mov.b   r0l, @h'ffff38
04c8: 3939                      mov.b   r1l, @h'ffff39
04ca: 4161                      bf      h'00052d
04cc: 4262                      bhi     h'000530
04ce: 4363                      bls     h'000533
04d0: 4464                      bcc     h'000536
04d2: 4565                      bcs     h'000539
04d4: 4666                      bne     h'00053c
04d6: 0030                      .word
04d8: 7800                      .word
04da: 4827                      bvc     h'000503
04dc: 0068                      .word
04de: 2700                      mov.b   @h'ffff00, r7h
04e0: 0000                      nop
04e2: 0000                      nop
04e4: 7707                      bld     #0, r7h
04e6: 3096                      mov.b   r0h, @h'ffff96
04e8: ee0e                      and.b   #h'0e, r6l
04ea: 612c                      bnot    r2h, r4l
04ec: 9909                      addx.b  #h'09, r1l
04ee: 51ba                      divxu.b r3l, e2
04f0: 076d                      ldc     #h'6d, ccr
04f2: c419                      or.b    #h'19, r4h
04f4: 706a                      bset    #6, r2l
04f6: f48f                      mov.b   #h'8f, r4h
04f8: e963                      and.b   #h'63, r1l
04fa: a535                      cmp.b   #h'35, r5h
04fc: 9e64                      addx.b  #h'64, r6l
04fe: 95a3                      addx.b  #h'a3, r5h
0500: 0edb                      addx.b  r5l, r3l
0502: 8832                      add.b   #h'32, r0l
0504: 79dc                      .word
0506: b8a4                      subx.b  #h'a4, r0l
0508: e0d5                      and.b   #h'd5, r0h
050a: e91e                      and.b   #h'1e, r1l
050c: 97d2                      addx.b  #h'd2, r7h
050e: d988                      xor.b   #h'88, r1l
0510: 09b6                      add.w   e3, r6
0512: 4c2b                      bge     h'00053f
0514: 7eb1                      .word
0516: 7cbd                      .word
0518: e7b8                      and.b   #h'b8, r7h
051a: 2d07                      mov.b   @h'ffff07, r5l
051c: 90bf                      addx.b  #h'bf, r0h
051e: 1d91                      cmp.w   e1, r1
0520: 1db7                      cmp.w   e3, r7
0522: 1064                      .word
0524: 6ab0                      .word
0526: 20f2                      mov.b   @h'fffff2, r0h
0528: f3b9                      mov.b   #h'b9, r3h
052a: 7148                      bnot    #4, r0l
052c: 84be                      add.b   #h'be, r4h
052e: 41de                      bf      h'00050e
0530: 1ada                      .word
0532: d47d                      xor.b   #h'7d, r4h
0534: 6ddd                      mov.w   e5, @-er5
0536: e4eb                      and.b   #h'eb, r4h
0538: f4d4                      mov.b   #h'd4, r4h
053a: b551                      subx.b  #h'51, r5h
053c: 83d3                      add.b   #h'd3, r3h
053e: 85c7                      add.b   #h'c7, r5h
0540: 136c                      .word
0542: 9856                      addx.b  #h'56, r0l
0544: 646b                      or.w    r6, e3
0546: a8c0                      cmp.b   #h'c0, r0l
0548: fd62                      mov.b   #h'62, r5l
054a: f97a                      mov.b   #h'7a, r1l
054c: 8a65                      add.b   #h'65, r2l
054e: c9ec                      or.b    #h'ec, r1l
0550: 1401                      or.b    r0h, r1h
0552: 5c4f                      .word
0554: 6306                      btst    r0h, r6h
0556: 6cd9                      mov.b   r1l, @-er5
0558: fa0f                      mov.b   #h'0f, r2l
055a: 3d63                      mov.b   r5l, @h'ffff63
055c: 8d08                      add.b   #h'08, r5l
055e: 0df5                      mov.w   e7, r5
0560: 3b6e                      mov.b   r3l, @h'ffff6e
0562: 20c8                      mov.b   @h'ffffc8, r0h
0564: 4c69                      bge     h'0005cf
0566: 105e                      shll.w  #2, e6
0568: d560                      xor.b   #h'60, r5h
056a: 41e4                      bf      h'000550
056c: a267                      cmp.b   #h'67, r2h
056e: 7172                      bnot    #7, r2h
0570: 3c03                      mov.b   r4l, @h'ffff03
0572: e4d1                      and.b   #h'd1, r4h
0574: 4b04                      bmi     h'00057a
0576: d447                      xor.b   #h'47, r4h
0578: d20d                      xor.b   #h'0d, r2h
057a: 85fd                      add.b   #h'fd, r5h
057c: a50a                      cmp.b   #h'0a, r5h
057e: b56b                      subx.b  #h'6b, r5h
0580: 35b5                      mov.b   r5h, @h'ffffb5
0582: a8fa                      cmp.b   #h'fa, r0l
0584: 42b2                      bhi     h'000538
0586: 986c                      addx.b  #h'6c, r0l
0588: dbbb                      xor.b   #h'bb, r3l
058a: c9d6                      or.b    #h'd6, r1l
058c: acbc                      cmp.b   #h'bc, r4l
058e: f940                      mov.b   #h'40, r1l
0590: 32d8                      mov.b   r2h, @h'ffffd8
0592: 6ce3                      mov.b   r3h, @-er6
0594: 45df                      bcs     h'000575
0596: 5c75                      .word
0598: dcd6                      xor.b   #h'd6, r4l
059a: 0dcf                      mov.w   e4, e7
059c: abd1                      cmp.b   #h'd1, r3l
059e: 3d59                      mov.b   r5l, @h'ffff59
05a0: 26d9                      mov.b   @h'ffffd9, r6h
05a2: 30ac                      mov.b   r0h, @h'ffffac
05a4: 51de                      divxu.b r5l, e6
05a6: 003a                      .word
05a8: c8d7                      or.b    #h'd7, r0l
05aa: 5180                      divxu.b r0l, r0
05ac: bfd0                      subx.b  #h'd0, r7l
05ae: 6116                      bnot    r1h, r6h
05b0: 21b4                      mov.b   @h'ffffb4, r1h
05b2: f4b5                      mov.b   #h'b5, r4h
05b4: 56b3                      .word
05b6: c423                      or.b    #h'23, r4h
05b8: cfba                      or.b    #h'ba, r7l
05ba: 9599                      addx.b  #h'99, r5h
05bc: b8bd                      subx.b  #h'bd, r0l
05be: a50f                      cmp.b   #h'0f, r5h
05c0: 2802                      mov.b   @h'ffff02, r0l
05c2: b89e                      subx.b  #h'9e, r0l
05c4: 5f05                      jsr     @h'05
05c6: 8808                      add.b   #h'08, r0l
05c8: c60c                      or.b    #h'0c, r6h
05ca: d9b2                      xor.b   #h'b2, r1l
05cc: b10b                      subx.b  #h'0b, r1h
05ce: e924                      and.b   #h'24, r1l
05d0: 2f6f                      mov.b   @h'ffff6f, r7l
05d2: 7c87                      .word
05d4: 5868                      .word
05d6: 4c11                      bge     h'0005e9
05d8: c161                      or.b    #h'61, r1h
05da: 1dab                      cmp.w   e2, e3
05dc: b666                      subx.b  #h'66, r6h
05de: 2d3d                      mov.b   @h'ffff3d, r5l
05e0: 76dc                      biand   #5, r4l
05e2: 4190                      bf      h'000574
05e4: 01db                      .word
05e6: 7106                      bnot    #0, r6h
05e8: 98d2                      addx.b  #h'd2, r0l
05ea: 20bc                      mov.b   @h'ffffbc, r0h
05ec: efd5                      and.b   #h'd5, r7l
05ee: 102a                      .word
05f0: 71b1                      .word
05f2: 8589                      add.b   #h'89, r5h
05f4: 06b6                      andc    #h'b6, ccr
05f6: b51f                      subx.b  #h'1f, r5h
05f8: 9fbf                      addx.b  #h'bf, r7l
05fa: e4a5                      and.b   #h'a5, r4h
05fc: e8b8                      and.b   #h'b8, r0l
05fe: d433                      xor.b   #h'33, r4h
0600: 7807                      .word
0602: c9a2                      or.b    #h'a2, r1l
0604: 0f00                      daa.b   r0h
0606: f934                      mov.b   #h'34, r1l
0608: 9609                      addx.b  #h'09, r6h
060a: a88e                      cmp.b   #h'8e, r0l
060c: e10e                      and.b   #h'0e, r1h
060e: 9818                      addx.b  #h'18, r0l
0610: 7f6a                      .word
0612: 0dbb                      mov.w   e3, e3
0614: 086d                      add.b   r6h, r5l
0616: 3d2d                      mov.b   r5l, @h'ffff2d
0618: 9164                      addx.b  #h'64, r1h
061a: 6c97                      mov.b   r7h, @-er1
061c: e663                      and.b   #h'63, r6h
061e: 5c01                      .word
0620: 6b6b                      .word
0622: 51f4                      divxu.b r7l, r4
0624: 1c6c                      cmp.b   r6h, r4l
0626: 6162                      bnot    r6h, r2h
0628: 8565                      add.b   #h'65, r5h
062a: 30d8                      mov.b   r0h, @h'ffffd8
062c: f262                      mov.b   #h'62, r2h
062e: 004e                      .word
0630: 6c06                      mov.b   @er0+, r6h
0632: 95ed                      addx.b  #h'ed, r5h
0634: 1b01                      subs.l  #1, er1
0636: a57b                      cmp.b   #h'7b, r5h
0638: 8208                      add.b   #h'08, r2h
063a: f4c1                      mov.b   #h'c1, r4h
063c: f50f                      mov.b   #h'0f, r5h
063e: c457                      or.b    #h'57, r4h
0640: 65b0                      xor.w   e3, r0
0642: d9c6                      xor.b   #h'c6, r1l
0644: 12b7                      rotl.l  sp
0646: e950                      and.b   #h'50, r1l
0648: 8bbe                      add.b   #h'be, r3l
064a: b8ea                      subx.b  #h'ea, r0l
064c: fcb9                      mov.b   #h'b9, r4l
064e: 887c                      add.b   #h'7c, r0l
0650: 62dd                      bclr    r5l, r5l
0652: 1ddf                      cmp.w   e5, e7
0654: 15da                      xor.b   r5l, r2l
0656: 2d49                      mov.b   @h'ffff49, r5l
0658: 8cd3                      add.b   #h'd3, r4l
065a: 7cf3                      .word
065c: fbd4                      mov.b   #h'd4, r3l
065e: 4c65                      bge     h'0006c5
0660: 4db2                      blt     h'000614
0662: 6158                      bnot    r5h, r0l
0664: 3ab5                      mov.b   r2l, @h'ffffb5
0666: 51ce                      divxu.b r4l, e6
0668: a3bc                      cmp.b   #h'bc, r3h
066a: 0074                      .word
066c: d4bb                      xor.b   #h'bb, r4h
066e: 30e2                      mov.b   r0h, @h'ffffe2
0670: 4adf                      bpl     h'000651
0672: a541                      cmp.b   #h'41, r5h
0674: 3dd8                      mov.b   r5l, @h'ffffd8
0676: 95d7                      addx.b  #h'd7, r5h
0678: a4d1                      cmp.b   #h'd1, r4h
067a: c46d                      or.b    #h'6d, r4h
067c: d3d6                      xor.b   #h'd6, r3h
067e: f4fb                      mov.b   #h'fb, r4h
0680: 4369                      bls     h'0006eb
0682: e96a                      and.b   #h'6a, r1l
0684: 346e                      mov.b   r4h, @h'ffff6e
0686: d9fc                      xor.b   #h'fc, r1l
0688: ad67                      cmp.b   #h'67, r5l
068a: 8846                      add.b   #h'46, r0l
068c: da60                      xor.b   #h'60, r2l
068e: b8d0                      subx.b  #h'd0, r0l
0690: 4404                      bcc     h'000696
0692: 2d73                      mov.b   @h'ffff73, r5l
0694: 3303                      mov.b   r3h, @h'ffff03
0696: 1de5                      cmp.w   e6, r5
0698: aa0a                      cmp.b   #h'0a, r2l
069a: 4c5f                      bge     h'0006fb
069c: dd0d                      xor.b   #h'0d, r5l
069e: 7cc9                      .word
06a0: 5005                      mulxu.b r0h, r5
06a2: 713c                      bnot    #3, r4l
06a4: 2702                      mov.b   @h'ffff02, r7h
06a6: 41aa                      bf      h'000652
06a8: be0b                      subx.b  #h'0b, r6l
06aa: 1010                      shll.w  r0
06ac: c90c                      or.b    #h'0c, r1l
06ae: 2086                      mov.b   @h'ffff86, r0h
06b0: 5768                      .word
06b2: b525                      subx.b  #h'25, r5h
06b4: 206f                      mov.b   @h'ffff6f, r0h
06b6: 85b3                      add.b   #h'b3, r5h
06b8: b966                      subx.b  #h'66, r1l
06ba: d409                      xor.b   #h'09, r4h
06bc: ce61                      or.b    #h'61, r6l
06be: e49f                      and.b   #h'9f, r4h
06c0: 5ede f90e                 jsr     h'def90e
06c4: 29d9                      mov.b   @h'ffffd9, r1l
06c6: c998                      or.b    #h'98, r1l
06c8: b0d0                      subx.b  #h'd0, r0h
06ca: 9822                      addx.b  #h'22, r0l
06cc: c7d7                      or.b    #h'd7, r7h
06ce: a8b4                      cmp.b   #h'b4, r0l
06d0: 59b3                      .word
06d2: 3d17                      mov.b   r5l, @h'ffff17
06d4: 2eb4                      mov.b   @h'ffffb4, r6l
06d6: 0d81                      mov.w   e0, r1
06d8: b7bd                      subx.b  #h'bd, r7h
06da: 5c3b                      .word
06dc: c0ba                      or.b    #h'ba, r0h
06de: 6cad                      mov.b   r5l, @-er2
06e0: edb8                      and.b   #h'b8, r5l
06e2: 8320                      add.b   #h'20, r3h
06e4: 9abf                      addx.b  #h'bf, r2l
06e6: b3b6                      subx.b  #h'b6, r3h
06e8: 03b6                      .word
06ea: e20c                      and.b   #h'0c, r2h
06ec: 74b1                      bior    #3, r1h
06ee: d29a                      xor.b   #h'9a, r2h
06f0: ead5                      and.b   #h'd5, r2l
06f2: 4739                      beq     h'00072d
06f4: 9dd2                      addx.b  #h'd2, r5l
06f6: 77af                      bild    #2, r7l
06f8: 04db                      orc     #h'db, ccr
06fa: 2615                      mov.b   @h'ffff15, r6h
06fc: 73dc                      .word
06fe: 1683                      and.b   r0l, r3h
0700: e363                      and.b   #h'63, r3h
0702: 0b12                      .word
0704: 9464                      addx.b  #h'64, r4h
0706: 3b84                      mov.b   r3l, @h'ffff84
0708: 0d6d                      mov.w   r6, e5
070a: 6a3e                      .word
070c: 7a6a                      .word
070e: 5aa8 e40e                 jmp     h'a8e40e
0712: cf0b                      or.b    #h'0b, r7l
0714: 9309                      addx.b  #h'09, r3h
0716: ff9d                      mov.b   #h'9d, r7l
0718: 0a00                      inc.b   #1, r0h
071a: ae27                      cmp.b   #h'27, r6l
071c: 7d07                      .word
071e: 9eb1                      addx.b  #h'b1, r6l
0720: f00f                      mov.b   #h'0f, r0h
0722: 9344                      addx.b  #h'44, r3h
0724: 8708                      add.b   #h'08, r7h
0726: a3d2                      cmp.b   #h'd2, r3h
0728: 1e01                      subx.b  r0h, r1h
072a: f268                      mov.b   #h'68, r2h
072c: 6906                      mov.w   @er0, r6
072e: c2fe                      or.b    #h'fe, r2h
0730: f762                      mov.b   #h'62, r7h
0732: 575d                      .word
0734: 8065                      add.b   #h'65, r0h
0736: 67cb                      bist    #4, r3l
0738: 196c                      sub.w   r6, e4
073a: 3671                      mov.b   r6h, @h'ffff71
073c: 6e6b 06e7                 mov.b   @(h'6e7, er6), r3l
0740: fed4                      mov.b   #h'd4, r6l
0742: 1b76                      dec.l   #1, er6
0744: 89d3                      add.b   #h'd3, r1l
0746: 2be0                      mov.b   @h'ffffe0, r3l
0748: 10da                      shal.w  #2, e2
074a: 7a5a                      .word
074c: 67dd                      bist    #5, r5l
074e: 4acc                      bpl     h'00071c
0750: f9b9                      mov.b   #h'b9, r1l
0752: df6f                      xor.b   #h'6f, r7l
0754: 8ebe                      add.b   #h'be, r6l
0756: eff9                      and.b   #h'f9, r7l
0758: 17b7                      neg.l   sp
075a: be43                      subx.b  #h'43, r6l
075c: 60b0                      bset    r3l, r0h
075e: 8ed5                      add.b   #h'd5, r6l
0760: d6d6                      xor.b   #h'd6, r6h
0762: a3e8                      cmp.b   #h'e8, r3h
0764: a1d1                      cmp.b   #h'd1, r1h
0766: 937e                      addx.b  #h'7e, r3h
0768: 38d8                      mov.b   r0l, @h'ffffd8
076a: c2c4                      or.b    #h'c4, r2h
076c: 4fdf                      ble     h'00074d
076e: f252                      mov.b   #h'52, r2h
0770: d1bb                      xor.b   #h'bb, r1h
0772: 67f1                      bist    #7, r1h
0774: a6bc                      cmp.b   #h'bc, r6h
0776: 5767                      .word
0778: 3fb5                      mov.b   r7l, @h'ffffb5
077a: 06dd                      andc    #h'dd, ccr
077c: 48b2                      bvc     h'000730
077e: 364b                      mov.b   r6h, @h'ffff4b
0780: d80d                      xor.b   #h'0d, r0l
0782: 2bda                      mov.b   @h'ffffda, r3l
0784: af0a                      cmp.b   #h'0a, r7l
0786: 1b4c                      .word
0788: 3603                      mov.b   r6h, @h'ffff03
078a: 4af6                      bpl     h'000782
078c: 4104                      bf      h'000792
078e: 7a60 df60 efc3            and.l   #h'df60efc3, er0
0794: a867                      cmp.b   #h'67, r0l
0796: df55                      xor.b   #h'55, r7l
0798: 316e                      mov.b   r1h, @h'ffff6e
079a: 8eef                      add.b   #h'ef, r6l
079c: 4669                      bne     h'000807
079e: be79                      subx.b  #h'79, r6l
07a0: cb61                      or.b    #h'61, r3l
07a2: b38c                      subx.b  #h'8c, r3h
07a4: bc66                      subx.b  #h'66, r4l
07a6: 831a                      add.b   #h'1a, r3h
07a8: 256f                      mov.b   @h'ffff6f, r5h
07aa: d2a0                      xor.b   #h'a0, r2h
07ac: 5268                      .word
07ae: e236                      and.b   #h'36, r2h
07b0: cc0c                      or.b    #h'0c, r4l
07b2: 7795                      bild    #1, r5h
07b4: bb0b                      subx.b  #h'0b, r3l
07b6: 4703                      beq     h'0007bb
07b8: 2202                      mov.b   @h'ffff02, r2h
07ba: 16b9                      and.b   r3l, r1l
07bc: 5505                      bsr     h'0007c3
07be: 262f                      mov.b   @h'ffff2f, r6h
07c0: c5ba                      or.b    #h'ba, r5h
07c2: 3bbe                      mov.b   r3l, @h'ffffbe
07c4: b2bd                      subx.b  #h'bd, r2h
07c6: 0b28                      .word
07c8: 2bb4                      mov.b   @h'ffffb4, r3l
07ca: 5a92 5cb3                 jmp     h'925cb3
07ce: 6a04 c2d7                 mov.b   @h'ffc2d7, r4h
07d2: ffa7                      mov.b   #h'a7, r7l
07d4: b5d0                      subx.b  #h'd0, r5h
07d6: cf31                      or.b    #h'31, r7l
07d8: 2cd9                      mov.b   @h'ffffd9, r4l
07da: 9e8b                      addx.b  #h'8b, r6l
07dc: 5bde                      jmp     @h'de
07de: ae1d                      cmp.b   #h'1d, r6l
07e0: 9b64                      addx.b  #h'64, r3l
07e2: c2b0                      or.b    #h'b0, r2h
07e4: ec63                      and.b   #h'63, r4l
07e6: f226                      mov.b   #h'26, r2h
07e8: 756a                      bxor    #6, r2l
07ea: a39c                      cmp.b   #h'9c, r3h
07ec: 026d                      .word
07ee: 930a                      addx.b  #h'0a, r3h
07f0: 9c09                      addx.b  #h'09, r4l
07f2: 06a9                      andc    #h'a9, ccr
07f4: eb0e                      and.b   #h'0e, r3l
07f6: 363f                      mov.b   r6h, @h'ffff3f
07f8: 7207                      bclr    #0, r7h
07fa: 6785                      bist    #0, r5h
07fc: 0500                      xorc    #h'00, ccr
07fe: 5713                      .word
0800: 95bf                      addx.b  #h'bf, r5h
0802: 4a82                      bpl     h'000786
0804: e2b8                      and.b   #h'b8, r2h
0806: 7a14 7bb1 2bae            add.l   #h'7bb12bae, er4
080c: 0cb6                      mov.b   r3l, r6h
080e: 1b38                      .word
0810: 92d2                      addx.b  #h'd2, r2h
0812: 8e9b                      add.b   #h'9b, r6l
0814: e5d5                      and.b   #h'd5, r5h
0816: be0d                      subx.b  #h'0d, r6l
0818: 7cdc                      .word
081a: efb7                      and.b   #h'b7, r7l
081c: 0bdb                      inc.w   #2, e3
081e: df21                      xor.b   #h'21, r7l
0820: 86d3                      add.b   #h'd3, r6h
0822: d2d4                      xor.b   #h'd4, r2h
0824: f1d4                      mov.b   #h'd4, r1h
0826: e242                      and.b   #h'42, r2h
0828: 68dd                      mov.b   r5l, @er5
082a: b3f8                      subx.b  #h'f8, r3h
082c: 1fda                      .word
082e: 836e                      add.b   #h'6e, r3h
0830: 81be                      add.b   #h'be, r1h
0832: 16cd                      and.b   r4l, r5l
0834: f6b9                      mov.b   #h'b9, r6h
0836: 265b                      mov.b   @h'ffff5b, r6h
0838: 6fb0 77e1                 mov.w   r0, @(h'77e1, er3)
083c: 18b7                      sub.b   r3l, r7h
083e: 4777                      beq     h'0008b7
0840: 8808                      add.b   #h'08, r0l
0842: 5ae6 ff0f                 jmp     h'e6ff0f
0846: 6a70                      .word
0848: 6606                      and.w   r0, r6
084a: 3bca                      mov.b   r3l, @h'ffffca
084c: 1101                      shlr.b  r1h
084e: 0b5c                      inc.w   #1, e4
0850: 8f65                      add.b   #h'65, r7l
0852: 9eff                      addx.b  #h'ff, r6l
0854: f862                      mov.b   #h'62, r0l
0856: ae69                      cmp.b   #h'69, r6l
0858: 616b                      bnot    r6h, r3l
085a: ffd3                      mov.b   #h'd3, r7l
085c: 166c                      and.b   r6h, r4l
085e: cf45                      or.b    #h'45, r7l
0860: a00a                      cmp.b   #h'0a, r0h
0862: e278                      and.b   #h'78, r2h
0864: d70d                      xor.b   #h'0d, r7h
0866: d2ee                      xor.b   #h'ee, r2h
0868: 4e04                      bgt     h'00086e
086a: 8354                      add.b   #h'54, r3h
086c: 3903                      mov.b   r1l, @h'ffff03
086e: b3c2                      subx.b  #h'c2, r3h
0870: a767                      cmp.b   #h'67, r7h
0872: 2661                      mov.b   @h'ffff61, r6h
0874: d060                      xor.b   #h'60, r0h
0876: 16f7                      and.b   r7l, r7h
0878: 4969                      bvs     h'0008e3
087a: 474d                      beq     h'0008c9
087c: 3e6e                      mov.b   r6l, @h'ffff6e
087e: 77db                      bild    #5, r3l
0880: aed1                      cmp.b   #h'd1, r6l
0882: 6a4a d9d6                 movfpe  @h'ffd9d6, r2l
0886: 5adc 40df                 jmp     h'dc40df
088a: 0b66                      .word
088c: 37d8                      mov.b   r7h, @h'ffffd8
088e: 3bf0                      mov.b   r3l, @h'fffff0
0890: a9bc                      cmp.b   #h'bc, r1l
0892: ae53                      cmp.b   #h'53, r6l
0894: debb                      xor.b   #h'bb, r6l
0896: 9ec5                      addx.b  #h'c5, r6l
0898: 47b2                      beq     h'00084c
089a: cf7f                      or.b    #h'7f, r7l
089c: 30b5                      mov.b   r0h, @h'ffffb5
089e: ffe9                      mov.b   #h'e9, r7l
08a0: bdbd                      subx.b  #h'bd, r5l
08a2: f21c                      mov.b   #h'1c, r2h
08a4: caba                      or.b    #h'ba, r2l
08a6: c28a                      or.b    #h'8a, r2h
08a8: 53b3                      divxu.w e3, er3
08aa: 9330                      addx.b  #h'30, r3h
08ac: 24b4                      mov.b   @h'ffffb4, r4h
08ae: a3a6                      cmp.b   #h'a6, r3h
08b0: bad0                      subx.b  #h'd0, r2l
08b2: 3605                      mov.b   r6h, @h'ffff05
08b4: cdd7                      or.b    #h'd7, r5l
08b6: 0693                      andc    #h'93, ccr
08b8: 54de                      .word
08ba: 5729                      .word
08bc: 23d9                      mov.b   @h'ffffd9, r3h
08be: 67bf                      bist    #3, r7l
08c0: b366                      subx.b  #h'66, r3h
08c2: 7a2e                      .word
08c4: c461                      or.b    #h'61, r4h
08c6: 4ab8                      bpl     h'000880
08c8: 5d68                      .word
08ca: 1b02                      subs.l  #1, er2
08cc: 2a6f                      mov.b   @h'ffff6f, r2l
08ce: 2b94                      mov.b   @h'ffff94, r3l
08d0: b40b                      subx.b  #h'0b, r4h
08d2: be37                      subx.b  #h'37, r6l
08d4: c30c                      or.b    #h'0c, r3h
08d6: 8ea1                      add.b   #h'a1, r6l
08d8: 5a05 df1b                 jmp     h'05df1b
08dc: 2d02                      mov.b   @h'ffff02, r5l
08de: ef8d                      and.b   #h'8d, r7l
08e0: 0000                      nop
08e2: 3a42                      mov.b   r2l, @h'ffff42
08e4: 0000                      nop
08e6: 3a46                      mov.b   r2l, @h'ffff46
08e8: 0000                      nop
08ea: 3a4a                      mov.b   r2l, @h'ffff4a
08ec: 0000                      nop
08ee: 3a52                      mov.b   r2l, @h'ffff52
08f0: 0000                      nop
08f2: 3a62                      mov.b   r2l, @h'ffff62
08f4: 0000                      nop
08f6: 3a6a                      mov.b   r2l, @h'ffff6a
08f8: 0000                      nop
08fa: 3a6e                      mov.b   r2l, @h'ffff6e
08fc: 0000                      nop
08fe: 3a94                      mov.b   r2l, @h'ffff94
0900: 0000                      nop
0902: 3aea                      mov.b   r2l, @h'ffffea
0904: 0000                      nop
0906: 3af6                      mov.b   r2l, @h'fffff6
0908: 0000                      nop
090a: 3b02                      mov.b   r3l, @h'ffff02
090c: 0000                      nop
090e: 3b0e                      mov.b   r3l, @h'ffff0e
0910: 0000                      nop
0912: 3b18                      mov.b   r3l, @h'ffff18
0914: 0000                      nop
0916: 3b22                      mov.b   r3l, @h'ffff22
0918: 0000                      nop
091a: 3b46                      mov.b   r3l, @h'ffff46
091c: 0000                      nop
091e: 3b66                      mov.b   r3l, @h'ffff66
0920: 0000                      nop
0922: 3b7a                      mov.b   r3l, @h'ffff7a
0924: 0000                      nop
0926: 3b80                      mov.b   r3l, @h'ffff80
0928: 0000                      nop
092a: 3b8a                      mov.b   r3l, @h'ffff8a
092c: 0000                      nop
092e: 3bae                      mov.b   r3l, @h'ffffae
0930: 0000                      nop
0932: c0c1                      or.b    #h'c1, r0h
0934: c181                      or.b    #h'81, r1h
0936: 0140                      .word
0938: c301                      or.b    #h'01, r3h
093a: 03c0                      .word
093c: 0280                      .word
093e: c241                      or.b    #h'41, r2h
0940: c601                      or.b    #h'01, r6h
0942: 06c0                      andc    #h'c0, ccr
0944: 0780                      ldc     #h'80, ccr
0946: c741                      or.b    #h'41, r7h
0948: 0500                      xorc    #h'00, ccr
094a: c5c1                      or.b    #h'c1, r5h
094c: c481                      or.b    #h'81, r4h
094e: 0440                      orc     #h'40, ccr
0950: cc01                      or.b    #h'01, r4l
0952: 0cc0                      mov.b   r4l, r0h
0954: 0d80                      mov.w   e0, r0
0956: cd41                      or.b    #h'41, r5l
0958: 0f00                      daa.b   r0h
095a: cfc1                      or.b    #h'c1, r7l
095c: ce81                      or.b    #h'81, r6l
095e: 0e40                      addx.b  r4h, r0h
0960: 0a00                      inc.b   #1, r0h
0962: cac1                      or.b    #h'c1, r2l
0964: cb81                      or.b    #h'81, r3l
0966: 0b40                      .word
0968: c901                      or.b    #h'01, r1l
096a: 09c0                      add.w   e4, r0
096c: 0880                      add.b   r0l, r0h
096e: c841                      or.b    #h'41, r0l
0970: d801                      xor.b   #h'01, r0l
0972: 18c0                      sub.b   r4l, r0h
0974: 1980                      sub.w   e0, r0
0976: d941                      xor.b   #h'41, r1l
0978: 1b00                      subs.l  #1, er0
097a: dbc1                      xor.b   #h'c1, r3l
097c: da81                      xor.b   #h'81, r2l
097e: 1a40                      .word
0980: 1e00                      subx.b  r0h, r0h
0982: dec1                      xor.b   #h'c1, r6l
0984: df81                      xor.b   #h'81, r7l
0986: 1f40                      .word
0988: dd01                      xor.b   #h'01, r5l
098a: 1dc0                      cmp.w   e4, r0
098c: 1c80                      cmp.b   r0l, r0h
098e: dc41                      xor.b   #h'41, r4l
0990: 1400                      or.b    r0h, r0h
0992: d4c1                      xor.b   #h'c1, r4h
0994: d581                      xor.b   #h'81, r5h
0996: 1540                      xor.b   r4h, r0h
0998: d701                      xor.b   #h'01, r7h
099a: 17c0                      .word
099c: 1680                      and.b   r0l, r0h
099e: d641                      xor.b   #h'41, r6h
09a0: d201                      xor.b   #h'01, r2h
09a2: 12c0                      rotl.b  #2, r0h
09a4: 1380                      rotr.b  r0h
09a6: d341                      xor.b   #h'41, r3h
09a8: 1100                      shlr.b  r0h
09aa: d1c1                      xor.b   #h'c1, r1h
09ac: d081                      xor.b   #h'81, r0h
09ae: 1040                      shll.b  #2, r0h
09b0: f001                      mov.b   #h'01, r0h
09b2: 30c0                      mov.b   r0h, @h'ffffc0
09b4: 3180                      mov.b   r1h, @h'ffff80
09b6: f141                      mov.b   #h'41, r1h
09b8: 3300                      mov.b   r3h, @h'ffff00
09ba: f3c1                      mov.b   #h'c1, r3h
09bc: f281                      mov.b   #h'81, r2h
09be: 3240                      mov.b   r2h, @h'ffff40
09c0: 3600                      mov.b   r6h, @h'ffff00
09c2: f6c1                      mov.b   #h'c1, r6h
09c4: f781                      mov.b   #h'81, r7h
09c6: 3740                      mov.b   r7h, @h'ffff40
09c8: f501                      mov.b   #h'01, r5h
09ca: 35c0                      mov.b   r5h, @h'ffffc0
09cc: 3480                      mov.b   r4h, @h'ffff80
09ce: f441                      mov.b   #h'41, r4h
09d0: 3c00                      mov.b   r4l, @h'ffff00
09d2: fcc1                      mov.b   #h'c1, r4l
09d4: fd81                      mov.b   #h'81, r5l
09d6: 3d40                      mov.b   r5l, @h'ffff40
09d8: ff01                      mov.b   #h'01, r7l
09da: 3fc0                      mov.b   r7l, @h'ffffc0
09dc: 3e80                      mov.b   r6l, @h'ffff80
09de: fe41                      mov.b   #h'41, r6l
09e0: fa01                      mov.b   #h'01, r2l
09e2: 3ac0                      mov.b   r2l, @h'ffffc0
09e4: 3b80                      mov.b   r3l, @h'ffff80
09e6: fb41                      mov.b   #h'41, r3l
09e8: 3900                      mov.b   r1l, @h'ffff00
09ea: f9c1                      mov.b   #h'c1, r1l
09ec: f881                      mov.b   #h'81, r0l
09ee: 3840                      mov.b   r0l, @h'ffff40
09f0: 2800                      mov.b   @h'ffff00, r0l
09f2: e8c1                      and.b   #h'c1, r0l
09f4: e981                      and.b   #h'81, r1l
09f6: 2940                      mov.b   @h'ffff40, r1l
09f8: eb01                      and.b   #h'01, r3l
09fa: 2bc0                      mov.b   @h'ffffc0, r3l
09fc: 2a80                      mov.b   @h'ffff80, r2l
09fe: ea41                      and.b   #h'41, r2l
0a00: ee01                      and.b   #h'01, r6l
0a02: 2ec0                      mov.b   @h'ffffc0, r6l
0a04: 2f80                      mov.b   @h'ffff80, r7l
0a06: ef41                      and.b   #h'41, r7l
0a08: 2d00                      mov.b   @h'ffff00, r5l
0a0a: edc1                      and.b   #h'c1, r5l
0a0c: ec81                      and.b   #h'81, r4l
0a0e: 2c40                      mov.b   @h'ffff40, r4l
0a10: e401                      and.b   #h'01, r4h
0a12: 24c0                      mov.b   @h'ffffc0, r4h
0a14: 2580                      mov.b   @h'ffff80, r5h
0a16: e541                      and.b   #h'41, r5h
0a18: 2700                      mov.b   @h'ffff00, r7h
0a1a: e7c1                      and.b   #h'c1, r7h
0a1c: e681                      and.b   #h'81, r6h
0a1e: 2640                      mov.b   @h'ffff40, r6h
0a20: 2200                      mov.b   @h'ffff00, r2h
0a22: e2c1                      and.b   #h'c1, r2h
0a24: e381                      and.b   #h'81, r3h
0a26: 2340                      mov.b   @h'ffff40, r3h
0a28: e101                      and.b   #h'01, r1h
0a2a: 21c0                      mov.b   @h'ffffc0, r1h
0a2c: 2080                      mov.b   @h'ffff80, r0h
0a2e: e041                      and.b   #h'41, r0h
0a30: a001                      cmp.b   #h'01, r0h
0a32: 60c0                      bset    r4l, r0h
0a34: 6180                      bnot    r0l, r0h
0a36: a141                      cmp.b   #h'41, r1h
0a38: 6300                      btst    r0h, r0h
0a3a: a3c1                      cmp.b   #h'c1, r3h
0a3c: a281                      cmp.b   #h'81, r2h
0a3e: 6240                      bclr    r4h, r0h
0a40: 6600                      and.w   r0, r0
0a42: a6c1                      cmp.b   #h'c1, r6h
0a44: a781                      cmp.b   #h'81, r7h
0a46: 6740                      bst     #4, r0h
0a48: a501                      cmp.b   #h'01, r5h
0a4a: 65c0                      xor.w   e4, r0
0a4c: 6480                      or.w    e0, r0
0a4e: a441                      cmp.b   #h'41, r4h
0a50: 6c00                      mov.b   @er0+, r0h
0a52: acc1                      cmp.b   #h'c1, r4l
0a54: ad81                      cmp.b   #h'81, r5l
0a56: 6d40                      mov.w   @er4+, r0
0a58: af01                      cmp.b   #h'01, r7l
0a5a: 6fc0 6e80                 mov.w   r0, @(h'6e80, er4)
0a5e: ae41                      cmp.b   #h'41, r6l
0a60: aa01                      cmp.b   #h'01, r2l
0a62: 6ac0 6b80                 movtpe  r0h, @h'006b80
0a66: ab41                      cmp.b   #h'41, r3l
0a68: 6900                      mov.w   @er0, r0
0a6a: a9c1                      cmp.b   #h'c1, r1l
0a6c: a881                      cmp.b   #h'81, r0l
0a6e: 6840                      mov.b   @er4, r0h
0a70: 7800                      .word
0a72: b8c1                      subx.b  #h'c1, r0l
0a74: b981                      subx.b  #h'81, r1l
0a76: 7940 bb01                 or.w    #h'bb01, r0
0a7a: 7bc0                      .word
0a7c: 7a80                      .word
0a7e: ba41                      subx.b  #h'41, r2l
0a80: be01                      subx.b  #h'01, r6l
0a82: 7ec0                      .word
0a84: 7f80                      .word
0a86: bf41                      subx.b  #h'41, r7l
0a88: 7d00                      .word
0a8a: bdc1                      subx.b  #h'c1, r5l
0a8c: bc81                      subx.b  #h'81, r4l
0a8e: 7c40                      .word
0a90: b401                      subx.b  #h'01, r4h
0a92: 74c0                      bior    #4, r0h
0a94: 7580                      bixor   #0, r0h
0a96: b541                      subx.b  #h'41, r5h
0a98: 7700                      bld     #0, r0h
0a9a: b7c1                      subx.b  #h'c1, r7h
0a9c: b681                      subx.b  #h'81, r6h
0a9e: 7640                      band    #4, r0h
0aa0: 7200                      bclr    #0, r0h
0aa2: b2c1                      subx.b  #h'c1, r2h
0aa4: b381                      subx.b  #h'81, r3h
0aa6: 7340                      btst    #4, r0h
0aa8: b101                      subx.b  #h'01, r1h
0aaa: 71c0                      .word
0aac: 7080                      .word
0aae: b041                      subx.b  #h'41, r0h
0ab0: 5000                      mulxu.b r0h, r0
0ab2: 90c1                      addx.b  #h'c1, r0h
0ab4: 9181                      addx.b  #h'81, r1h
0ab6: 5140                      divxu.b r4h, r0
0ab8: 9301                      addx.b  #h'01, r3h
0aba: 53c0                      divxu.w e4, er0
0abc: 5280                      mulxu.w e0, er0
0abe: 9241                      addx.b  #h'41, r2h
0ac0: 9601                      addx.b  #h'01, r6h
0ac2: 56c0                      .word
0ac4: 5780                      .word
0ac6: 9741                      addx.b  #h'41, r7h
0ac8: 5500                      bsr     h'000aca
0aca: 95c1                      addx.b  #h'c1, r5h
0acc: 9481                      addx.b  #h'81, r4h
0ace: 5440                      .word
0ad0: 9c01                      addx.b  #h'01, r4l
0ad2: 5cc0                      .word
0ad4: 5d80                      .word
0ad6: 9d41                      addx.b  #h'41, r5l
0ad8: 5f00                      jsr     @h'00
0ada: 9fc1                      addx.b  #h'c1, r7l
0adc: 9e81                      addx.b  #h'81, r6l
0ade: 5e40 5a00                 jsr     h'405a00
0ae2: 9ac1                      addx.b  #h'c1, r2l
0ae4: 9b81                      addx.b  #h'81, r3l
0ae6: 5b40                      jmp     @h'40
0ae8: 9901                      addx.b  #h'01, r1l
0aea: 59c0                      .word
0aec: 5880 9841                 bvc     h'ffa331
0af0: 8801                      add.b   #h'01, r0l
0af2: 48c0                      bvc     h'000ab4
0af4: 4980                      bvs     h'000a76
0af6: 8941                      add.b   #h'41, r1l
0af8: 4b00                      bmi     h'000afa
0afa: 8bc1                      add.b   #h'c1, r3l
0afc: 8a81                      add.b   #h'81, r2l
0afe: 4a40                      bpl     h'000b40
0b00: 4e00                      bgt     h'000b02
0b02: 8ec1                      add.b   #h'c1, r6l
0b04: 8f81                      add.b   #h'81, r7l
0b06: 4f40                      ble     h'000b48
0b08: 8d01                      add.b   #h'01, r5l
0b0a: 4dc0                      blt     h'000acc
0b0c: 4c80                      bge     h'000a8e
0b0e: 8c41                      add.b   #h'41, r4l
0b10: 4400                      bcc     h'000b12
0b12: 84c1                      add.b   #h'c1, r4h
0b14: 8581                      add.b   #h'81, r5h
0b16: 4540                      bcs     h'000b58
0b18: 8701                      add.b   #h'01, r7h
0b1a: 47c0                      beq     h'000adc
0b1c: 4680                      bne     h'000a9e
0b1e: 8641                      add.b   #h'41, r6h
0b20: 8201                      add.b   #h'01, r2h
0b22: 42c0                      bhi     h'000ae4
0b24: 4380                      bls     h'000aa6
0b26: 8341                      add.b   #h'41, r3h
0b28: 4100                      bf      h'000b2a
0b2a: 81c1                      add.b   #h'c1, r1h
0b2c: 8081                      add.b   #h'81, r0h
0b2e: 4040                      bt      h'000b70
0b30: 312e                      mov.b   r1h, @h'ffff2e
0b32: 352e                      mov.b   r5h, @h'ffff2e
0b34: 3000                      mov.b   r0h, @h'ffff00
0b36: 0000                      nop
0b38: 0000                      nop
0b3a: 0b30                      .word
0b3c: 0100 6b02 ec00            mov.l   @h'ffec00, er2
0b42: 0b02                      adds.l  #1, er2
0b44: 0100 6b82 ec00            mov.l   er2, @h'ffec00
0b4a: 5470                      rts
0b4c: 0130 6df0                 stm.l   er0-er3, @-sp
0b50: 0120 6df4                 stm.l   er4-er6, @-sp
0b54: 0100 6b02 edf2            mov.l   @h'ffedf2, er2
0b5a: 7a22 1234 eacd            cmp.l   #h'1234eacd, er2
0b60: 4618                      bne     h'000b7a
0b62: 0100 6b02 edf6            mov.l   @h'ffedf6, er2
0b68: 7a22 f37a d604            cmp.l   #h'f37ad604, er2
0b6e: 460a                      bne     h'000b7a
0b70: 0100 6b02 ec04            mov.l   @h'ffec04, er2
0b76: 5d20                      jsr     er2
0b78: 400e                      bt      h'000b88
0b7a: 0100 6b02 edfa            mov.l   @h'ffedfa, er2
0b80: 0b02                      adds.l  #1, er2
0b82: 0100 6b82 edfa            mov.l   er2, @h'ffedfa
0b88: 0120 6d76                 ldm.l   @sp+, er4-er6
0b8c: 0130 6d73                 ldm.l   @sp+, er0-er3
0b90: 5670                      rte
0b92: 0c88                      mov.b   r0l, r0l
0b94: 471a                      beq     h'000bb0
0b96: 7a02 1234 eacd            mov.l   #h'1234eacd, er2
0b9c: 0100 6b82 edf2            mov.l   er2, @h'ffedf2
0ba2: 7a02 f37a d604            mov.l   #h'f37ad604, er2
0ba8: 0100 6b82 edf6            mov.l   er2, @h'ffedf6
0bae: 400e                      bt      h'000bbe
0bb0: 1aa2                      sub.l   er2, er2
0bb2: 0100 6b82 edf6            mov.l   er2, @h'ffedf6
0bb8: 0100 6b82 edf2            mov.l   er2, @h'ffedf2
0bbe: 5470                      rts
0bc0: 0130 6df0                 stm.l   er0-er3, @-sp
0bc4: 0120 6df4                 stm.l   er4-er6, @-sp
0bc8: 0100 6b02 ec08            mov.l   @h'ffec08, er2
0bce: 5d20                      jsr     er2
0bd0: 0120 6d76                 ldm.l   @sp+, er4-er6
0bd4: 0130 6d73                 ldm.l   @sp+, er0-er3
0bd8: 5670                      rte
0bda: 0130 6df0                 stm.l   er0-er3, @-sp
0bde: 0120 6df4                 stm.l   er4-er6, @-sp
0be2: 0100 6b02 ec0c            mov.l   @h'ffec0c, er2
0be8: 5d20                      jsr     er2
0bea: 0120 6d76                 ldm.l   @sp+, er4-er6
0bee: 0130 6d73                 ldm.l   @sp+, er0-er3
0bf2: 5670                      rte
0bf4: 0130 6df0                 stm.l   er0-er3, @-sp
0bf8: 0120 6df4                 stm.l   er4-er6, @-sp
0bfc: 0100 6b02 ec10            mov.l   @h'ffec10, er2
0c02: 5d20                      jsr     er2
0c04: 0120 6d76                 ldm.l   @sp+, er4-er6
0c08: 0130 6d73                 ldm.l   @sp+, er0-er3
0c0c: 5670                      rte
0c0e: 0130 6df0                 stm.l   er0-er3, @-sp
0c12: 0120 6df4                 stm.l   er4-er6, @-sp
0c16: 0100 6b02 ec14            mov.l   @h'ffec14, er2
0c1c: 5d20                      jsr     er2
0c1e: 0120 6d76                 ldm.l   @sp+, er4-er6
0c22: 0130 6d73                 ldm.l   @sp+, er0-er3
0c26: 5670                      rte
0c28: 0130 6df0                 stm.l   er0-er3, @-sp
0c2c: 0120 6df4                 stm.l   er4-er6, @-sp
0c30: 0100 6b02 ec18            mov.l   @h'ffec18, er2
0c36: 5d20                      jsr     er2
0c38: 0120 6d76                 ldm.l   @sp+, er4-er6
0c3c: 0130 6d73                 ldm.l   @sp+, er0-er3
0c40: 5670                      rte
0c42: 0130 6df0                 stm.l   er0-er3, @-sp
0c46: 0120 6df4                 stm.l   er4-er6, @-sp
0c4a: 0100 6b02 ec1c            mov.l   @h'ffec1c, er2
0c50: 5d20                      jsr     er2
0c52: 0120 6d76                 ldm.l   @sp+, er4-er6
0c56: 0130 6d73                 ldm.l   @sp+, er0-er3
0c5a: 5670                      rte
0c5c: 0130 6df0                 stm.l   er0-er3, @-sp
0c60: 0120 6df4                 stm.l   er4-er6, @-sp
0c64: 0100 6b02 ec20            mov.l   @h'ffec20, er2
0c6a: 5d20                      jsr     er2
0c6c: 0120 6d76                 ldm.l   @sp+, er4-er6
0c70: 0130 6d73                 ldm.l   @sp+, er0-er3
0c74: 5670                      rte
0c76: 0130 6df0                 stm.l   er0-er3, @-sp
0c7a: 0120 6df4                 stm.l   er4-er6, @-sp
0c7e: 0100 6b02 ec24            mov.l   @h'ffec24, er2
0c84: 5d20                      jsr     er2
0c86: 0120 6d76                 ldm.l   @sp+, er4-er6
0c8a: 0130 6d73                 ldm.l   @sp+, er0-er3
0c8e: 5670                      rte
0c90: 0130 6df0                 stm.l   er0-er3, @-sp
0c94: 0120 6df4                 stm.l   er4-er6, @-sp
0c98: 0100 6b02 ec28            mov.l   @h'ffec28, er2
0c9e: 5d20                      jsr     er2
0ca0: 0120 6d76                 ldm.l   @sp+, er4-er6
0ca4: 0130 6d73                 ldm.l   @sp+, er0-er3
0ca8: 5670                      rte
0caa: 0130 6df0                 stm.l   er0-er3, @-sp
0cae: 0120 6df4                 stm.l   er4-er6, @-sp
0cb2: 0100 6b02 ec2c            mov.l   @h'ffec2c, er2
0cb8: 5d20                      jsr     er2
0cba: 0120 6d76                 ldm.l   @sp+, er4-er6
0cbe: 0130 6d73                 ldm.l   @sp+, er0-er3
0cc2: 5670                      rte
0cc4: 0130 6df0                 stm.l   er0-er3, @-sp
0cc8: 0120 6df4                 stm.l   er4-er6, @-sp
0ccc: 0100 6b02 ec30            mov.l   @h'ffec30, er2
0cd2: 5d20                      jsr     er2
0cd4: 0120 6d76                 ldm.l   @sp+, er4-er6
0cd8: 0130 6d73                 ldm.l   @sp+, er0-er3
0cdc: 5670                      rte
0cde: 0130 6df0                 stm.l   er0-er3, @-sp
0ce2: 0120 6df4                 stm.l   er4-er6, @-sp
0ce6: 0100 6b02 ec34            mov.l   @h'ffec34, er2
0cec: 5d20                      jsr     er2
0cee: 0120 6d76                 ldm.l   @sp+, er4-er6
0cf2: 0130 6d73                 ldm.l   @sp+, er0-er3
0cf6: 5670                      rte
0cf8: 0130 6df0                 stm.l   er0-er3, @-sp
0cfc: 0120 6df4                 stm.l   er4-er6, @-sp
0d00: 0100 6b02 ec38            mov.l   @h'ffec38, er2
0d06: 5d20                      jsr     er2
0d08: 0120 6d76                 ldm.l   @sp+, er4-er6
0d0c: 0130 6d73                 ldm.l   @sp+, er0-er3
0d10: 5670                      rte
0d12: 0130 6df0                 stm.l   er0-er3, @-sp
0d16: 0120 6df4                 stm.l   er4-er6, @-sp
0d1a: 0100 6b02 ec3c            mov.l   @h'ffec3c, er2
0d20: 5d20                      jsr     er2
0d22: 0120 6d76                 ldm.l   @sp+, er4-er6
0d26: 0130 6d73                 ldm.l   @sp+, er0-er3
0d2a: 5670                      rte
0d2c: 0130 6df0                 stm.l   er0-er3, @-sp
0d30: 0120 6df4                 stm.l   er4-er6, @-sp
0d34: 0100 6b02 ec40            mov.l   @h'ffec40, er2
0d3a: 5d20                      jsr     er2
0d3c: 0120 6d76                 ldm.l   @sp+, er4-er6
0d40: 0130 6d73                 ldm.l   @sp+, er0-er3
0d44: 5670                      rte
0d46: 0130 6df0                 stm.l   er0-er3, @-sp
0d4a: 0120 6df4                 stm.l   er4-er6, @-sp
0d4e: 0100 6b02 ec44            mov.l   @h'ffec44, er2
0d54: 5d20                      jsr     er2
0d56: 0120 6d76                 ldm.l   @sp+, er4-er6
0d5a: 0130 6d73                 ldm.l   @sp+, er0-er3
0d5e: 5670                      rte
0d60: 0130 6df0                 stm.l   er0-er3, @-sp
0d64: 0120 6df4                 stm.l   er4-er6, @-sp
0d68: 0100 6b02 ec48            mov.l   @h'ffec48, er2
0d6e: 5d20                      jsr     er2
0d70: 0120 6d76                 ldm.l   @sp+, er4-er6
0d74: 0130 6d73                 ldm.l   @sp+, er0-er3
0d78: 5670                      rte
0d7a: 0130 6df0                 stm.l   er0-er3, @-sp
0d7e: 0120 6df4                 stm.l   er4-er6, @-sp
0d82: 0100 6b02 ec4c            mov.l   @h'ffec4c, er2
0d88: 5d20                      jsr     er2
0d8a: 0120 6d76                 ldm.l   @sp+, er4-er6
0d8e: 0130 6d73                 ldm.l   @sp+, er0-er3
0d92: 5670                      rte
0d94: 0130 6df0                 stm.l   er0-er3, @-sp
0d98: 0120 6df4                 stm.l   er4-er6, @-sp
0d9c: 0100 6b02 ec50            mov.l   @h'ffec50, er2
0da2: 5d20                      jsr     er2
0da4: 0120 6d76                 ldm.l   @sp+, er4-er6
0da8: 0130 6d73                 ldm.l   @sp+, er0-er3
0dac: 5670                      rte
0dae: 0130 6df0                 stm.l   er0-er3, @-sp
0db2: 0120 6df4                 stm.l   er4-er6, @-sp
0db6: 0100 6b02 ec54            mov.l   @h'ffec54, er2
0dbc: 5d20                      jsr     er2
0dbe: 0120 6d76                 ldm.l   @sp+, er4-er6
0dc2: 0130 6d73                 ldm.l   @sp+, er0-er3
0dc6: 5670                      rte
0dc8: 0130 6df0                 stm.l   er0-er3, @-sp
0dcc: 0120 6df4                 stm.l   er4-er6, @-sp
0dd0: 0100 6b02 ec58            mov.l   @h'ffec58, er2
0dd6: 5d20                      jsr     er2
0dd8: 0120 6d76                 ldm.l   @sp+, er4-er6
0ddc: 0130 6d73                 ldm.l   @sp+, er0-er3
0de0: 5670                      rte
0de2: 0130 6df0                 stm.l   er0-er3, @-sp
0de6: 0120 6df4                 stm.l   er4-er6, @-sp
0dea: 0100 6b02 ec5c            mov.l   @h'ffec5c, er2
0df0: 5d20                      jsr     er2
0df2: 0120 6d76                 ldm.l   @sp+, er4-er6
0df6: 0130 6d73                 ldm.l   @sp+, er0-er3
0dfa: 5670                      rte
0dfc: 0130 6df0                 stm.l   er0-er3, @-sp
0e00: 0120 6df4                 stm.l   er4-er6, @-sp
0e04: 0100 6b02 ec60            mov.l   @h'ffec60, er2
0e0a: 5d20                      jsr     er2
0e0c: 0120 6d76                 ldm.l   @sp+, er4-er6
0e10: 0130 6d73                 ldm.l   @sp+, er0-er3
0e14: 5670                      rte
0e16: 0130 6df0                 stm.l   er0-er3, @-sp
0e1a: 0120 6df4                 stm.l   er4-er6, @-sp
0e1e: 0100 6b02 ec64            mov.l   @h'ffec64, er2
0e24: 5d20                      jsr     er2
0e26: 0120 6d76                 ldm.l   @sp+, er4-er6
0e2a: 0130 6d73                 ldm.l   @sp+, er0-er3
0e2e: 5670                      rte
0e30: 0130 6df0                 stm.l   er0-er3, @-sp
0e34: 0120 6df4                 stm.l   er4-er6, @-sp
0e38: 0100 6b02 ec68            mov.l   @h'ffec68, er2
0e3e: 5d20                      jsr     er2
0e40: 0120 6d76                 ldm.l   @sp+, er4-er6
0e44: 0130 6d73                 ldm.l   @sp+, er0-er3
0e48: 5670                      rte
0e4a: 0130 6df0                 stm.l   er0-er3, @-sp
0e4e: 0120 6df4                 stm.l   er4-er6, @-sp
0e52: 0100 6b02 ec6c            mov.l   @h'ffec6c, er2
0e58: 5d20                      jsr     er2
0e5a: 0120 6d76                 ldm.l   @sp+, er4-er6
0e5e: 0130 6d73                 ldm.l   @sp+, er0-er3
0e62: 5670                      rte
0e64: 0130 6df0                 stm.l   er0-er3, @-sp
0e68: 0120 6df4                 stm.l   er4-er6, @-sp
0e6c: 0100 6b02 ec70            mov.l   @h'ffec70, er2
0e72: 5d20                      jsr     er2
0e74: 0120 6d76                 ldm.l   @sp+, er4-er6
0e78: 0130 6d73                 ldm.l   @sp+, er0-er3
0e7c: 5670                      rte
0e7e: 0130 6df0                 stm.l   er0-er3, @-sp
0e82: 0120 6df4                 stm.l   er4-er6, @-sp
0e86: 0100 6b02 ec74            mov.l   @h'ffec74, er2
0e8c: 5d20                      jsr     er2
0e8e: 0120 6d76                 ldm.l   @sp+, er4-er6
0e92: 0130 6d73                 ldm.l   @sp+, er0-er3
0e96: 5670                      rte
0e98: 0130 6df0                 stm.l   er0-er3, @-sp
0e9c: 0120 6df4                 stm.l   er4-er6, @-sp
0ea0: 0100 6b02 ec78            mov.l   @h'ffec78, er2
0ea6: 5d20                      jsr     er2
0ea8: 0120 6d76                 ldm.l   @sp+, er4-er6
0eac: 0130 6d73                 ldm.l   @sp+, er0-er3
0eb0: 5670                      rte
0eb2: 0130 6df0                 stm.l   er0-er3, @-sp
0eb6: 0120 6df4                 stm.l   er4-er6, @-sp
0eba: 0100 6b02 ec7c            mov.l   @h'ffec7c, er2
0ec0: 5d20                      jsr     er2
0ec2: 0120 6d76                 ldm.l   @sp+, er4-er6
0ec6: 0130 6d73                 ldm.l   @sp+, er0-er3
0eca: 5670                      rte
0ecc: 0130 6df0                 stm.l   er0-er3, @-sp
0ed0: 0120 6df4                 stm.l   er4-er6, @-sp
0ed4: 0100 6b02 ec80            mov.l   @h'ffec80, er2
0eda: 5d20                      jsr     er2
0edc: 0120 6d76                 ldm.l   @sp+, er4-er6
0ee0: 0130 6d73                 ldm.l   @sp+, er0-er3
0ee4: 5670                      rte
0ee6: 0130 6df0                 stm.l   er0-er3, @-sp
0eea: 0120 6df4                 stm.l   er4-er6, @-sp
0eee: 0100 6b02 ec84            mov.l   @h'ffec84, er2
0ef4: 5d20                      jsr     er2
0ef6: 0120 6d76                 ldm.l   @sp+, er4-er6
0efa: 0130 6d73                 ldm.l   @sp+, er0-er3
0efe: 5670                      rte
0f00: 0130 6df0                 stm.l   er0-er3, @-sp
0f04: 0120 6df4                 stm.l   er4-er6, @-sp
0f08: 0100 6b02 ec88            mov.l   @h'ffec88, er2
0f0e: 5d20                      jsr     er2
0f10: 0120 6d76                 ldm.l   @sp+, er4-er6
0f14: 0130 6d73                 ldm.l   @sp+, er0-er3
0f18: 5670                      rte
0f1a: 0130 6df0                 stm.l   er0-er3, @-sp
0f1e: 0120 6df4                 stm.l   er4-er6, @-sp
0f22: 0100 6b02 ec8c            mov.l   @h'ffec8c, er2
0f28: 5d20                      jsr     er2
0f2a: 0120 6d76                 ldm.l   @sp+, er4-er6
0f2e: 0130 6d73                 ldm.l   @sp+, er0-er3
0f32: 5670                      rte
0f34: 0130 6df0                 stm.l   er0-er3, @-sp
0f38: 0120 6df4                 stm.l   er4-er6, @-sp
0f3c: 0100 6b02 ec90            mov.l   @h'ffec90, er2
0f42: 5d20                      jsr     er2
0f44: 0120 6d76                 ldm.l   @sp+, er4-er6
0f48: 0130 6d73                 ldm.l   @sp+, er0-er3
0f4c: 5670                      rte
0f4e: 0130 6df0                 stm.l   er0-er3, @-sp
0f52: 0120 6df4                 stm.l   er4-er6, @-sp
0f56: 0100 6b02 ec94            mov.l   @h'ffec94, er2
0f5c: 5d20                      jsr     er2
0f5e: 0120 6d76                 ldm.l   @sp+, er4-er6
0f62: 0130 6d73                 ldm.l   @sp+, er0-er3
0f66: 5670                      rte
0f68: 0130 6df0                 stm.l   er0-er3, @-sp
0f6c: 0120 6df4                 stm.l   er4-er6, @-sp
0f70: 0100 6b02 ec98            mov.l   @h'ffec98, er2
0f76: 5d20                      jsr     er2
0f78: 0120 6d76                 ldm.l   @sp+, er4-er6
0f7c: 0130 6d73                 ldm.l   @sp+, er0-er3
0f80: 5670                      rte
0f82: 0130 6df0                 stm.l   er0-er3, @-sp
0f86: 0120 6df4                 stm.l   er4-er6, @-sp
0f8a: 0100 6b02 ec9c            mov.l   @h'ffec9c, er2
0f90: 5d20                      jsr     er2
0f92: 0120 6d76                 ldm.l   @sp+, er4-er6
0f96: 0130 6d73                 ldm.l   @sp+, er0-er3
0f9a: 5670                      rte
0f9c: 0130 6df0                 stm.l   er0-er3, @-sp
0fa0: 0120 6df4                 stm.l   er4-er6, @-sp
0fa4: 0100 6b02 eca0            mov.l   @h'ffeca0, er2
0faa: 5d20                      jsr     er2
0fac: 0120 6d76                 ldm.l   @sp+, er4-er6
0fb0: 0130 6d73                 ldm.l   @sp+, er0-er3
0fb4: 5670                      rte
0fb6: 0130 6df0                 stm.l   er0-er3, @-sp
0fba: 0120 6df4                 stm.l   er4-er6, @-sp
0fbe: 0100 6b02 eca4            mov.l   @h'ffeca4, er2
0fc4: 5d20                      jsr     er2
0fc6: 0120 6d76                 ldm.l   @sp+, er4-er6
0fca: 0130 6d73                 ldm.l   @sp+, er0-er3
0fce: 5670                      rte
0fd0: 0130 6df0                 stm.l   er0-er3, @-sp
0fd4: 0120 6df4                 stm.l   er4-er6, @-sp
0fd8: 0100 6b02 eca8            mov.l   @h'ffeca8, er2
0fde: 5d20                      jsr     er2
0fe0: 0120 6d76                 ldm.l   @sp+, er4-er6
0fe4: 0130 6d73                 ldm.l   @sp+, er0-er3
0fe8: 5670                      rte
0fea: 0130 6df0                 stm.l   er0-er3, @-sp
0fee: 0120 6df4                 stm.l   er4-er6, @-sp
0ff2: 0100 6b02 ecac            mov.l   @h'ffecac, er2
0ff8: 5d20                      jsr     er2
0ffa: 0120 6d76                 ldm.l   @sp+, er4-er6
0ffe: 0130 6d73                 ldm.l   @sp+, er0-er3
1002: 5670                      rte
1004: 0130 6df0                 stm.l   er0-er3, @-sp
1008: 0120 6df4                 stm.l   er4-er6, @-sp
100c: 0100 6b02 ecb0            mov.l   @h'ffecb0, er2
1012: 5d20                      jsr     er2
1014: 0120 6d76                 ldm.l   @sp+, er4-er6
1018: 0130 6d73                 ldm.l   @sp+, er0-er3
101c: 5670                      rte
101e: 0130 6df0                 stm.l   er0-er3, @-sp
1022: 0120 6df4                 stm.l   er4-er6, @-sp
1026: 0100 6b02 ecb4            mov.l   @h'ffecb4, er2
102c: 5d20                      jsr     er2
102e: 0120 6d76                 ldm.l   @sp+, er4-er6
1032: 0130 6d73                 ldm.l   @sp+, er0-er3
1036: 5670                      rte
1038: 0130 6df0                 stm.l   er0-er3, @-sp
103c: 0120 6df4                 stm.l   er4-er6, @-sp
1040: 0100 6b02 ecb8            mov.l   @h'ffecb8, er2
1046: 5d20                      jsr     er2
1048: 0120 6d76                 ldm.l   @sp+, er4-er6
104c: 0130 6d73                 ldm.l   @sp+, er0-er3
1050: 5670                      rte
1052: 0130 6df0                 stm.l   er0-er3, @-sp
1056: 0120 6df4                 stm.l   er4-er6, @-sp
105a: 0100 6b02 ecbc            mov.l   @h'ffecbc, er2
1060: 5d20                      jsr     er2
1062: 0120 6d76                 ldm.l   @sp+, er4-er6
1066: 0130 6d73                 ldm.l   @sp+, er0-er3
106a: 5670                      rte
106c: 0130 6df0                 stm.l   er0-er3, @-sp
1070: 0120 6df4                 stm.l   er4-er6, @-sp
1074: 0100 6b02 ecc0            mov.l   @h'ffecc0, er2
107a: 5d20                      jsr     er2
107c: 0120 6d76                 ldm.l   @sp+, er4-er6
1080: 0130 6d73                 ldm.l   @sp+, er0-er3
1084: 5670                      rte
1086: 0130 6df0                 stm.l   er0-er3, @-sp
108a: 0120 6df4                 stm.l   er4-er6, @-sp
108e: 0100 6b02 ecc4            mov.l   @h'ffecc4, er2
1094: 5d20                      jsr     er2
1096: 0120 6d76                 ldm.l   @sp+, er4-er6
109a: 0130 6d73                 ldm.l   @sp+, er0-er3
109e: 5670                      rte
10a0: 0130 6df0                 stm.l   er0-er3, @-sp
10a4: 0120 6df4                 stm.l   er4-er6, @-sp
10a8: 0100 6b02 ecc8            mov.l   @h'ffecc8, er2
10ae: 5d20                      jsr     er2
10b0: 0120 6d76                 ldm.l   @sp+, er4-er6
10b4: 0130 6d73                 ldm.l   @sp+, er0-er3
10b8: 5670                      rte
10ba: 0130 6df0                 stm.l   er0-er3, @-sp
10be: 0120 6df4                 stm.l   er4-er6, @-sp
10c2: 0100 6b02 eccc            mov.l   @h'ffeccc, er2
10c8: 5d20                      jsr     er2
10ca: 0120 6d76                 ldm.l   @sp+, er4-er6
10ce: 0130 6d73                 ldm.l   @sp+, er0-er3
10d2: 5670                      rte
10d4: 0130 6df0                 stm.l   er0-er3, @-sp
10d8: 0120 6df4                 stm.l   er4-er6, @-sp
10dc: 0100 6b02 ecd0            mov.l   @h'ffecd0, er2
10e2: 5d20                      jsr     er2
10e4: 0120 6d76                 ldm.l   @sp+, er4-er6
10e8: 0130 6d73                 ldm.l   @sp+, er0-er3
10ec: 5670                      rte
10ee: 0130 6df0                 stm.l   er0-er3, @-sp
10f2: 0120 6df4                 stm.l   er4-er6, @-sp
10f6: 0100 6b02 ecd4            mov.l   @h'ffecd4, er2
10fc: 5d20                      jsr     er2
10fe: 0120 6d76                 ldm.l   @sp+, er4-er6
1102: 0130 6d73                 ldm.l   @sp+, er0-er3
1106: 5670                      rte
1108: 0130 6df0                 stm.l   er0-er3, @-sp
110c: 0120 6df4                 stm.l   er4-er6, @-sp
1110: 0100 6b02 ecd8            mov.l   @h'ffecd8, er2
1116: 5d20                      jsr     er2
1118: 0120 6d76                 ldm.l   @sp+, er4-er6
111c: 0130 6d73                 ldm.l   @sp+, er0-er3
1120: 5670                      rte
1122: 0130 6df0                 stm.l   er0-er3, @-sp
1126: 0120 6df4                 stm.l   er4-er6, @-sp
112a: 0100 6b02 ecdc            mov.l   @h'ffecdc, er2
1130: 5d20                      jsr     er2
1132: 0120 6d76                 ldm.l   @sp+, er4-er6
1136: 0130 6d73                 ldm.l   @sp+, er0-er3
113a: 5670                      rte
113c: 0130 6df0                 stm.l   er0-er3, @-sp
1140: 0120 6df4                 stm.l   er4-er6, @-sp
1144: 0100 6b02 ece0            mov.l   @h'ffece0, er2
114a: 5d20                      jsr     er2
114c: 0120 6d76                 ldm.l   @sp+, er4-er6
1150: 0130 6d73                 ldm.l   @sp+, er0-er3
1154: 5670                      rte
1156: 0130 6df0                 stm.l   er0-er3, @-sp
115a: 0120 6df4                 stm.l   er4-er6, @-sp
115e: 0100 6b02 ece4            mov.l   @h'ffece4, er2
1164: 5d20                      jsr     er2
1166: 0120 6d76                 ldm.l   @sp+, er4-er6
116a: 0130 6d73                 ldm.l   @sp+, er0-er3
116e: 5670                      rte
1170: 0130 6df0                 stm.l   er0-er3, @-sp
1174: 0120 6df4                 stm.l   er4-er6, @-sp
1178: 0100 6b02 ece8            mov.l   @h'ffece8, er2
117e: 5d20                      jsr     er2
1180: 0120 6d76                 ldm.l   @sp+, er4-er6
1184: 0130 6d73                 ldm.l   @sp+, er0-er3
1188: 5670                      rte
118a: 0130 6df0                 stm.l   er0-er3, @-sp
118e: 0120 6df4                 stm.l   er4-er6, @-sp
1192: 0100 6b02 ecec            mov.l   @h'ffecec, er2
1198: 5d20                      jsr     er2
119a: 0120 6d76                 ldm.l   @sp+, er4-er6
119e: 0130 6d73                 ldm.l   @sp+, er0-er3
11a2: 5670                      rte
11a4: 0130 6df0                 stm.l   er0-er3, @-sp
11a8: 0120 6df4                 stm.l   er4-er6, @-sp
11ac: 0100 6b02 ecf0            mov.l   @h'ffecf0, er2
11b2: 5d20                      jsr     er2
11b4: 0120 6d76                 ldm.l   @sp+, er4-er6
11b8: 0130 6d73                 ldm.l   @sp+, er0-er3
11bc: 5670                      rte
11be: 0130 6df0                 stm.l   er0-er3, @-sp
11c2: 0120 6df4                 stm.l   er4-er6, @-sp
11c6: 0100 6b02 ecf4            mov.l   @h'ffecf4, er2
11cc: 5d20                      jsr     er2
11ce: 0120 6d76                 ldm.l   @sp+, er4-er6
11d2: 0130 6d73                 ldm.l   @sp+, er0-er3
11d6: 5670                      rte
11d8: 0000                      nop
11da: 0100 6df4                 mov.l   er4, @-sp
11de: 0fa3                      mov.l   er2, er3
11e0: 400c                      bt      h'0011ee
11e2: 6c0c                      mov.b   @er0+, r4l
11e4: f400                      mov.b   #h'00, r4h
11e6: 6c1a                      mov.b   @er1+, r2l
11e8: f200                      mov.b   #h'00, r2h
11ea: 1924                      sub.w   r2, r4
11ec: 4606                      bne     h'0011f4
11ee: 1b03                      subs.l  #1, er3
11f0: 0d33                      mov.w   r3, r3
11f2: 4cee                      bge     h'0011e2
11f4: 0d40                      mov.w   r4, r0
11f6: 0100 6d74                 mov.l   @sp+, er4
11fa: 5470                      rts
11fc: 0f83                      mov.l   er0, er3
11fe: 4004                      bt      h'001204
1200: 68b9                      mov.b   r1l, @er3
1202: 0b03                      adds.l  #1, er3
1204: 1b02                      subs.l  #1, er2
1206: 0fa2                      mov.l   er2, er2
1208: 4cf6                      bge     h'001200
120a: 5470                      rts
120c: 0120 6df4                 stm.l   er4-er6, @-sp
1210: 0f95                      mov.l   er1, er5
1212: 0f86                      mov.l   er0, er6
1214: 0fa2                      mov.l   er2, er2
1216: 4724                      beq     h'00123c
1218: 7a22 0000 ffff            cmp.l   #h'0000ffff, er2
121e: 430c                      bls     h'00122c
1220: 7a12 ffff 0001            add.l   #h'ffff0001, er2
1226: 7904 ffff                 mov.w   #h'ffff, r4
122a: 4004                      bt      h'001230
122c: 0d24                      mov.w   r2, r4
122e: 1aa2                      sub.l   er2, er2
1230: 7bd4 598f                 eepmov.w
1234: 0d44                      mov.w   r4, r4
1236: 46f8                      bne     h'001230
1238: 0fa2                      mov.l   er2, er2
123a: 46dc                      bne     h'001218
123c: 0120 6d76                 ldm.l   @sp+, er4-er6
1240: 5470                      rts
1242: 0110 6df4                 stm.l   er4-er5, @-sp
1246: 0f85                      mov.l   er0, er5
1248: 0fa3                      mov.l   er2, er3
124a: 0f94                      mov.l   er1, er4
124c: 0fc2                      mov.l   er4, er2
124e: 1ad2                      sub.l   er5, er2
1250: 0fb1                      mov.l   er3, er1
1252: 1b01                      subs.l  #1, er1
1254: 0fa2                      mov.l   er2, er2
1256: 4d16                      blt     h'00126e
1258: 0fb2                      mov.l   er3, er2
125a: 0f93                      mov.l   er1, er3
125c: 0fa2                      mov.l   er2, er2
125e: 472a                      beq     h'00128a
1260: 6c4a                      mov.b   @er4+, r2l
1262: 688a                      mov.b   r2l, @er0
1264: 0b00                      adds.l  #1, er0
1266: 0fb2                      mov.l   er3, er2
1268: 1b03                      subs.l  #1, er3
126a: 46f4                      bne     h'001260
126c: 401c                      bt      h'00128a
126e: 0fd0                      mov.l   er5, er0
1270: 0a90                      add.l   er1, er0
1272: 0a94                      add.l   er1, er4
1274: 0fb2                      mov.l   er3, er2
1276: 0f93                      mov.l   er1, er3
1278: 0fa2                      mov.l   er2, er2
127a: 470e                      beq     h'00128a
127c: 684a                      mov.b   @er4, r2l
127e: 688a                      mov.b   r2l, @er0
1280: 1b04                      subs.l  #1, er4
1282: 1b00                      subs.l  #1, er0
1284: 0fb2                      mov.l   er3, er2
1286: 1b03                      subs.l  #1, er3
1288: 46f2                      bne     h'00127c
128a: 0fd0                      mov.l   er5, er0
128c: 0110 6d75                 ldm.l   @sp+, er4-er5
1290: 5470                      rts
1292: 4006                      bt      h'00129a
1294: 0b01                      adds.l  #1, er1
1296: 0cbb                      mov.b   r3l, r3l
1298: 471e                      beq     h'0012b8
129a: 680a                      mov.b   @er0, r2l
129c: 681b                      mov.b   @er1, r3l
129e: 1cba                      cmp.b   r3l, r2l
12a0: 4406                      bcc     h'0012a8
12a2: 7900 ffff                 mov.w   #h'ffff, r0
12a6: 4012                      bt      h'0012ba
12a8: 1cba                      cmp.b   r3l, r2l
12aa: 4306                      bls     h'0012b2
12ac: 7900 0001                 mov.w   #h'0001, r0
12b0: 4008                      bt      h'0012ba
12b2: 0b00                      adds.l  #1, er0
12b4: 0caa                      mov.b   r2l, r2l
12b6: 46dc                      bne     h'001294
12b8: 1900                      sub.w   r0, r0
12ba: 5470                      rts
12bc: 0100 6df4                 mov.l   er4, @-sp
12c0: 0f84                      mov.l   er0, er4
12c2: 0fa0                      mov.l   er2, er0
12c4: 4006                      bt      h'0012cc
12c6: 1b00                      subs.l  #1, er0
12c8: 0f80                      mov.l   er0, er0
12ca: 4724                      beq     h'0012f0
12cc: 684b                      mov.b   @er4, r3l
12ce: 681a                      mov.b   @er1, r2l
12d0: 1cab                      cmp.b   r2l, r3l
12d2: 4406                      bcc     h'0012da
12d4: 7900 ffff                 mov.w   #h'ffff, r0
12d8: 4018                      bt      h'0012f2
12da: 1cab                      cmp.b   r2l, r3l
12dc: 4306                      bls     h'0012e4
12de: 7900 0001                 mov.w   #h'0001, r0
12e2: 400e                      bt      h'0012f2
12e4: 0b04                      adds.l  #1, er4
12e6: 0cbb                      mov.b   r3l, r3l
12e8: 4706                      beq     h'0012f0
12ea: 0b01                      adds.l  #1, er1
12ec: 0caa                      mov.b   r2l, r2l
12ee: 46d6                      bne     h'0012c6
12f0: 1900                      sub.w   r0, r0
12f2: 0100 6d74                 mov.l   @sp+, er4
12f6: 5470                      rts
12f8: 0f83                      mov.l   er0, er3
12fa: 6c0a                      mov.b   @er0+, r2l
12fc: 46fc                      bne     h'0012fa
12fe: 1ab0                      sub.l   er3, er0
1300: 1b00                      subs.l  #1, er0
1302: 5470                      rts
1304: 0f83                      mov.l   er0, er3
1306: 6c1a                      mov.b   @er1+, r2l
1308: 688a                      mov.b   r2l, @er0
130a: 0b00                      adds.l  #1, er0
130c: 0caa                      mov.b   r2l, r2l
130e: 46f6                      bne     h'001306
1310: 0fb0                      mov.l   er3, er0
1312: 5470                      rts
1314: 0100 6df4                 mov.l   er4, @-sp
1318: 0fa3                      mov.l   er2, er3
131a: 1b03                      subs.l  #1, er3
131c: 0f84                      mov.l   er0, er4
131e: 4006                      bt      h'001326
1320: 0fb2                      mov.l   er3, er2
1322: 1b03                      subs.l  #1, er3
1324: 470a                      beq     h'001330
1326: 6c1a                      mov.b   @er1+, r2l
1328: 688a                      mov.b   r2l, @er0
132a: 0b00                      adds.l  #1, er0
132c: 0caa                      mov.b   r2l, r2l
132e: 46f0                      bne     h'001320
1330: 18aa                      sub.b   r2l, r2l
1332: 688a                      mov.b   r2l, @er0
1334: 0fc0                      mov.l   er4, er0
1336: 0100 6d74                 mov.l   @sp+, er4
133a: 5470                      rts
133c: 0120 6df4                 stm.l   er4-er6, @-sp
1340: 0f84                      mov.l   er0, er4
1342: 0f95                      mov.l   er1, er5
1344: 0fd0                      mov.l   er5, er0
1346: 55b0                      bsr     h'0012f8
1348: 0f86                      mov.l   er0, er6
134a: 4014                      bt      h'001360
134c: 0fe2                      mov.l   er6, er2
134e: 0fd1                      mov.l   er5, er1
1350: 0fc0                      mov.l   er4, er0
1352: 5e00 12bc                 jsr     h'0012bc
1356: 0d00                      mov.w   r0, r0
1358: 4604                      bne     h'00135e
135a: 0fc0                      mov.l   er4, er0
135c: 4008                      bt      h'001366
135e: 0b04                      adds.l  #1, er4
1360: 684a                      mov.b   @er4, r2l
1362: 46e8                      bne     h'00134c
1364: 1a80                      sub.l   er0, er0
1366: 0120 6d76                 ldm.l   @sp+, er4-er6
136a: 5470                      rts
136c: 0110 6df4                 stm.l   er4-er5, @-sp
1370: 0f84                      mov.l   er0, er4
1372: 0f95                      mov.l   er1, er5
1374: 5582                      bsr     h'0012f8
1376: 0f82                      mov.l   er0, er2
1378: 0fc0                      mov.l   er4, er0
137a: 0aa0                      add.l   er2, er0
137c: 0fd1                      mov.l   er5, er1
137e: 5584                      bsr     h'001304
1380: 0fc0                      mov.l   er4, er0
1382: 0110 6d75                 ldm.l   @sp+, er4-er5
1386: 5470                      rts
1388: 680a                      mov.b   @er0, r2l
138a: 1c9a                      cmp.b   r1l, r2l
138c: 4708                      beq     h'001396
138e: 0b00                      adds.l  #1, er0
1390: 0caa                      mov.b   r2l, r2l
1392: 46f4                      bne     h'001388
1394: 1a80                      sub.l   er0, er0
1396: 5470                      rts
1398: 0110 6df4                 stm.l   er4-er5, @-sp
139c: 0f84                      mov.l   er0, er4
139e: 0c9d                      mov.b   r1l, r5l
13a0: 5e00 12f8                 jsr     h'0012f8
13a4: 0ac0                      add.l   er4, er0
13a6: 1b00                      subs.l  #1, er0
13a8: 680a                      mov.b   @er0, r2l
13aa: 1cda                      cmp.b   r5l, r2l
13ac: 4706                      beq     h'0013b4
13ae: 0caa                      mov.b   r2l, r2l
13b0: 46f4                      bne     h'0013a6
13b2: 1a80                      sub.l   er0, er0
13b4: 0110 6d75                 ldm.l   @sp+, er4-er5
13b8: 5470                      rts
13ba: 0110 6df4                 stm.l   er4-er5, @-sp
13be: 0f85                      mov.l   er0, er5
13c0: 0f94                      mov.l   er1, er4
13c2: 0fc0                      mov.l   er4, er0
13c4: 5e00 12f8                 jsr     h'0012f8
13c8: 0f82                      mov.l   er0, er2
13ca: 0fc1                      mov.l   er4, er1
13cc: 0fd0                      mov.l   er5, er0
13ce: 5e00 12bc                 jsr     h'0012bc
13d2: 18aa                      sub.b   r2l, r2l
13d4: 0d00                      mov.w   r0, r0
13d6: 4602                      bne     h'0013da
13d8: fa01                      mov.b   #h'01, r2l
13da: 0ca8                      mov.b   r2l, r0l
13dc: 0110 6d75                 ldm.l   @sp+, er4-er5
13e0: 5470                      rts
13e2: 0120 6df4                 stm.l   er4-er6, @-sp
13e6: 0f84                      mov.l   er0, er4
13e8: 0f96                      mov.l   er1, er6
13ea: 0fe0                      mov.l   er6, er0
13ec: 5e00 12f8                 jsr     h'0012f8
13f0: 0f85                      mov.l   er0, er5
13f2: 0fc0                      mov.l   er4, er0
13f4: 5e00 12f8                 jsr     h'0012f8
13f8: 0a84                      add.l   er0, er4
13fa: 1ad4                      sub.l   er5, er4
13fc: 0fd2                      mov.l   er5, er2
13fe: 0fe1                      mov.l   er6, er1
1400: 0fc0                      mov.l   er4, er0
1402: 5e00 12bc                 jsr     h'0012bc
1406: 18aa                      sub.b   r2l, r2l
1408: 0d00                      mov.w   r0, r0
140a: 4602                      bne     h'00140e
140c: fa01                      mov.b   #h'01, r2l
140e: 0ca8                      mov.b   r2l, r0l
1410: 0120 6d76                 ldm.l   @sp+, er4-er6
1414: 5470                      rts
1416: 4002                      bt      h'00141a
1418: 0b00                      adds.l  #1, er0
141a: 680a                      mov.b   @er0, r2l
141c: aa20                      cmp.b   #h'20, r2l
141e: 47f8                      beq     h'001418
1420: aa09                      cmp.b   #h'09, r2l
1422: 47f4                      beq     h'001418
1424: 5470                      rts
1426: 0120 6df4                 stm.l   er4-er6, @-sp
142a: 0f86                      mov.l   er0, er6
142c: 1900                      sub.w   r0, r0
142e: 0100 6961                 mov.l   @er6, er1
1432: 18dd                      sub.b   r5l, r5l
1434: 4002                      bt      h'001438
1436: 0b01                      adds.l  #1, er1
1438: 681a                      mov.b   @er1, r2l
143a: aa20                      cmp.b   #h'20, r2l
143c: 47f8                      beq     h'001436
143e: aa09                      cmp.b   #h'09, r2l
1440: 47f4                      beq     h'001436
1442: 681a                      mov.b   @er1, r2l
1444: aa2d                      cmp.b   #h'2d, r2l
1446: 461a                      bne     h'001462
1448: fd01                      mov.b   #h'01, r5l
144a: 0b01                      adds.l  #1, er1
144c: 4014                      bt      h'001462
144e: 0d02                      mov.w   r0, r2
1450: 1052                      shll.w  #2, r2
1452: 1012                      shll.w  r2
1454: 0902                      add.w   r0, r2
1456: 0920                      add.w   r2, r0
1458: 0cca                      mov.b   r4l, r2l
145a: f200                      mov.b   #h'00, r2h
145c: 0920                      add.w   r2, r0
145e: 7910 ffd0                 add.w   #h'ffd0, r0
1462: 6c1c                      mov.b   @er1+, r4l
1464: 18bb                      sub.b   r3l, r3l
1466: 0cca                      mov.b   r4l, r2l
1468: 8ad0                      add.b   #h'd0, r2l
146a: aa09                      cmp.b   #h'09, r2l
146c: 4202                      bhi     h'001470
146e: fb01                      mov.b   #h'01, r3l
1470: 0cbb                      mov.b   r3l, r3l
1472: 46da                      bne     h'00144e
1474: 1b01                      subs.l  #1, er1
1476: 0100 69e1                 mov.l   er1, @er6
147a: 0cdd                      mov.b   r5l, r5l
147c: 4702                      beq     h'001480
147e: 1790                      neg.w   r0
1480: 0120 6d76                 ldm.l   @sp+, er4-er6
1484: 5470                      rts
1486: 0110 6df4                 stm.l   er4-er5, @-sp
148a: 0f84                      mov.l   er0, er4
148c: 1ad5                      sub.l   er5, er5
148e: 4002                      bt      h'001492
1490: 0b04                      adds.l  #1, er4
1492: 684a                      mov.b   @er4, r2l
1494: aa20                      cmp.b   #h'20, r2l
1496: 47f8                      beq     h'001490
1498: 4022                      bt      h'0014bc
149a: 0100 6b00 ecf8            mov.l   @h'ffecf8, er0
14a0: 6c49                      mov.b   @er4+, r1l
14a2: 5e00 1388                 jsr     h'001388
14a6: 0f80                      mov.l   er0, er0
14a8: 4716                      beq     h'0014c0
14aa: 1075                      shll.l  #2, er5
14ac: 1075                      shll.l  #2, er5
14ae: 0100 6b02 ecf8            mov.l   @h'ffecf8, er2
14b4: 1aa0                      sub.l   er2, er0
14b6: 11b0                      shar.l  er0
14b8: 01f0 6405                 or.l    er0, er5
14bc: 684a                      mov.b   @er4, r2l
14be: 46da                      bne     h'00149a
14c0: 0fd0                      mov.l   er5, er0
14c2: 0110 6d75                 ldm.l   @sp+, er4-er5
14c6: 5470                      rts
14c8: 1ab3                      sub.l   er3, er3
14ca: 4002                      bt      h'0014ce
14cc: 0b00                      adds.l  #1, er0
14ce: 680a                      mov.b   @er0, r2l
14d0: aa20                      cmp.b   #h'20, r2l
14d2: 47f8                      beq     h'0014cc
14d4: 401e                      bt      h'0014f4
14d6: 680a                      mov.b   @er0, r2l
14d8: 8ad0                      add.b   #h'd0, r2l
14da: aa09                      cmp.b   #h'09, r2l
14dc: 421a                      bhi     h'0014f8
14de: 0fb2                      mov.l   er3, er2
14e0: 1072                      shll.l  #2, er2
14e2: 1032                      shll.l  er2
14e4: 0ab2                      add.l   er3, er2
14e6: 0aa3                      add.l   er2, er3
14e8: 6c0a                      mov.b   @er0+, r2l
14ea: f200                      mov.b   #h'00, r2h
14ec: 7912 ffd0                 add.w   #h'ffd0, r2
14f0: 17f2                      exts.l  er2
14f2: 0aa3                      add.l   er2, er3
14f4: 680a                      mov.b   @er0, r2l
14f6: 46de                      bne     h'0014d6
14f8: 0fb0                      mov.l   er3, er0
14fa: 5470                      rts
14fc: 0100 6df4                 mov.l   er4, @-sp
1500: 0f84                      mov.l   er0, er4
1502: 4002                      bt      h'001506
1504: 0b04                      adds.l  #1, er4
1506: 684a                      mov.b   @er4, r2l
1508: aa20                      cmp.b   #h'20, r2l
150a: 47f8                      beq     h'001504
150c: aa09                      cmp.b   #h'09, r2l
150e: 47f4                      beq     h'001504
1510: aa0d                      cmp.b   #h'0d, r2l
1512: 47f0                      beq     h'001504
1514: aa0a                      cmp.b   #h'0a, r2l
1516: 47ec                      beq     h'001504
1518: 684a                      mov.b   @er4, r2l
151a: 4604                      bne     h'001520
151c: 1a80                      sub.l   er0, er0
151e: 406a                      bt      h'00158a
1520: 7a01 0000 04d7            mov.l   #h'000004d7, er1
1526: 1aa2                      sub.l   er2, er2
1528: 8a02                      add.b   #h'02, r2l
152a: 0fc0                      mov.l   er4, er0
152c: 5e00 12bc                 jsr     h'0012bc
1530: 0d00                      mov.w   r0, r0
1532: 4728                      beq     h'00155c
1534: 7a01 0000 04da            mov.l   #h'000004da, er1
153a: 1aa2                      sub.l   er2, er2
153c: 8a02                      add.b   #h'02, r2l
153e: 0fc0                      mov.l   er4, er0
1540: 5e00 12bc                 jsr     h'0012bc
1544: 0d00                      mov.w   r0, r0
1546: 4714                      beq     h'00155c
1548: 7a01 0000 04dd            mov.l   #h'000004dd, er1
154e: 1aa2                      sub.l   er2, er2
1550: 8a02                      add.b   #h'02, r2l
1552: 0fc0                      mov.l   er4, er0
1554: 5e00 12bc                 jsr     h'0012bc
1558: 0d00                      mov.w   r0, r0
155a: 4604                      bne     h'001560
155c: 0b84                      adds.l  #2, er4
155e: 400c                      bt      h'00156c
1560: 684a                      mov.b   @er4, r2l
1562: aa78                      cmp.b   #h'78, r2l
1564: 4704                      beq     h'00156a
1566: aa58                      cmp.b   #h'58, r2l
1568: 460a                      bne     h'001574
156a: 0b04                      adds.l  #1, er4
156c: 0fc0                      mov.l   er4, er0
156e: 5e00 1486                 jsr     h'001486
1572: 4016                      bt      h'00158a
1574: aa2d                      cmp.b   #h'2d, r2l
1576: 4708                      beq     h'001580
1578: 0fc0                      mov.l   er4, er0
157a: 5e00 14c8                 jsr     h'0014c8
157e: 400a                      bt      h'00158a
1580: 0b04                      adds.l  #1, er4
1582: 0fc0                      mov.l   er4, er0
1584: 5e00 14c8                 jsr     h'0014c8
1588: 17b0                      neg.l   er0
158a: 0100 6d74                 mov.l   @sp+, er4
158e: 5470                      rts
1590: 0100 6b00 ecfc            mov.l   @h'ffecfc, er0
1596: 7a01 41c6 4e6d            mov.l   #h'41c64e6d, er1
159c: 5e00 76b0                 jsr     h'0076b0
15a0: 7a10 0000 3039            add.l   #h'00003039, er0
15a6: 0100 6b80 ecfc            mov.l   er0, @h'ffecfc
15ac: 7a02 00ff ecfe            mov.l   #h'00ffecfe, er2
15b2: 6920                      mov.w   @er2, r0
15b4: e07f                      and.b   #h'7f, r0h
15b6: 5470                      rts
15b8: 1a80                      sub.l   er0, er0
15ba: 5470                      rts
15bc: 5470                      rts
15be: 1a80                      sub.l   er0, er0
15c0: 5470                      rts
15c2: 1a80                      sub.l   er0, er0
15c4: 5470                      rts
15c6: 1a80                      sub.l   er0, er0
15c8: 5470                      rts
15ca: 5470                      rts
15cc: 1a80                      sub.l   er0, er0
15ce: 5470                      rts
15d0: 5470                      rts
15d2: 0110 6df4                 stm.l   er4-er5, @-sp
15d6: 0c9d                      mov.b   r1l, r5l
15d8: 0fa3                      mov.l   er2, er3
15da: 6e79 000f                 mov.b   @(h'f, sp), r1l
15de: 6e7a 0013                 mov.b   @(h'13, sp), r2l
15e2: 0d04                      mov.w   r0, r4
15e4: 1774                      extu.l  er4
15e6: 0c98                      mov.b   r1l, r0l
15e8: 1708                      not.b   r0l
15ea: 0caa                      mov.b   r2l, r2l
15ec: 4714                      beq     h'001602
15ee: 683a                      mov.b   @er3, r2l
15f0: 149a                      or.b    r1l, r2l
15f2: 68ba                      mov.b   r2l, @er3
15f4: 7840 6aad 0080 0000       mov.b   r5l, @(h'800000, er4)
15fc: 683a                      mov.b   @er3, r2l
15fe: 168a                      and.b   r0l, r2l
1600: 4012                      bt      h'001614
1602: 683a                      mov.b   @er3, r2l
1604: 168a                      and.b   r0l, r2l
1606: 68ba                      mov.b   r2l, @er3
1608: 7840 6aad 0080 0000       mov.b   r5l, @(h'800000, er4)
1610: 683a                      mov.b   @er3, r2l
1612: 149a                      or.b    r1l, r2l
1614: 68ba                      mov.b   r2l, @er3
1616: 0110 6d75                 ldm.l   @sp+, er4-er5
161a: 5470                      rts
161c: 0100 6df4                 mov.l   er4, @-sp
1620: 0cac                      mov.b   r2l, r4l
1622: 6e7a 000b                 mov.b   @(h'b, sp), r2l
1626: 1770                      extu.l  er0
1628: 0ccb                      mov.b   r4l, r3l
162a: 170b                      not.b   r3l
162c: 0caa                      mov.b   r2l, r2l
162e: 4714                      beq     h'001644
1630: 681a                      mov.b   @er1, r2l
1632: 14ca                      or.b    r4l, r2l
1634: 689a                      mov.b   r2l, @er1
1636: 7800 6a28 0080 0000       mov.b   @(h'800000, er0), r0l
163e: 681a                      mov.b   @er1, r2l
1640: 16ba                      and.b   r3l, r2l
1642: 4012                      bt      h'001656
1644: 681a                      mov.b   @er1, r2l
1646: 16ba                      and.b   r3l, r2l
1648: 689a                      mov.b   r2l, @er1
164a: 7800 6a28 0080 0000       mov.b   @(h'800000, er0), r0l
1652: 681a                      mov.b   @er1, r2l
1654: 14ca                      or.b    r4l, r2l
1656: 689a                      mov.b   r2l, @er1
1658: f000                      mov.b   #h'00, r0h
165a: 0100 6d74                 mov.l   @sp+, er4
165e: 5470                      rts
1660: 7920 00fe                 cmp.w   #h'00fe, r0
1664: 4318                      bls     h'00167e
1666: 7910 ff01                 add.w   #h'ff01, r0
166a: 0d02                      mov.w   r0, r2
166c: 0c2a                      mov.b   r2h, r2l
166e: 1822                      sub.b   r2h, r2h
1670: 0d03                      mov.w   r0, r3
1672: e300                      and.b   #h'00, r3h
1674: 0d20                      mov.w   r2, r0
1676: 0930                      add.w   r3, r0
1678: 7920 00fe                 cmp.w   #h'00fe, r0
167c: 42e8                      bhi     h'001666
167e: 5470                      rts
1680: 0caa                      mov.b   r2l, r2l
1682: 4718                      beq     h'00169c
1684: 7902 0014                 mov.w   #h'0014, r2
1688: 0100 6df2                 mov.l   er2, @-sp
168c: 7a02 0000 0370            mov.l   #h'00000370, er2
1692: 0100 6df2                 mov.l   er2, @-sp
1696: 7902 001e                 mov.w   #h'001e, r2
169a: 4016                      bt      h'0016b2
169c: 7902 0050                 mov.w   #h'0050, r2
16a0: 0100 6df2                 mov.l   er2, @-sp
16a4: 7a02 0000 0385            mov.l   #h'00000385, er2
16aa: 0100 6df2                 mov.l   er2, @-sp
16ae: 7902 0078                 mov.w   #h'0078, r2
16b2: 5506                      bsr     h'0016ba
16b4: 0b97                      adds.l  #4, sp
16b6: 0b97                      adds.l  #4, sp
16b8: 5470                      rts
16ba: 7a37 0000 0014            sub.l   #h'00000014, sp
16c0: 0120 6df4                 stm.l   er4-er6, @-sp
16c4: 0100 6ff1 001c            mov.l   er1, @(h'1c, sp)
16ca: 0d24                      mov.w   r2, r4
16cc: 0d42                      mov.w   r4, r2
16ce: 17f2                      exts.l  er2
16d0: 0100 6ff1 0018            mov.l   er1, @(h'18, sp)
16d6: 0f95                      mov.l   er1, er5
16d8: 0aa5                      add.l   er2, er5
16da: 0100 6ff5 0018            mov.l   er5, @(h'18, sp)
16e0: 6f75 002a                 mov.w   @(h'2a, sp), r5
16e4: 17f5                      exts.l  er5
16e6: 0100 6ff5 0014            mov.l   er5, @(h'14, sp)
16ec: 0100 6f72 0014            mov.l   @(h'14, sp), er2
16f2: 1911                      sub.w   r1, r1
16f4: 0100 6f70 0018            mov.l   @(h'18, sp), er0
16fa: 5e00 11fc                 jsr     h'0011fc
16fe: 0d41                      mov.w   r4, r1
1700: 5800 00f4                 bt      h'0017f8
1704: 0d12                      mov.w   r1, r2
1706: 17f2                      exts.l  er2
1708: 0100 6f73 001c            mov.l   @(h'1c, sp), er3
170e: 0aa3                      add.l   er2, er3
1710: 0100 6f72 0014            mov.l   @(h'14, sp), er2
1716: 0100 6f75 0018            mov.l   @(h'18, sp), er5
171c: 0ad2                      add.l   er5, er2
171e: 6e2a ffff                 mov.b   @(h'ffff, er2), r2l
1722: 683b                      mov.b   @er3, r3l
1724: 15ba                      xor.b   r3l, r2l
1726: f200                      mov.b   #h'00, r2h
1728: 1772                      extu.l  er2
172a: 7820 6a2e 0000 0270       mov.b   @(h'270, er2), r6l
1732: 6f72 002a                 mov.w   @(h'2a, sp), r2
1736: 1b02                      subs.l  #1, er2
1738: aeff                      cmp.b   #h'ff, r6l
173a: 5870 0094                 beq     h'0017d2
173e: 6ff2 000e                 mov.w   r2, @(h'e, sp)
1742: 0d22                      mov.w   r2, r2
1744: 4f54                      ble     h'00179a
1746: 6f74 000e                 mov.w   @(h'e, sp), r4
174a: 17f4                      exts.l  er4
174c: 0100 6f72 0024            mov.l   @(h'24, sp), er2
1752: 0ac2                      add.l   er4, er2
1754: 6828                      mov.b   @er2, r0l
1756: f000                      mov.b   #h'00, r0h
1758: 0cea                      mov.b   r6l, r2l
175a: f200                      mov.b   #h'00, r2h
175c: 0920                      add.w   r2, r0
175e: 0100 6ff1 0010            mov.l   er1, @(h'10, sp)
1764: 5e00 1660                 jsr     h'001660
1768: 0100 6f73 0018            mov.l   @(h'18, sp), er3
176e: 0ac3                      add.l   er4, er3
1770: 0c8a                      mov.b   r0l, r2l
1772: f200                      mov.b   #h'00, r2h
1774: 1772                      extu.l  er2
1776: 7820 6a2a 0000 0170       mov.b   @(h'170, er2), r2l
177e: 6e3d ffff                 mov.b   @(h'ffff, er3), r5l
1782: 15da                      xor.b   r5l, r2l
1784: 68ba                      mov.b   r2l, @er3
1786: 6f75 000e                 mov.w   @(h'e, sp), r5
178a: 1b05                      subs.l  #1, er5
178c: 6ff5 000e                 mov.w   r5, @(h'e, sp)
1790: 0100 6f71 0010            mov.l   @(h'10, sp), er1
1796: 0d55                      mov.w   r5, r5
1798: 4eac                      bgt     h'001746
179a: 0100 6f75 0024            mov.l   @(h'24, sp), er5
17a0: 6858                      mov.b   @er5, r0l
17a2: f000                      mov.b   #h'00, r0h
17a4: 0cea                      mov.b   r6l, r2l
17a6: f200                      mov.b   #h'00, r2h
17a8: 0920                      add.w   r2, r0
17aa: 0100 6ff1 0010            mov.l   er1, @(h'10, sp)
17b0: 5e00 1660                 jsr     h'001660
17b4: 0c8a                      mov.b   r0l, r2l
17b6: f200                      mov.b   #h'00, r2h
17b8: 1772                      extu.l  er2
17ba: 7820 6a2a 0000 0170       mov.b   @(h'170, er2), r2l
17c2: 0100 6f75 0018            mov.l   @(h'18, sp), er5
17c8: 68da                      mov.b   r2l, @er5
17ca: 0100 6f71 0010            mov.l   @(h'10, sp), er1
17d0: 4026                      bt      h'0017f8
17d2: 0d24                      mov.w   r2, r4
17d4: 4f18                      ble     h'0017ee
17d6: 0d42                      mov.w   r4, r2
17d8: 17f2                      exts.l  er2
17da: 0100 6f73 0018            mov.l   @(h'18, sp), er3
17e0: 0aa3                      add.l   er2, er3
17e2: 6e3a ffff                 mov.b   @(h'ffff, er3), r2l
17e6: 68ba                      mov.b   r2l, @er3
17e8: 1b04                      subs.l  #1, er4
17ea: 0d44                      mov.w   r4, r4
17ec: 4ee8                      bgt     h'0017d6
17ee: 18aa                      sub.b   r2l, r2l
17f0: 0100 6f75 0018            mov.l   @(h'18, sp), er5
17f6: 68da                      mov.b   r2l, @er5
17f8: 1b01                      subs.l  #1, er1
17fa: 0d11                      mov.w   r1, r1
17fc: 58c0 ff04                 bge     h'001704
1800: 0120 6d76                 ldm.l   @sp+, er4-er6
1804: 7a17 0000 0014            add.l   #h'00000014, sp
180a: 5470                      rts
180c: 0caa                      mov.b   r2l, r2l
180e: 4718                      beq     h'001828
1810: 7902 0014                 mov.w   #h'0014, r2
1814: 0100 6df2                 mov.l   er2, @-sp
1818: 7a02 0000 0370            mov.l   #h'00000370, er2
181e: 0100 6df2                 mov.l   er2, @-sp
1822: 7902 001e                 mov.w   #h'001e, r2
1826: 4016                      bt      h'00183e
1828: 7902 0050                 mov.w   #h'0050, r2
182c: 0100 6df2                 mov.l   er2, @-sp
1830: 7a02 0000 0385            mov.l   #h'00000385, er2
1836: 0100 6df2                 mov.l   er2, @-sp
183a: 7902 0078                 mov.w   #h'0078, r2
183e: 5506                      bsr     h'001846
1840: 0b97                      adds.l  #4, sp
1842: 0b97                      adds.l  #4, sp
1844: 5470                      rts
1846: 7a37 0000 0040            sub.l   #h'00000040, sp
184c: 0120 6df4                 stm.l   er4-er6, @-sp
1850: 0f86                      mov.l   er0, er6
1852: 0100 6ff1 0048            mov.l   er1, @(h'48, sp)
1858: 6ff2 0046                 mov.w   r2, @(h'46, sp)
185c: 6e7c 0047                 mov.b   @(h'47, sp), r4l
1860: 6e7d 0057                 mov.b   @(h'57, sp), r5l
1864: 08dc                      add.b   r5l, r4l
1866: 6efc 003e                 mov.b   r4l, @(h'3e, sp)
186a: 1911                      sub.w   r1, r1
186c: 1d21                      cmp.w   r2, r1
186e: 4436                      bcc     h'0018a6
1870: 0d12                      mov.w   r1, r2
1872: 6f74 0056                 mov.w   @(h'56, sp), r4
1876: 0942                      add.w   r4, r2
1878: 1772                      extu.l  er2
187a: 0fe0                      mov.l   er6, er0
187c: 0aa0                      add.l   er2, er0
187e: 0d13                      mov.w   r1, r3
1880: 1773                      extu.l  er3
1882: 0100 6f72 0048            mov.l   @(h'48, sp), er2
1888: 0ab2                      add.l   er3, er2
188a: 682a                      mov.b   @er2, r2l
188c: f200                      mov.b   #h'00, r2h
188e: 1772                      extu.l  er2
1890: 7820 6a2a 0000 0270       mov.b   @(h'270, er2), r2l
1898: 6e8a 0286                 mov.b   r2l, @(h'286, er0)
189c: 0b01                      adds.l  #1, er1
189e: 6f75 0046                 mov.w   @(h'46, sp), r5
18a2: 1d51                      cmp.w   r5, r1
18a4: 45ca                      bcs     h'001870
18a6: 1911                      sub.w   r1, r1
18a8: 4030                      bt      h'0018da
18aa: 0d12                      mov.w   r1, r2
18ac: 1772                      extu.l  er2
18ae: 0fe0                      mov.l   er6, er0
18b0: 0aa0                      add.l   er2, er0
18b2: 0d12                      mov.w   r1, r2
18b4: 6f75 0046                 mov.w   @(h'46, sp), r5
18b8: 0952                      add.w   r5, r2
18ba: 0d23                      mov.w   r2, r3
18bc: 1773                      extu.l  er3
18be: 0100 6f72 0048            mov.l   @(h'48, sp), er2
18c4: 0ab2                      add.l   er3, er2
18c6: 682a                      mov.b   @er2, r2l
18c8: f200                      mov.b   #h'00, r2h
18ca: 1772                      extu.l  er2
18cc: 7820 6a2a 0000 0270       mov.b   @(h'270, er2), r2l
18d4: 6e8a 0286                 mov.b   r2l, @(h'286, er0)
18d8: 0b01                      adds.l  #1, er1
18da: 6f74 0056                 mov.w   @(h'56, sp), r4
18de: 1d41                      cmp.w   r4, r1
18e0: 45c8                      bcs     h'0018aa
18e2: 18dd                      sub.b   r5l, r5l
18e4: 6efd 0042                 mov.b   r5l, @(h'42, sp)
18e8: 7901 0001                 mov.w   #h'0001, r1
18ec: 6f74 0056                 mov.w   @(h'56, sp), r4
18f0: 1d41                      cmp.w   r4, r1
18f2: 58e0 00b0                 bgt     h'0019a6
18f6: 18dd                      sub.b   r5l, r5l
18f8: 6efd 001f                 mov.b   r5l, @(h'1f, sp)
18fc: 1944                      sub.w   r4, r4
18fe: 6ff4 0016                 mov.w   r4, @(h'16, sp)
1902: 6e7d 003e                 mov.b   @(h'3e, sp), r5l
1906: f500                      mov.b   #h'00, r5h
1908: 6ff5 0026                 mov.w   r5, @(h'26, sp)
190c: 1d54                      cmp.w   r5, r4
190e: 4462                      bcc     h'001972
1910: 6f72 0016                 mov.w   @(h'16, sp), r2
1914: 1772                      extu.l  er2
1916: 7a16 0000 0286            add.l   #h'00000286, er6
191c: 0fe3                      mov.l   er6, er3
191e: 0aa3                      add.l   er2, er3
1920: 7a16 ffff fd7a            add.l   #h'fffffd7a, er6
1926: 683a                      mov.b   @er3, r2l
1928: aaff                      cmp.b   #h'ff, r2l
192a: 4734                      beq     h'001960
192c: 0ca8                      mov.b   r2l, r0l
192e: f000                      mov.b   #h'00, r0h
1930: 6f72 0016                 mov.w   @(h'16, sp), r2
1934: 5212                      mulxu.w r1, er2
1936: 0920                      add.w   r2, r0
1938: 0100 6ff1 0020            mov.l   er1, @(h'20, sp)
193e: 5e00 1660                 jsr     h'001660
1942: 0c8a                      mov.b   r0l, r2l
1944: f200                      mov.b   #h'00, r2h
1946: 1772                      extu.l  er2
1948: 7820 6a2a 0000 0170       mov.b   @(h'170, er2), r2l
1950: 6e7c 001f                 mov.b   @(h'1f, sp), r4l
1954: 15ac                      xor.b   r2l, r4l
1956: 6efc 001f                 mov.b   r4l, @(h'1f, sp)
195a: 0100 6f71 0020            mov.l   @(h'20, sp), er1
1960: 6f75 0016                 mov.w   @(h'16, sp), r5
1964: 0b05                      adds.l  #1, er5
1966: 6ff5 0016                 mov.w   r5, @(h'16, sp)
196a: 6f74 0026                 mov.w   @(h'26, sp), r4
196e: 1d45                      cmp.w   r4, r5
1970: 459e                      bcs     h'001910
1972: 6e7d 0042                 mov.b   @(h'42, sp), r5l
1976: 6e7c 001f                 mov.b   @(h'1f, sp), r4l
197a: 14cd                      or.b    r4l, r5l
197c: 6efd 0042                 mov.b   r5l, @(h'42, sp)
1980: 0d12                      mov.w   r1, r2
1982: 17f2                      exts.l  er2
1984: 0fe3                      mov.l   er6, er3
1986: 0aa3                      add.l   er2, er3
1988: 0cca                      mov.b   r4l, r2l
198a: f200                      mov.b   #h'00, r2h
198c: 1772                      extu.l  er2
198e: 7820 6a2a 0000 0270       mov.b   @(h'270, er2), r2l
1996: 6eba 0051                 mov.b   r2l, @(h'51, er3)
199a: 0b01                      adds.l  #1, er1
199c: 6f75 0056                 mov.w   @(h'56, sp), r5
19a0: 1d51                      cmp.w   r5, r1
19a2: 58f0 ff50                 ble     h'0018f6
19a6: 6e7c 0042                 mov.b   @(h'42, sp), r4l
19aa: 4606                      bne     h'0019b2
19ac: 1900                      sub.w   r0, r0
19ae: 5800 068a                 bt      h'00203c
19b2: 6f75 0056                 mov.w   @(h'56, sp), r5
19b6: 17f5                      exts.l  er5
19b8: 0100 6ff5 0034            mov.l   er5, @(h'34, sp)
19be: 0100 6ff6 0030            mov.l   er6, @(h'30, sp)
19c4: 0fe4                      mov.l   er6, er4
19c6: 0b04                      adds.l  #1, er4
19c8: 0100 6ff4 0030            mov.l   er4, @(h'30, sp)
19ce: 0100 6f72 0034            mov.l   @(h'34, sp), er2
19d4: 1911                      sub.w   r1, r1
19d6: 0100 6f70 0030            mov.l   @(h'30, sp), er0
19dc: 5e00 11fc                 jsr     h'0011fc
19e0: fa01                      mov.b   #h'01, r2l
19e2: 68ea                      mov.b   r2l, @er6
19e4: 7a16 0000 00a3            add.l   #h'000000a3, er6
19ea: 1aa2                      sub.l   er2, er2
19ec: 8a50                      add.b   #h'50, r2l
19ee: 7901 00ff                 mov.w   #h'00ff, r1
19f2: 0fe0                      mov.l   er6, er0
19f4: 7a16 ffff ff5d            add.l   #h'ffffff5d, er6
19fa: 5e00 11fc                 jsr     h'0011fc
19fe: 18aa                      sub.b   r2l, r2l
1a00: 6eea 00a2                 mov.b   r2l, @(h'a2, er6)
1a04: 18dd                      sub.b   r5l, r5l
1a06: 6efd 0040                 mov.b   r5l, @(h'40, sp)
1a0a: 7904 0001                 mov.w   #h'0001, r4
1a0e: 5800 024e                 bt      h'001c60
1a12: 18cc                      sub.b   r4l, r4l
1a14: 6efc 0043                 mov.b   r4l, @(h'43, sp)
1a18: 1911                      sub.w   r1, r1
1a1a: 406a                      bt      h'001a86
1a1c: 0d12                      mov.w   r1, r2
1a1e: 1772                      extu.l  er2
1a20: 0fe0                      mov.l   er6, er0
1a22: 0aa0                      add.l   er2, er0
1a24: 680a                      mov.b   @er0, r2l
1a26: 475c                      beq     h'001a84
1a28: 6f72 003a                 mov.w   @(h'3a, sp), r2
1a2c: 1912                      sub.w   r1, r2
1a2e: 1772                      extu.l  er2
1a30: 7a16 0000 0051            add.l   #h'00000051, er6
1a36: 0fe3                      mov.l   er6, er3
1a38: 0aa3                      add.l   er2, er3
1a3a: 7a16 ffff ffaf            add.l   #h'ffffffaf, er6
1a40: 683a                      mov.b   @er3, r2l
1a42: aaff                      cmp.b   #h'ff, r2l
1a44: 473e                      beq     h'001a84
1a46: 680a                      mov.b   @er0, r2l
1a48: f200                      mov.b   #h'00, r2h
1a4a: 1772                      extu.l  er2
1a4c: 7820 6a28 0000 0270       mov.b   @(h'270, er2), r0l
1a54: f000                      mov.b   #h'00, r0h
1a56: 683a                      mov.b   @er3, r2l
1a58: f200                      mov.b   #h'00, r2h
1a5a: 0920                      add.w   r2, r0
1a5c: 0100 6ff1 0020            mov.l   er1, @(h'20, sp)
1a62: 5e00 1660                 jsr     h'001660
1a66: 0c8a                      mov.b   r0l, r2l
1a68: f200                      mov.b   #h'00, r2h
1a6a: 1772                      extu.l  er2
1a6c: 7820 6a2a 0000 0170       mov.b   @(h'170, er2), r2l
1a74: 6e7c 0043                 mov.b   @(h'43, sp), r4l
1a78: 15ac                      xor.b   r2l, r4l
1a7a: 6efc 0043                 mov.b   r4l, @(h'43, sp)
1a7e: 0100 6f71 0020            mov.l   @(h'20, sp), er1
1a84: 0b01                      adds.l  #1, er1
1a86: 6f75 003a                 mov.w   @(h'3a, sp), r5
1a8a: 1d51                      cmp.w   r5, r1
1a8c: 458e                      bcs     h'001a1c
1a8e: 6e7a 0043                 mov.b   @(h'43, sp), r2l
1a92: f200                      mov.b   #h'00, r2h
1a94: 1772                      extu.l  er2
1a96: 7a04 0000 0270            mov.l   #h'00000270, er4
1a9c: 0100 6ff4 002c            mov.l   er4, @(h'2c, sp)
1aa2: 7820 6a2a 0000 0270       mov.b   @(h'270, er2), r2l
1aaa: 6efa 0043                 mov.b   r2l, @(h'43, sp)
1aae: aaff                      cmp.b   #h'ff, r2l
1ab0: 462a                      bne     h'001adc
1ab2: 6f70 0056                 mov.w   @(h'56, sp), r0
1ab6: 4f1a                      ble     h'001ad2
1ab8: 0d02                      mov.w   r0, r2
1aba: 17f2                      exts.l  er2
1abc: 7a12 0000 00a2            add.l   #h'000000a2, er2
1ac2: 0fe3                      mov.l   er6, er3
1ac4: 0aa3                      add.l   er2, er3
1ac6: 6e3a ffff                 mov.b   @(h'ffff, er3), r2l
1aca: 68ba                      mov.b   r2l, @er3
1acc: 1b00                      subs.l  #1, er0
1ace: 0d00                      mov.w   r0, r0
1ad0: 4ee6                      bgt     h'001ab8
1ad2: faff                      mov.b   #h'ff, r2l
1ad4: 6eea 00a2                 mov.b   r2l, @(h'a2, er6)
1ad8: 5800 017e                 bt      h'001c5a
1adc: 686a                      mov.b   @er6, r2l
1ade: 6eea 00f3                 mov.b   r2l, @(h'f3, er6)
1ae2: 1911                      sub.w   r1, r1
1ae4: 5800 008e                 bt      h'001b76
1ae8: 0d12                      mov.w   r1, r2
1aea: 1772                      extu.l  er2
1aec: 7a16 0000 00a2            add.l   #h'000000a2, er6
1af2: 0fe3                      mov.l   er6, er3
1af4: 0aa3                      add.l   er2, er3
1af6: 7a16 ffff ff5e            add.l   #h'ffffff5e, er6
1afc: 683a                      mov.b   @er3, r2l
1afe: 6ff1 0018                 mov.w   r1, @(h'18, sp)
1b02: 0d14                      mov.w   r1, r4
1b04: 0b04                      adds.l  #1, er4
1b06: 6ff4 0018                 mov.w   r4, @(h'18, sp)
1b0a: 0100 6ff6 0010            mov.l   er6, @(h'10, sp)
1b10: 0fe5                      mov.l   er6, er5
1b12: 7a15 0000 00f3            add.l   #h'000000f3, er5
1b18: 0100 6ff5 0010            mov.l   er5, @(h'10, sp)
1b1e: aaff                      cmp.b   #h'ff, r2l
1b20: 473c                      beq     h'001b5e
1b22: 6e78 0043                 mov.b   @(h'43, sp), r0l
1b26: f000                      mov.b   #h'00, r0h
1b28: 683a                      mov.b   @er3, r2l
1b2a: f200                      mov.b   #h'00, r2h
1b2c: 0920                      add.w   r2, r0
1b2e: 0100 6ff1 0020            mov.l   er1, @(h'20, sp)
1b34: 5e00 1660                 jsr     h'001660
1b38: 0d42                      mov.w   r4, r2
1b3a: 1772                      extu.l  er2
1b3c: 0aa5                      add.l   er2, er5
1b3e: 0fe3                      mov.l   er6, er3
1b40: 0aa3                      add.l   er2, er3
1b42: 0c8a                      mov.b   r0l, r2l
1b44: f200                      mov.b   #h'00, r2h
1b46: 1772                      extu.l  er2
1b48: 7820 6a2a 0000 0170       mov.b   @(h'170, er2), r2l
1b50: 683b                      mov.b   @er3, r3l
1b52: 15ba                      xor.b   r3l, r2l
1b54: 68da                      mov.b   r2l, @er5
1b56: 0100 6f71 0020            mov.l   @(h'20, sp), er1
1b5c: 4016                      bt      h'001b74
1b5e: 6f72 0018                 mov.w   @(h'18, sp), r2
1b62: 1772                      extu.l  er2
1b64: 0100 6f74 0010            mov.l   @(h'10, sp), er4
1b6a: 0aa4                      add.l   er2, er4
1b6c: 0fe3                      mov.l   er6, er3
1b6e: 0aa3                      add.l   er2, er3
1b70: 683a                      mov.b   @er3, r2l
1b72: 68ca                      mov.b   r2l, @er4
1b74: 0b01                      adds.l  #1, er1
1b76: 6f75 0056                 mov.w   @(h'56, sp), r5
1b7a: 1d51                      cmp.w   r5, r1
1b7c: 5850 ff68                 bcs     h'001ae8
1b80: 6e7b 0040                 mov.b   @(h'40, sp), r3l
1b84: f300                      mov.b   #h'00, r3h
1b86: 0933                      add.w   r3, r3
1b88: 6f72 003a                 mov.w   @(h'3a, sp), r2
1b8c: 1b02                      subs.l  #1, er2
1b8e: 1d23                      cmp.w   r2, r3
1b90: 58e0 0082                 bgt     h'001c16
1b94: 6e7c 003b                 mov.b   @(h'3b, sp), r4l
1b98: 6e7d 0040                 mov.b   @(h'40, sp), r5l
1b9c: 18dc                      sub.b   r5l, r4l
1b9e: 6efc 0040                 mov.b   r4l, @(h'40, sp)
1ba2: 1944                      sub.w   r4, r4
1ba4: 6ff4 0016                 mov.w   r4, @(h'16, sp)
1ba8: 6f75 0056                 mov.w   @(h'56, sp), r5
1bac: 1d54                      cmp.w   r5, r4
1bae: 5820 008a                 bhi     h'001c3c
1bb2: 6f72 0016                 mov.w   @(h'16, sp), r2
1bb6: 1772                      extu.l  er2
1bb8: 7a16 0000 00a2            add.l   #h'000000a2, er6
1bbe: 0fe1                      mov.l   er6, er1
1bc0: 0aa1                      add.l   er2, er1
1bc2: 7a16 ffff ff5e            add.l   #h'ffffff5e, er6
1bc8: 0fe3                      mov.l   er6, er3
1bca: 0aa3                      add.l   er2, er3
1bcc: 683a                      mov.b   @er3, r2l
1bce: 472e                      beq     h'001bfe
1bd0: f200                      mov.b   #h'00, r2h
1bd2: 1772                      extu.l  er2
1bd4: 0100 6f74 002c            mov.l   @(h'2c, sp), er4
1bda: 0ac2                      add.l   er4, er2
1bdc: 6828                      mov.b   @er2, r0l
1bde: f000                      mov.b   #h'00, r0h
1be0: 6e7a 0043                 mov.b   @(h'43, sp), r2l
1be4: f200                      mov.b   #h'00, r2h
1be6: 1920                      sub.w   r2, r0
1be8: 7910 00ff                 add.w   #h'00ff, r0
1bec: 0100 6ff1 0020            mov.l   er1, @(h'20, sp)
1bf2: 5e00 1660                 jsr     h'001660
1bf6: 0100 6f71 0020            mov.l   @(h'20, sp), er1
1bfc: 4002                      bt      h'001c00
1bfe: f8ff                      mov.b   #h'ff, r0l
1c00: 6898                      mov.b   r0l, @er1
1c02: 6f75 0016                 mov.w   @(h'16, sp), r5
1c06: 0b05                      adds.l  #1, er5
1c08: 6ff5 0016                 mov.w   r5, @(h'16, sp)
1c0c: 6f74 0056                 mov.w   @(h'56, sp), r4
1c10: 1d45                      cmp.w   r4, r5
1c12: 439e                      bls     h'001bb2
1c14: 4026                      bt      h'001c3c
1c16: 6f70 0056                 mov.w   @(h'56, sp), r0
1c1a: 4f1a                      ble     h'001c36
1c1c: 0d02                      mov.w   r0, r2
1c1e: 17f2                      exts.l  er2
1c20: 7a12 0000 00a2            add.l   #h'000000a2, er2
1c26: 0fe3                      mov.l   er6, er3
1c28: 0aa3                      add.l   er2, er3
1c2a: 6e3a ffff                 mov.b   @(h'ffff, er3), r2l
1c2e: 68ba                      mov.b   r2l, @er3
1c30: 1b00                      subs.l  #1, er0
1c32: 0d00                      mov.w   r0, r0
1c34: 4ee6                      bgt     h'001c1c
1c36: faff                      mov.b   #h'ff, r2l
1c38: 6eea 00a2                 mov.b   r2l, @(h'a2, er6)
1c3c: 6f75 0056                 mov.w   @(h'56, sp), r5
1c40: 0b05                      adds.l  #1, er5
1c42: 0d52                      mov.w   r5, r2
1c44: 17f2                      exts.l  er2
1c46: 1b05                      subs.l  #1, er5
1c48: 6ff5 0056                 mov.w   r5, @(h'56, sp)
1c4c: 0fe1                      mov.l   er6, er1
1c4e: 7a11 0000 00f3            add.l   #h'000000f3, er1
1c54: 0fe0                      mov.l   er6, er0
1c56: 5e00 120c                 jsr     h'00120c
1c5a: 6f74 003a                 mov.w   @(h'3a, sp), r4
1c5e: 0b04                      adds.l  #1, er4
1c60: 6ff4 003a                 mov.w   r4, @(h'3a, sp)
1c64: 6f75 0056                 mov.w   @(h'56, sp), r5
1c68: 1d54                      cmp.w   r5, r4
1c6a: 58f0 fda4                 ble     h'001a12
1c6e: 18cc                      sub.b   r4l, r4l
1c70: 6efc 0041                 mov.b   r4l, @(h'41, sp)
1c74: 1900                      sub.w   r0, r0
1c76: 6f75 0056                 mov.w   @(h'56, sp), r5
1c7a: 1d50                      cmp.w   r5, r0
1c7c: 422a                      bhi     h'001ca8
1c7e: 0d02                      mov.w   r0, r2
1c80: 1772                      extu.l  er2
1c82: 0fe3                      mov.l   er6, er3
1c84: 0aa3                      add.l   er2, er3
1c86: 683a                      mov.b   @er3, r2l
1c88: f200                      mov.b   #h'00, r2h
1c8a: 1772                      extu.l  er2
1c8c: 7820 6a2a 0000 0270       mov.b   @(h'270, er2), r2l
1c94: 68ba                      mov.b   r2l, @er3
1c96: aaff                      cmp.b   #h'ff, r2l
1c98: 4704                      beq     h'001c9e
1c9a: 6ef8 0041                 mov.b   r0l, @(h'41, sp)
1c9e: 0b00                      adds.l  #1, er0
1ca0: 6f74 0056                 mov.w   @(h'56, sp), r4
1ca4: 1d40                      cmp.w   r4, r0
1ca6: 43d6                      bls     h'001c7e
1ca8: 7a16 0000 01e6            add.l   #h'000001e6, er6
1cae: 0100 6f72 0034            mov.l   @(h'34, sp), er2
1cb4: 0100 6f71 0030            mov.l   @(h'30, sp), er1
1cba: 0fe0                      mov.l   er6, er0
1cbc: 7a16 ffff fe1a            add.l   #h'fffffe1a, er6
1cc2: 5e00 120c                 jsr     h'00120c
1cc6: 1955                      sub.w   r5, r5
1cc8: 6ff5 0038                 mov.w   r5, @(h'38, sp)
1ccc: 7901 0001                 mov.w   #h'0001, r1
1cd0: fc01                      mov.b   #h'01, r4l
1cd2: 6efc 0045                 mov.b   r4l, @(h'45, sp)
1cd6: 6e7d 0041                 mov.b   @(h'41, sp), r5l
1cda: f500                      mov.b   #h'00, r5h
1cdc: 6ff5 0024                 mov.w   r5, @(h'24, sp)
1ce0: 6f73 0024                 mov.w   @(h'24, sp), r3
1ce4: 0d55                      mov.w   r5, r5
1ce6: 4f68                      ble     h'001d50
1ce8: 0d32                      mov.w   r3, r2
1cea: 17f2                      exts.l  er2
1cec: 7a16 0000 01e5            add.l   #h'000001e5, er6
1cf2: 0100 6ff6 0010            mov.l   er6, @(h'10, sp)
1cf8: 0fe4                      mov.l   er6, er4
1cfa: 0aa4                      add.l   er2, er4
1cfc: 0100 6ff4 0010            mov.l   er4, @(h'10, sp)
1d02: 7a16 ffff fe1b            add.l   #h'fffffe1b, er6
1d08: 684a                      mov.b   @er4, r2l
1d0a: aaff                      cmp.b   #h'ff, r2l
1d0c: 473c                      beq     h'001d4a
1d0e: 6848                      mov.b   @er4, r0l
1d10: f000                      mov.b   #h'00, r0h
1d12: 0930                      add.w   r3, r0
1d14: 0100 6ff1 0020            mov.l   er1, @(h'20, sp)
1d1a: 0100 6ff3 000c            mov.l   er3, @(h'c, sp)
1d20: 5e00 1660                 jsr     h'001660
1d24: 68c8                      mov.b   r0l, @er4
1d26: 684a                      mov.b   @er4, r2l
1d28: f200                      mov.b   #h'00, r2h
1d2a: 1772                      extu.l  er2
1d2c: 7820 6a2a 0000 0170       mov.b   @(h'170, er2), r2l
1d34: 6e7d 0045                 mov.b   @(h'45, sp), r5l
1d38: 15ad                      xor.b   r2l, r5l
1d3a: 6efd 0045                 mov.b   r5l, @(h'45, sp)
1d3e: 0100 6f73 000c            mov.l   @(h'c, sp), er3
1d44: 0100 6f71 0020            mov.l   @(h'20, sp), er1
1d4a: 1b03                      subs.l  #1, er3
1d4c: 0d33                      mov.w   r3, r3
1d4e: 4e98                      bgt     h'001ce8
1d50: 6e7c 0045                 mov.b   @(h'45, sp), r4l
1d54: 4624                      bne     h'001d7a
1d56: 6f73 0038                 mov.w   @(h'38, sp), r3
1d5a: 17f3                      exts.l  er3
1d5c: 0fe2                      mov.l   er6, er2
1d5e: 0ab2                      add.l   er3, er2
1d60: 6ea9 0195                 mov.b   r1l, @(h'195, er2)
1d64: 0fe2                      mov.l   er6, er2
1d66: 0ab2                      add.l   er3, er2
1d68: 0c9b                      mov.b   r1l, r3l
1d6a: 170b                      not.b   r3l
1d6c: 6eab 0236                 mov.b   r3l, @(h'236, er2)
1d70: 6f75 0038                 mov.w   @(h'38, sp), r5
1d74: 0b05                      adds.l  #1, er5
1d76: 6ff5 0038                 mov.w   r5, @(h'38, sp)
1d7a: 0b01                      adds.l  #1, er1
1d7c: 7921 00ff                 cmp.w   #h'00ff, r1
1d80: 58f0 ff4c                 ble     h'001cd0
1d84: 6f74 0024                 mov.w   @(h'24, sp), r4
1d88: 6f75 0038                 mov.w   @(h'38, sp), r5
1d8c: 1d54                      cmp.w   r5, r4
1d8e: 4708                      beq     h'001d98
1d90: 7900 ffff                 mov.w   #h'ffff, r0
1d94: 5800 02a4                 bt      h'00203c
1d98: 18cc                      sub.b   r4l, r4l
1d9a: 6efc 003f                 mov.b   r4l, @(h'3f, sp)
1d9e: 1911                      sub.w   r1, r1
1da0: 6f75 0056                 mov.w   @(h'56, sp), r5
1da4: 1d51                      cmp.w   r5, r1
1da6: 58c0 00c4                 bge     h'001e6e
1daa: 18cc                      sub.b   r4l, r4l
1dac: 6efc 001f                 mov.b   r4l, @(h'1f, sp)
1db0: 6ff1 003c                 mov.w   r1, @(h'3c, sp)
1db4: 6f75 0024                 mov.w   @(h'24, sp), r5
1db8: 1d51                      cmp.w   r5, r1
1dba: 4f04                      ble     h'001dc0
1dbc: 6ff5 003c                 mov.w   r5, @(h'3c, sp)
1dc0: 6f74 003c                 mov.w   @(h'3c, sp), r4
1dc4: 4d76                      blt     h'001e3c
1dc6: 6f75 003c                 mov.w   @(h'3c, sp), r5
1dca: 6ff5 0010                 mov.w   r5, @(h'10, sp)
1dce: 0d54                      mov.w   r5, r4
1dd0: 1b04                      subs.l  #1, er4
1dd2: 6ff4 0010                 mov.w   r4, @(h'10, sp)
1dd6: 0d12                      mov.w   r1, r2
1dd8: 1942                      sub.w   r4, r2
1dda: 17f2                      exts.l  er2
1ddc: 7a16 0000 0051            add.l   #h'00000051, er6
1de2: 0fe0                      mov.l   er6, er0
1de4: 0aa0                      add.l   er2, er0
1de6: 7a16 ffff ffaf            add.l   #h'ffffffaf, er6
1dec: 680a                      mov.b   @er0, r2l
1dee: aaff                      cmp.b   #h'ff, r2l
1df0: 473e                      beq     h'001e30
1df2: 0d52                      mov.w   r5, r2
1df4: 17f2                      exts.l  er2
1df6: 0fe3                      mov.l   er6, er3
1df8: 0aa3                      add.l   er2, er3
1dfa: 683a                      mov.b   @er3, r2l
1dfc: aaff                      cmp.b   #h'ff, r2l
1dfe: 4730                      beq     h'001e30
1e00: 6808                      mov.b   @er0, r0l
1e02: f000                      mov.b   #h'00, r0h
1e04: f200                      mov.b   #h'00, r2h
1e06: 0920                      add.w   r2, r0
1e08: 0100 6ff1 0020            mov.l   er1, @(h'20, sp)
1e0e: 5e00 1660                 jsr     h'001660
1e12: 0c8a                      mov.b   r0l, r2l
1e14: f200                      mov.b   #h'00, r2h
1e16: 1772                      extu.l  er2
1e18: 7820 6a2a 0000 0170       mov.b   @(h'170, er2), r2l
1e20: 6e7d 001f                 mov.b   @(h'1f, sp), r5l
1e24: 15ad                      xor.b   r2l, r5l
1e26: 6efd 001f                 mov.b   r5l, @(h'1f, sp)
1e2a: 0100 6f71 0020            mov.l   @(h'20, sp), er1
1e30: 6f74 0010                 mov.w   @(h'10, sp), r4
1e34: 6ff4 003c                 mov.w   r4, @(h'3c, sp)
1e38: 0d44                      mov.w   r4, r4
1e3a: 4c8a                      bge     h'001dc6
1e3c: 6e7d 001f                 mov.b   @(h'1f, sp), r5l
1e40: 4704                      beq     h'001e46
1e42: 6ef9 003f                 mov.b   r1l, @(h'3f, sp)
1e46: 0d12                      mov.w   r1, r2
1e48: 17f2                      exts.l  er2
1e4a: 0fe3                      mov.l   er6, er3
1e4c: 0aa3                      add.l   er2, er3
1e4e: 6e7a 001f                 mov.b   @(h'1f, sp), r2l
1e52: f200                      mov.b   #h'00, r2h
1e54: 1772                      extu.l  er2
1e56: 7820 6a2a 0000 0270       mov.b   @(h'270, er2), r2l
1e5e: 6eba 0144                 mov.b   r2l, @(h'144, er3)
1e62: 0b01                      adds.l  #1, er1
1e64: 6f74 0056                 mov.w   @(h'56, sp), r4
1e68: 1d41                      cmp.w   r4, r1
1e6a: 58d0 ff3c                 blt     h'001daa
1e6e: 0100 6ff6 0028            mov.l   er6, @(h'28, sp)
1e74: 0fe5                      mov.l   er6, er5
1e76: 7a15 0000 0144            add.l   #h'00000144, er5
1e7c: 0100 6ff5 0028            mov.l   er5, @(h'28, sp)
1e82: 0100 6f72 0028            mov.l   @(h'28, sp), er2
1e88: 0100 6f74 0034            mov.l   @(h'34, sp), er4
1e8e: 0ac2                      add.l   er4, er2
1e90: fbff                      mov.b   #h'ff, r3l
1e92: 68ab                      mov.b   r3l, @er2
1e94: 6f75 0038                 mov.w   @(h'38, sp), r5
1e98: 6ff5 003c                 mov.w   r5, @(h'3c, sp)
1e9c: 0d54                      mov.w   r5, r4
1e9e: 5800 018a                 bt      h'00202c
1ea2: 18dd                      sub.b   r5l, r5l
1ea4: 6efd 0044                 mov.b   r5l, @(h'44, sp)
1ea8: 6f74 003c                 mov.w   @(h'3c, sp), r4
1eac: 17f4                      exts.l  er4
1eae: 0100 6ff4 0018            mov.l   er4, @(h'18, sp)
1eb4: 0fe2                      mov.l   er6, er2
1eb6: 0ac2                      add.l   er4, er2
1eb8: 6e2a 0195                 mov.b   @(h'195, er2), r2l
1ebc: 6efa 0045                 mov.b   r2l, @(h'45, sp)
1ec0: 6e79 003f                 mov.b   @(h'3f, sp), r1l
1ec4: f100                      mov.b   #h'00, r1h
1ec6: 0d11                      mov.w   r1, r1
1ec8: 4d50                      blt     h'001f1a
1eca: 0d12                      mov.w   r1, r2
1ecc: 17f2                      exts.l  er2
1ece: 0100 6f73 0028            mov.l   @(h'28, sp), er3
1ed4: 0aa3                      add.l   er2, er3
1ed6: 683a                      mov.b   @er3, r2l
1ed8: aaff                      cmp.b   #h'ff, r2l
1eda: 4738                      beq     h'001f14
1edc: 0ca8                      mov.b   r2l, r0l
1ede: f000                      mov.b   #h'00, r0h
1ee0: 6e7a 0045                 mov.b   @(h'45, sp), r2l
1ee4: f200                      mov.b   #h'00, r2h
1ee6: 01c0 5212                 mulxs.w r1, er2
1eea: 0920                      add.w   r2, r0
1eec: 0100 6ff1 0020            mov.l   er1, @(h'20, sp)
1ef2: 5e00 1660                 jsr     h'001660
1ef6: 0c8a                      mov.b   r0l, r2l
1ef8: f200                      mov.b   #h'00, r2h
1efa: 1772                      extu.l  er2
1efc: 7820 6a2a 0000 0170       mov.b   @(h'170, er2), r2l
1f04: 6e7d 0044                 mov.b   @(h'44, sp), r5l
1f08: 15ad                      xor.b   r2l, r5l
1f0a: 6efd 0044                 mov.b   r5l, @(h'44, sp)
1f0e: 0100 6f71 0020            mov.l   @(h'20, sp), er1
1f14: 1b01                      subs.l  #1, er1
1f16: 0d11                      mov.w   r1, r1
1f18: 4cb0                      bge     h'001eca
1f1a: 1899                      sub.b   r1l, r1l
1f1c: 6e7b 0041                 mov.b   @(h'41, sp), r3l
1f20: f300                      mov.b   #h'00, r3h
1f22: 6f72 0056                 mov.w   @(h'56, sp), r2
1f26: 1b02                      subs.l  #1, er2
1f28: 1d32                      cmp.w   r3, r2
1f2a: 4f02                      ble     h'001f2e
1f2c: 0d32                      mov.w   r3, r2
1f2e: eafe                      and.b   #h'fe, r2l
1f30: 6ff2 0010                 mov.w   r2, @(h'10, sp)
1f34: 0d22                      mov.w   r2, r2
1f36: 4d58                      blt     h'001f90
1f38: 6f74 0010                 mov.w   @(h'10, sp), r4
1f3c: 0b04                      adds.l  #1, er4
1f3e: 0d42                      mov.w   r4, r2
1f40: 17f2                      exts.l  er2
1f42: 1b04                      subs.l  #1, er4
1f44: 6ff4 0010                 mov.w   r4, @(h'10, sp)
1f48: 0fe3                      mov.l   er6, er3
1f4a: 0aa3                      add.l   er2, er3
1f4c: 683a                      mov.b   @er3, r2l
1f4e: aaff                      cmp.b   #h'ff, r2l
1f50: 4730                      beq     h'001f82
1f52: 0ca8                      mov.b   r2l, r0l
1f54: f000                      mov.b   #h'00, r0h
1f56: 6e7a 0045                 mov.b   @(h'45, sp), r2l
1f5a: f200                      mov.b   #h'00, r2h
1f5c: 01c0 5242                 mulxs.w r4, er2
1f60: 0920                      add.w   r2, r0
1f62: 0100 6ff1 0020            mov.l   er1, @(h'20, sp)
1f68: 5e00 1660                 jsr     h'001660
1f6c: 0c8a                      mov.b   r0l, r2l
1f6e: f200                      mov.b   #h'00, r2h
1f70: 1772                      extu.l  er2
1f72: 7820 6a2a 0000 0170       mov.b   @(h'170, er2), r2l
1f7a: 0100 6f71 0020            mov.l   @(h'20, sp), er1
1f80: 15a9                      xor.b   r2l, r1l
1f82: 6f75 0010                 mov.w   @(h'10, sp), r5
1f86: 1b85                      subs.l  #2, er5
1f88: 6ff5 0010                 mov.w   r5, @(h'10, sp)
1f8c: 0d55                      mov.w   r5, r5
1f8e: 4ca8                      bge     h'001f38
1f90: 0c99                      mov.b   r1l, r1l
1f92: 5870 fdfa                 beq     h'001d90
1f96: 6e7c 0044                 mov.b   @(h'44, sp), r4l
1f9a: 5870 008a                 beq     h'002028
1f9e: 7a16 0000 0236            add.l   #h'00000236, er6
1fa4: 0fe2                      mov.l   er6, er2
1fa6: 0100 6f75 0018            mov.l   @(h'18, sp), er5
1fac: 0ad2                      add.l   er5, er2
1fae: 7a16 ffff fdca            add.l   #h'fffffdca, er6
1fb4: 682b                      mov.b   @er2, r3l
1fb6: f300                      mov.b   #h'00, r3h
1fb8: 682a                      mov.b   @er2, r2l
1fba: 6f74 0056                 mov.w   @(h'56, sp), r4
1fbe: 1d43                      cmp.w   r4, r3
1fc0: 4d0c                      blt     h'001fce
1fc2: 6e7d 0057                 mov.b   @(h'57, sp), r5l
1fc6: 18da                      sub.b   r5l, r2l
1fc8: 6efa 001f                 mov.b   r2l, @(h'1f, sp)
1fcc: 400a                      bt      h'001fd8
1fce: 6e7c 0047                 mov.b   @(h'47, sp), r4l
1fd2: 08ac                      add.b   r2l, r4l
1fd4: 6efc 001f                 mov.b   r4l, @(h'1f, sp)
1fd8: 6e7a 0044                 mov.b   @(h'44, sp), r2l
1fdc: f200                      mov.b   #h'00, r2h
1fde: 1772                      extu.l  er2
1fe0: 7820 6a28 0000 0270       mov.b   @(h'270, er2), r0l
1fe8: f000                      mov.b   #h'00, r0h
1fea: 0c9a                      mov.b   r1l, r2l
1fec: f200                      mov.b   #h'00, r2h
1fee: 1772                      extu.l  er2
1ff0: 7820 6a2a 0000 0270       mov.b   @(h'270, er2), r2l
1ff8: f200                      mov.b   #h'00, r2h
1ffa: 7912 ff01                 add.w   #h'ff01, r2
1ffe: 1920                      sub.w   r2, r0
2000: 5e00 1660                 jsr     h'001660
2004: 6e7a 001f                 mov.b   @(h'1f, sp), r2l
2008: f200                      mov.b   #h'00, r2h
200a: 1772                      extu.l  er2
200c: 0100 6f73 0048            mov.l   @(h'48, sp), er3
2012: 0aa3                      add.l   er2, er3
2014: 0c8a                      mov.b   r0l, r2l
2016: f200                      mov.b   #h'00, r2h
2018: 1772                      extu.l  er2
201a: 7820 6a2a 0000 0170       mov.b   @(h'170, er2), r2l
2022: 683d                      mov.b   @er3, r5l
2024: 15da                      xor.b   r5l, r2l
2026: 68ba                      mov.b   r2l, @er3
2028: 6f74 003c                 mov.w   @(h'3c, sp), r4
202c: 1b04                      subs.l  #1, er4
202e: 6ff4 003c                 mov.w   r4, @(h'3c, sp)
2032: 0d44                      mov.w   r4, r4
2034: 58c0 fe6a                 bge     h'001ea2
2038: 6f70 0038                 mov.w   @(h'38, sp), r0
203c: 0120 6d76                 ldm.l   @sp+, er4-er6
2040: 7a17 0000 0040            add.l   #h'00000040, sp
2046: 5470                      rts
2048: 1b97                      subs.l  #4, sp
204a: 1b97                      subs.l  #4, sp
204c: 0120 6df4                 stm.l   er4-er6, @-sp
2050: 6ff1 000e                 mov.w   r1, @(h'e, sp)
2054: 0d24                      mov.w   r2, r4
2056: 0d12                      mov.w   r1, r2
2058: 17f2                      exts.l  er2
205a: 7820 6a2e 00ff ed04       mov.b   @(h'ffed04, er2), r6l
2062: 0d15                      mov.w   r1, r5
2064: 1b05                      subs.l  #1, er5
2066: 6ff5 000e                 mov.w   r5, @(h'e, sp)
206a: 6f72 000e                 mov.w   @(h'e, sp), r2
206e: 0942                      add.w   r4, r2
2070: 0b05                      adds.l  #1, er5
2072: 6ff5 000e                 mov.w   r5, @(h'e, sp)
2076: 0d23                      mov.w   r2, r3
2078: 0d22                      mov.w   r2, r2
207a: 4c04                      bge     h'002080
207c: 0b83                      adds.l  #2, er3
207e: 0b03                      adds.l  #1, er3
2080: ebfc                      and.b   #h'fc, r3l
2082: 1932                      sub.w   r3, r2
2084: 17f2                      exts.l  er2
2086: 7820 6a2a 00ff ed08       mov.b   @(h'ffed08, er2), r2l
208e: 6efa 0013                 mov.b   r2l, @(h'13, sp)
2092: 6f72 001a                 mov.w   @(h'1a, sp), r2
2096: 17f2                      exts.l  er2
2098: 7820 6a29 00ff ed0c       mov.b   @(h'ffed0c, er2), r1l
20a0: 1b94                      subs.l  #4, er4
20a2: 6f75 000e                 mov.w   @(h'e, sp), r5
20a6: 0954                      add.w   r5, r4
20a8: 6e7a 001f                 mov.b   @(h'1f, sp), r2l
20ac: 4636                      bne     h'0020e4
20ae: 0d44                      mov.w   r4, r4
20b0: 4f1c                      ble     h'0020ce
20b2: 0cea                      mov.b   r6l, r2l
20b4: 170a                      not.b   r2l
20b6: 680d                      mov.b   @er0, r5l
20b8: 16da                      and.b   r5l, r2l
20ba: 169e                      and.b   r1l, r6l
20bc: 14ea                      or.b    r6l, r2l
20be: 688a                      mov.b   r2l, @er0
20c0: feff                      mov.b   #h'ff, r6l
20c2: 0b00                      adds.l  #1, er0
20c4: 1b94                      subs.l  #4, er4
20c6: 0d44                      mov.w   r4, r4
20c8: 4f04                      ble     h'0020ce
20ca: 6889                      mov.b   r1l, @er0
20cc: 40f4                      bt      h'0020c2
20ce: 6e7d 0013                 mov.b   @(h'13, sp), r5l
20d2: 16de                      and.b   r5l, r6l
20d4: 0cea                      mov.b   r6l, r2l
20d6: 170a                      not.b   r2l
20d8: 680d                      mov.b   @er0, r5l
20da: 16da                      and.b   r5l, r2l
20dc: 16e9                      and.b   r6l, r1l
20de: 149a                      or.b    r1l, r2l
20e0: 688a                      mov.b   r2l, @er0
20e2: 4036                      bt      h'00211a
20e4: 0d44                      mov.w   r4, r4
20e6: 4f20                      ble     h'002108
20e8: 680b                      mov.b   @er0, r3l
20ea: 0cba                      mov.b   r3l, r2l
20ec: 159a                      xor.b   r1l, r2l
20ee: 16ea                      and.b   r6l, r2l
20f0: 170e                      not.b   r6l
20f2: 16eb                      and.b   r6l, r3l
20f4: 14ba                      or.b    r3l, r2l
20f6: 688a                      mov.b   r2l, @er0
20f8: 0b00                      adds.l  #1, er0
20fa: 1b94                      subs.l  #4, er4
20fc: 0d44                      mov.w   r4, r4
20fe: 4f08                      ble     h'002108
2100: 0c9a                      mov.b   r1l, r2l
2102: 680d                      mov.b   @er0, r5l
2104: 15da                      xor.b   r5l, r2l
2106: 40ee                      bt      h'0020f6
2108: 680b                      mov.b   @er0, r3l
210a: 15b9                      xor.b   r3l, r1l
210c: 6e7d 0013                 mov.b   @(h'13, sp), r5l
2110: 16d9                      and.b   r5l, r1l
2112: 170d                      not.b   r5l
2114: 16db                      and.b   r5l, r3l
2116: 14b9                      or.b    r3l, r1l
2118: 6889                      mov.b   r1l, @er0
211a: 0120 6d76                 ldm.l   @sp+, er4-er6
211e: 0b97                      adds.l  #4, sp
2120: 0b97                      adds.l  #4, sp
2122: 5470                      rts
2124: 17f0                      exts.l  er0
2126: 1070                      shll.l  #2, er0
2128: 1070                      shll.l  #2, er0
212a: 1070                      shll.l  #2, er0
212c: 1070                      shll.l  #2, er0
212e: 7a10 00ff edfe            add.l   #h'00ffedfe, er0
2134: 5470                      rts
2136: 7a37 0000 0010            sub.l   #h'00000010, sp
213c: 0120 6df4                 stm.l   er4-er6, @-sp
2140: 1944                      sub.w   r4, r4
2142: 6ff4 0018                 mov.w   r4, @(h'18, sp)
2146: 1966                      sub.w   r6, r6
2148: 6efe 001b                 mov.b   r6l, @(h'1b, sp)
214c: 1955                      sub.w   r5, r5
214e: 6ff5 000e                 mov.w   r5, @(h'e, sp)
2152: 7904 0006                 mov.w   #h'0006, r4
2156: 6ff4 0016                 mov.w   r4, @(h'16, sp)
215a: 6e78 001b                 mov.b   @(h'1b, sp), r0l
215e: 0c8a                      mov.b   r0l, r2l
2160: f200                      mov.b   #h'00, r2h
2162: 6e7d 0017                 mov.b   @(h'17, sp), r5l
2166: 0cdc                      mov.b   r5l, r4l
2168: 4f06                      ble     h'002170
216a: 1192                      shar.w  r2
216c: 8cff                      add.b   #h'ff, r4l
216e: 46fa                      bne     h'00216a
2170: ea03                      and.b   #h'03, r2l
2172: e200                      and.b   #h'00, r2h
2174: 0ff5                      mov.l   sp, er5
2176: 7a15 0000 001b            add.l   #h'0000001b, er5
217c: 0100 6ff5 0010            mov.l   er5, @(h'10, sp)
2182: 6f71 000e                 mov.w   @(h'e, sp), r1
2186: 17f1                      exts.l  er1
2188: 6f74 0018                 mov.w   @(h'18, sp), r4
218c: 1d42                      cmp.w   r4, r2
218e: 4618                      bne     h'0021a8
2190: 7810 6a2b 00ff ed10       mov.b   @(h'ffed10, er1), r3l
2198: 7810 6a2a 00ff ed00       mov.b   @(h'ffed00, er1), r2l
21a0: 170a                      not.b   r2l
21a2: 16a8                      and.b   r2l, r0l
21a4: 14b8                      or.b    r3l, r0l
21a6: 401e                      bt      h'0021c6
21a8: 0f92                      mov.l   er1, er2
21aa: 7a12 00ff ed1c            add.l   #h'00ffed1c, er2
21b0: 682b                      mov.b   @er2, r3l
21b2: 7810 6a2a 00ff ed00       mov.b   @(h'ffed00, er1), r2l
21ba: 170a                      not.b   r2l
21bc: 16a8                      and.b   r2l, r0l
21be: 14b8                      or.b    r3l, r0l
21c0: 0100 6f75 0010            mov.l   @(h'10, sp), er5
21c6: 68d8                      mov.b   r0l, @er5
21c8: 6f74 0016                 mov.w   @(h'16, sp), r4
21cc: 1b84                      subs.l  #2, er4
21ce: 6ff4 0016                 mov.w   r4, @(h'16, sp)
21d2: 6f75 000e                 mov.w   @(h'e, sp), r5
21d6: 0b05                      adds.l  #1, er5
21d8: 6ff5 000e                 mov.w   r5, @(h'e, sp)
21dc: 7925 0003                 cmp.w   #h'0003, r5
21e0: 58f0 ff76                 ble     h'00215a
21e4: 0d63                      mov.w   r6, r3
21e6: 1773                      extu.l  er3
21e8: 6f72 0018                 mov.w   @(h'18, sp), r2
21ec: 17f2                      exts.l  er2
21ee: 1072                      shll.l  #2, er2
21f0: 1072                      shll.l  #2, er2
21f2: 1072                      shll.l  #2, er2
21f4: 1072                      shll.l  #2, er2
21f6: 0aa3                      add.l   er2, er3
21f8: 6e7a 001b                 mov.b   @(h'1b, sp), r2l
21fc: 7830 6aaa 00ff edfe       mov.b   r2l, @(h'ffedfe, er3)
2204: 0b06                      adds.l  #1, er6
2206: 7926 00ff                 cmp.w   #h'00ff, r6
220a: 5830 ff3a                 bls     h'002148
220e: 6f75 0018                 mov.w   @(h'18, sp), r5
2212: 0b05                      adds.l  #1, er5
2214: 6ff5 0018                 mov.w   r5, @(h'18, sp)
2218: 7925 0003                 cmp.w   #h'0003, r5
221c: 58f0 ff26                 ble     h'002146
2220: 0120 6d76                 ldm.l   @sp+, er4-er6
2224: 7a17 0000 0010            add.l   #h'00000010, sp
222a: 5470                      rts
222c: 1b97                      subs.l  #4, sp
222e: 0120 6df4                 stm.l   er4-er6, @-sp
2232: 1955                      sub.w   r5, r5
2234: 1911                      sub.w   r1, r1
2236: 7906 0006                 mov.w   #h'0006, r6
223a: 7903 0003                 mov.w   #h'0003, r3
223e: 1913                      sub.w   r1, r3
2240: 0cda                      mov.b   r5l, r2l
2242: f200                      mov.b   #h'00, r2h
2244: 0cec                      mov.b   r6l, r4l
2246: 4f06                      ble     h'00224e
2248: 1192                      shar.w  r2
224a: 8cff                      add.b   #h'ff, r4l
224c: 46fa                      bne     h'002248
224e: 0d30                      mov.w   r3, r0
2250: 17f0                      exts.l  er0
2252: 0fa3                      mov.l   er2, er3
2254: 7a63 0000 0003            and.l   #h'00000003, er3
225a: 1073                      shll.l  #2, er3
225c: 0f82                      mov.l   er0, er2
225e: 0ab2                      add.l   er3, er2
2260: 7820 6a2b 00ff ed10       mov.b   @(h'ffed10, er2), r3l
2268: 7800 6a2a 00ff ed00       mov.b   @(h'ffed00, er0), r2l
2270: 170a                      not.b   r2l
2272: 6e7c 000f                 mov.b   @(h'f, sp), r4l
2276: 16ca                      and.b   r4l, r2l
2278: 14ba                      or.b    r3l, r2l
227a: 6efa 000f                 mov.b   r2l, @(h'f, sp)
227e: 1b86                      subs.l  #2, er6
2280: 0b01                      adds.l  #1, er1
2282: 7921 0003                 cmp.w   #h'0003, r1
2286: 43b2                      bls     h'00223a
2288: 0d53                      mov.w   r5, r3
228a: 1773                      extu.l  er3
228c: 7830 6aaa 00ff f1fe       mov.b   r2l, @(h'fff1fe, er3)
2294: 0b05                      adds.l  #1, er5
2296: 7925 00ff                 cmp.w   #h'00ff, r5
229a: 4398                      bls     h'002234
229c: 0120 6d76                 ldm.l   @sp+, er4-er6
22a0: 0b97                      adds.l  #4, sp
22a2: 5470                      rts
22a4: 5e00 2136                 jsr     h'002136
22a8: 5582                      bsr     h'00222c
22aa: 5470                      rts
22ac: 7a37 0000 0018            sub.l   #h'00000018, sp
22b2: 0120 6df4                 stm.l   er4-er6, @-sp
22b6: 0100 6ff0 0020            mov.l   er0, @(h'20, sp)
22bc: 0fa6                      mov.l   er2, er6
22be: 6f73 002e                 mov.w   @(h'2e, sp), r3
22c2: 58f0 0836                 ble     h'002afc
22c6: 6f74 002a                 mov.w   @(h'2a, sp), r4
22ca: 6ff4 000e                 mov.w   r4, @(h'e, sp)
22ce: 0d45                      mov.w   r4, r5
22d0: 0935                      add.w   r3, r5
22d2: 6ff5 000e                 mov.w   r5, @(h'e, sp)
22d6: 6f72 000e                 mov.w   @(h'e, sp), r2
22da: 1b02                      subs.l  #1, er2
22dc: 0d20                      mov.w   r2, r0
22de: 0d22                      mov.w   r2, r2
22e0: 4c06                      bge     h'0022e8
22e2: 6f70 000e                 mov.w   @(h'e, sp), r0
22e6: 0b80                      adds.l  #2, er0
22e8: e8fc                      and.b   #h'fc, r0l
22ea: 1902                      sub.w   r0, r2
22ec: 17f2                      exts.l  er2
22ee: 7820 6a2a 00ff ed08       mov.b   @(h'ffed08, er2), r2l
22f6: f200                      mov.b   #h'00, r2h
22f8: 6ff2 001e                 mov.w   r2, @(h'1e, sp)
22fc: 6f72 002a                 mov.w   @(h'2a, sp), r2
2300: 17f2                      exts.l  er2
2302: 7820 6a2a 00ff ed04       mov.b   @(h'ffed04, er2), r2l
230a: f200                      mov.b   #h'00, r2h
230c: 6ff2 001c                 mov.w   r2, @(h'1c, sp)
2310: 6e7b 003b                 mov.b   @(h'3b, sp), r3l
2314: 4708                      beq     h'00231e
2316: 7904 0003                 mov.w   #h'0003, r4
231a: 1914                      sub.w   r1, r4
231c: 0d41                      mov.w   r4, r1
231e: 6f75 002e                 mov.w   @(h'2e, sp), r5
2322: 1015                      shll.w  r5
2324: 6ff5 002e                 mov.w   r5, @(h'2e, sp)
2328: 0d10                      mov.w   r1, r0
232a: 1010                      shll.w  r0
232c: 0d01                      mov.w   r0, r1
232e: 6f72 002a                 mov.w   @(h'2a, sp), r2
2332: 1012                      shll.w  r2
2334: 6ff2 002a                 mov.w   r2, @(h'2a, sp)
2338: 1d21                      cmp.w   r2, r1
233a: 5860 027a                 bne     h'0025b8
233e: 0100 6f73 0020            mov.l   @(h'20, sp), er3
2344: 6838                      mov.b   @er3, r0l
2346: 6e7c 003b                 mov.b   @(h'3b, sp), r4l
234a: 470e                      beq     h'00235a
234c: 0c8a                      mov.b   r0l, r2l
234e: f200                      mov.b   #h'00, r2h
2350: 1772                      extu.l  er2
2352: 7820 6a28 00ff f1fe       mov.b   @(h'fff1fe, er2), r0l
235a: 6f75 002e                 mov.w   @(h'2e, sp), r5
235e: 1b95                      subs.l  #4, er5
2360: 1b95                      subs.l  #4, er5
2362: 6f73 002a                 mov.w   @(h'2a, sp), r3
2366: 0935                      add.w   r3, r5
2368: 6ff5 002e                 mov.w   r5, @(h'2e, sp)
236c: 0d55                      mov.w   r5, r5
236e: 58f0 0714                 ble     h'002a86
2372: 6f74 0032                 mov.w   @(h'32, sp), r4
2376: 4616                      bne     h'00238e
2378: 6e7a 001d                 mov.b   @(h'1d, sp), r2l
237c: 170a                      not.b   r2l
237e: 686d                      mov.b   @er6, r5l
2380: 16da                      and.b   r5l, r2l
2382: 6e7b 001d                 mov.b   @(h'1d, sp), r3l
2386: 16b8                      and.b   r3l, r0l
2388: 148a                      or.b    r0l, r2l
238a: 68ea                      mov.b   r2l, @er6
238c: 4058                      bt      h'0023e6
238e: 6869                      mov.b   @er6, r1l
2390: 6f74 0032                 mov.w   @(h'32, sp), r4
2394: 7924 0001                 cmp.w   #h'0001, r4
2398: 4638                      bne     h'0023d2
239a: 0c8a                      mov.b   r0l, r2l
239c: f200                      mov.b   #h'00, r2h
239e: 1772                      extu.l  er2
23a0: 0100 6ff2 0010            mov.l   er2, @(h'10, sp)
23a6: 0100 6f72 0034            mov.l   @(h'34, sp), er2
23ac: 0100 6f75 0010            mov.l   @(h'10, sp), er5
23b2: 0ad2                      add.l   er5, er2
23b4: 682a                      mov.b   @er2, r2l
23b6: f200                      mov.b   #h'00, r2h
23b8: 6f73 001c                 mov.w   @(h'1c, sp), r3
23bc: 6632                      and.w   r3, r2
23be: 6ff2 0016                 mov.w   r2, @(h'16, sp)
23c2: 6e7a 0017                 mov.b   @(h'17, sp), r2l
23c6: 170a                      not.b   r2l
23c8: 16a9                      and.b   r2l, r1l
23ca: 6e7c 0017                 mov.b   @(h'17, sp), r4l
23ce: 16c8                      and.b   r4l, r0l
23d0: 4010                      bt      h'0023e2
23d2: 1598                      xor.b   r1l, r0l
23d4: 6e7a 001d                 mov.b   @(h'1d, sp), r2l
23d8: 170a                      not.b   r2l
23da: 16a9                      and.b   r2l, r1l
23dc: 6e7d 001d                 mov.b   @(h'1d, sp), r5l
23e0: 16d8                      and.b   r5l, r0l
23e2: 1489                      or.b    r0l, r1l
23e4: 68e9                      mov.b   r1l, @er6
23e6: 7903 ffff                 mov.w   #h'ffff, r3
23ea: 6ff3 001c                 mov.w   r3, @(h'1c, sp)
23ee: 0b06                      adds.l  #1, er6
23f0: 6e7c 003b                 mov.b   @(h'3b, sp), r4l
23f4: 5860 00ce                 bne     h'0024c6
23f8: 0100 6f75 0020            mov.l   @(h'20, sp), er5
23fe: 0b05                      adds.l  #1, er5
2400: 0100 6ff5 0020            mov.l   er5, @(h'20, sp)
2406: 6f73 0032                 mov.w   @(h'32, sp), r3
240a: 4628                      bne     h'002434
240c: 0100 6f74 0020            mov.l   @(h'20, sp), er4
2412: 6848                      mov.b   @er4, r0l
2414: 6f75 002e                 mov.w   @(h'2e, sp), r5
2418: 1b95                      subs.l  #4, er5
241a: 1b95                      subs.l  #4, er5
241c: 6ff5 002e                 mov.w   r5, @(h'2e, sp)
2420: 0d55                      mov.w   r5, r5
2422: 58f0 0660                 ble     h'002a86
2426: 0b04                      adds.l  #1, er4
2428: 0100 6ff4 0020            mov.l   er4, @(h'20, sp)
242e: 68e8                      mov.b   r0l, @er6
2430: 0b06                      adds.l  #1, er6
2432: 40d8                      bt      h'00240c
2434: 6f73 0032                 mov.w   @(h'32, sp), r3
2438: 7923 0001                 cmp.w   #h'0001, r3
243c: 465c                      bne     h'00249a
243e: 0100 6f74 0020            mov.l   @(h'20, sp), er4
2444: 6848                      mov.b   @er4, r0l
2446: 6f75 002e                 mov.w   @(h'2e, sp), r5
244a: 1b95                      subs.l  #4, er5
244c: 1b95                      subs.l  #4, er5
244e: 6ff5 002e                 mov.w   r5, @(h'2e, sp)
2452: 0d55                      mov.w   r5, r5
2454: 58f0 062e                 ble     h'002a86
2458: 0b04                      adds.l  #1, er4
245a: 0100 6ff4 0020            mov.l   er4, @(h'20, sp)
2460: 0c8a                      mov.b   r0l, r2l
2462: f200                      mov.b   #h'00, r2h
2464: 1772                      extu.l  er2
2466: 0100 6ff2 0010            mov.l   er2, @(h'10, sp)
246c: 0100 6f72 0034            mov.l   @(h'34, sp), er2
2472: 0100 6f73 0010            mov.l   @(h'10, sp), er3
2478: 0ab2                      add.l   er3, er2
247a: 682a                      mov.b   @er2, r2l
247c: f200                      mov.b   #h'00, r2h
247e: 6ff2 0016                 mov.w   r2, @(h'16, sp)
2482: 6e7a 0017                 mov.b   @(h'17, sp), r2l
2486: 170a                      not.b   r2l
2488: 686c                      mov.b   @er6, r4l
248a: 16ca                      and.b   r4l, r2l
248c: 6e7d 0017                 mov.b   @(h'17, sp), r5l
2490: 16d8                      and.b   r5l, r0l
2492: 148a                      or.b    r0l, r2l
2494: 68ea                      mov.b   r2l, @er6
2496: 0b06                      adds.l  #1, er6
2498: 40a4                      bt      h'00243e
249a: 0100 6f73 0020            mov.l   @(h'20, sp), er3
24a0: 6838                      mov.b   @er3, r0l
24a2: 6f74 002e                 mov.w   @(h'2e, sp), r4
24a6: 1b94                      subs.l  #4, er4
24a8: 1b94                      subs.l  #4, er4
24aa: 6ff4 002e                 mov.w   r4, @(h'2e, sp)
24ae: 0d44                      mov.w   r4, r4
24b0: 58f0 05d2                 ble     h'002a86
24b4: 0b03                      adds.l  #1, er3
24b6: 0100 6ff3 0020            mov.l   er3, @(h'20, sp)
24bc: 686d                      mov.b   @er6, r5l
24be: 15d8                      xor.b   r5l, r0l
24c0: 68e8                      mov.b   r0l, @er6
24c2: 0b06                      adds.l  #1, er6
24c4: 40d4                      bt      h'00249a
24c6: 0100 6f73 0020            mov.l   @(h'20, sp), er3
24cc: 1b03                      subs.l  #1, er3
24ce: 0100 6ff3 0020            mov.l   er3, @(h'20, sp)
24d4: 6f74 0032                 mov.w   @(h'32, sp), r4
24d8: 4634                      bne     h'00250e
24da: 0100 6f75 0020            mov.l   @(h'20, sp), er5
24e0: 685a                      mov.b   @er5, r2l
24e2: f200                      mov.b   #h'00, r2h
24e4: 1772                      extu.l  er2
24e6: 7820 6a28 00ff f1fe       mov.b   @(h'fff1fe, er2), r0l
24ee: 6f73 002e                 mov.w   @(h'2e, sp), r3
24f2: 1b93                      subs.l  #4, er3
24f4: 1b93                      subs.l  #4, er3
24f6: 6ff3 002e                 mov.w   r3, @(h'2e, sp)
24fa: 0d33                      mov.w   r3, r3
24fc: 58f0 0586                 ble     h'002a86
2500: 1b05                      subs.l  #1, er5
2502: 0100 6ff5 0020            mov.l   er5, @(h'20, sp)
2508: 68e8                      mov.b   r0l, @er6
250a: 0b06                      adds.l  #1, er6
250c: 40cc                      bt      h'0024da
250e: 6f74 0032                 mov.w   @(h'32, sp), r4
2512: 7924 0001                 cmp.w   #h'0001, r4
2516: 4668                      bne     h'002580
2518: 0100 6f75 0020            mov.l   @(h'20, sp), er5
251e: 685a                      mov.b   @er5, r2l
2520: f200                      mov.b   #h'00, r2h
2522: 1772                      extu.l  er2
2524: 7820 6a28 00ff f1fe       mov.b   @(h'fff1fe, er2), r0l
252c: 6f73 002e                 mov.w   @(h'2e, sp), r3
2530: 1b93                      subs.l  #4, er3
2532: 1b93                      subs.l  #4, er3
2534: 6ff3 002e                 mov.w   r3, @(h'2e, sp)
2538: 0d33                      mov.w   r3, r3
253a: 58f0 0548                 ble     h'002a86
253e: 1b05                      subs.l  #1, er5
2540: 0100 6ff5 0020            mov.l   er5, @(h'20, sp)
2546: 0c8a                      mov.b   r0l, r2l
2548: f200                      mov.b   #h'00, r2h
254a: 1772                      extu.l  er2
254c: 0100 6ff2 0010            mov.l   er2, @(h'10, sp)
2552: 0100 6f72 0034            mov.l   @(h'34, sp), er2
2558: 0100 6f74 0010            mov.l   @(h'10, sp), er4
255e: 0ac2                      add.l   er4, er2
2560: 682a                      mov.b   @er2, r2l
2562: f200                      mov.b   #h'00, r2h
2564: 6ff2 0016                 mov.w   r2, @(h'16, sp)
2568: 6e7a 0017                 mov.b   @(h'17, sp), r2l
256c: 170a                      not.b   r2l
256e: 686d                      mov.b   @er6, r5l
2570: 16da                      and.b   r5l, r2l
2572: 6e7b 0017                 mov.b   @(h'17, sp), r3l
2576: 16b8                      and.b   r3l, r0l
2578: 148a                      or.b    r0l, r2l
257a: 68ea                      mov.b   r2l, @er6
257c: 0b06                      adds.l  #1, er6
257e: 4098                      bt      h'002518
2580: 0100 6f74 0020            mov.l   @(h'20, sp), er4
2586: 684a                      mov.b   @er4, r2l
2588: f200                      mov.b   #h'00, r2h
258a: 1772                      extu.l  er2
258c: 7820 6a28 00ff f1fe       mov.b   @(h'fff1fe, er2), r0l
2594: 6f75 002e                 mov.w   @(h'2e, sp), r5
2598: 1b95                      subs.l  #4, er5
259a: 1b95                      subs.l  #4, er5
259c: 6ff5 002e                 mov.w   r5, @(h'2e, sp)
25a0: 0d55                      mov.w   r5, r5
25a2: 58f0 04e0                 ble     h'002a86
25a6: 1b04                      subs.l  #1, er4
25a8: 0100 6ff4 0020            mov.l   er4, @(h'20, sp)
25ae: 686b                      mov.b   @er6, r3l
25b0: 15b8                      xor.b   r3l, r0l
25b2: 68e8                      mov.b   r0l, @er6
25b4: 0b06                      adds.l  #1, er6
25b6: 40c8                      bt      h'002580
25b8: 1d20                      cmp.w   r2, r0
25ba: 58d0 00de                 blt     h'00269c
25be: 6ff1 001a                 mov.w   r1, @(h'1a, sp)
25c2: 0d14                      mov.w   r1, r4
25c4: 6f75 002a                 mov.w   @(h'2a, sp), r5
25c8: 1954                      sub.w   r5, r4
25ca: 6ff4 001a                 mov.w   r4, @(h'1a, sp)
25ce: 7903 0008                 mov.w   #h'0008, r3
25d2: 1943                      sub.w   r4, r3
25d4: 6ff3 0018                 mov.w   r3, @(h'18, sp)
25d8: 0100 6f74 0020            mov.l   @(h'20, sp), er4
25de: 684a                      mov.b   @er4, r2l
25e0: f200                      mov.b   #h'00, r2h
25e2: 6e7d 003b                 mov.b   @(h'3b, sp), r5l
25e6: 4612                      bne     h'0025fa
25e8: 0d20                      mov.w   r2, r0
25ea: 6e7b 001b                 mov.b   @(h'1b, sp), r3l
25ee: 0cbc                      mov.b   r3l, r4l
25f0: 4f06                      ble     h'0025f8
25f2: 1010                      shll.w  r0
25f4: 8cff                      add.b   #h'ff, r4l
25f6: 46fa                      bne     h'0025f2
25f8: 401c                      bt      h'002616
25fa: 1772                      extu.l  er2
25fc: 7820 6a2a 00ff f1fe       mov.b   @(h'fff1fe, er2), r2l
2604: f200                      mov.b   #h'00, r2h
2606: 0d20                      mov.w   r2, r0
2608: 6e7d 001b                 mov.b   @(h'1b, sp), r5l
260c: 0cdb                      mov.b   r5l, r3l
260e: 4f06                      ble     h'002616
2610: 1010                      shll.w  r0
2612: 8bff                      add.b   #h'ff, r3l
2614: 46fa                      bne     h'002610
2616: 6f74 002e                 mov.w   @(h'2e, sp), r4
261a: 1b94                      subs.l  #4, er4
261c: 1b94                      subs.l  #4, er4
261e: 0914                      add.w   r1, r4
2620: 6ff4 002e                 mov.w   r4, @(h'2e, sp)
2624: 0d44                      mov.w   r4, r4
2626: 58f0 045c                 ble     h'002a86
262a: 6e7d 003b                 mov.b   @(h'3b, sp), r5l
262e: 4626                      bne     h'002656
2630: 0100 6f73 0020            mov.l   @(h'20, sp), er3
2636: 0b03                      adds.l  #1, er3
2638: 0100 6ff3 0020            mov.l   er3, @(h'20, sp)
263e: 683c                      mov.b   @er3, r4l
2640: f400                      mov.b   #h'00, r4h
2642: 6e7d 001b                 mov.b   @(h'1b, sp), r5l
2646: 0cdb                      mov.b   r5l, r3l
2648: 4f06                      ble     h'002650
264a: 1014                      shll.w  r4
264c: 8bff                      add.b   #h'ff, r3l
264e: 46fa                      bne     h'00264a
2650: 6ff4 000e                 mov.w   r4, @(h'e, sp)
2654: 4030                      bt      h'002686
2656: 0100 6f74 0020            mov.l   @(h'20, sp), er4
265c: 1b04                      subs.l  #1, er4
265e: 0100 6ff4 0020            mov.l   er4, @(h'20, sp)
2664: 684a                      mov.b   @er4, r2l
2666: f200                      mov.b   #h'00, r2h
2668: 1772                      extu.l  er2
266a: 7820 6a2a 00ff f1fe       mov.b   @(h'fff1fe, er2), r2l
2672: f200                      mov.b   #h'00, r2h
2674: 6e7d 001b                 mov.b   @(h'1b, sp), r5l
2678: 0cdb                      mov.b   r5l, r3l
267a: 4f06                      ble     h'002682
267c: 1012                      shll.w  r2
267e: 8bff                      add.b   #h'ff, r3l
2680: 46fa                      bne     h'00267c
2682: 6ff2 000e                 mov.w   r2, @(h'e, sp)
2686: 6f72 000e                 mov.w   @(h'e, sp), r2
268a: 0c2a                      mov.b   r2h, r2l
268c: 1822                      sub.b   r2h, r2h
268e: 14a8                      or.b    r2l, r0l
2690: 6f75 002e                 mov.w   @(h'2e, sp), r5
2694: 6f73 001a                 mov.w   @(h'1a, sp), r3
2698: 1935                      sub.w   r3, r5
269a: 406e                      bt      h'00270a
269c: 6f74 002a                 mov.w   @(h'2a, sp), r4
26a0: 6ff4 0018                 mov.w   r4, @(h'18, sp)
26a4: 0d45                      mov.w   r4, r5
26a6: 1915                      sub.w   r1, r5
26a8: 6ff5 0018                 mov.w   r5, @(h'18, sp)
26ac: 7903 0008                 mov.w   #h'0008, r3
26b0: 1953                      sub.w   r5, r3
26b2: 6ff3 001a                 mov.w   r3, @(h'1a, sp)
26b6: 0100 6f74 0020            mov.l   @(h'20, sp), er4
26bc: 684a                      mov.b   @er4, r2l
26be: f200                      mov.b   #h'00, r2h
26c0: 6e7d 003b                 mov.b   @(h'3b, sp), r5l
26c4: 4610                      bne     h'0026d6
26c6: 6e7b 001b                 mov.b   @(h'1b, sp), r3l
26ca: 0cbc                      mov.b   r3l, r4l
26cc: 4f06                      ble     h'0026d4
26ce: 1012                      shll.w  r2
26d0: 8cff                      add.b   #h'ff, r4l
26d2: 46fa                      bne     h'0026ce
26d4: 401a                      bt      h'0026f0
26d6: 1772                      extu.l  er2
26d8: 7820 6a2a 00ff f1fe       mov.b   @(h'fff1fe, er2), r2l
26e0: f200                      mov.b   #h'00, r2h
26e2: 6e7d 001b                 mov.b   @(h'1b, sp), r5l
26e6: 0cdb                      mov.b   r5l, r3l
26e8: 4f06                      ble     h'0026f0
26ea: 1012                      shll.w  r2
26ec: 8bff                      add.b   #h'ff, r3l
26ee: 46fa                      bne     h'0026ea
26f0: 6ff2 000e                 mov.w   r2, @(h'e, sp)
26f4: 6f70 000e                 mov.w   @(h'e, sp), r0
26f8: 0c08                      mov.b   r0h, r0l
26fa: 1800                      sub.b   r0h, r0h
26fc: 6f75 002e                 mov.w   @(h'2e, sp), r5
2700: 1b95                      subs.l  #4, er5
2702: 1b95                      subs.l  #4, er5
2704: 6f73 002a                 mov.w   @(h'2a, sp), r3
2708: 0935                      add.w   r3, r5
270a: 6ff5 002e                 mov.w   r5, @(h'2e, sp)
270e: 0d55                      mov.w   r5, r5
2710: 58f0 0372                 ble     h'002a86
2714: 6f74 0032                 mov.w   @(h'32, sp), r4
2718: 4616                      bne     h'002730
271a: 6e7a 001d                 mov.b   @(h'1d, sp), r2l
271e: 170a                      not.b   r2l
2720: 686d                      mov.b   @er6, r5l
2722: 16da                      and.b   r5l, r2l
2724: 6e7b 001d                 mov.b   @(h'1d, sp), r3l
2728: 16b8                      and.b   r3l, r0l
272a: 148a                      or.b    r0l, r2l
272c: 68ea                      mov.b   r2l, @er6
272e: 4058                      bt      h'002788
2730: 6869                      mov.b   @er6, r1l
2732: 6f74 0032                 mov.w   @(h'32, sp), r4
2736: 7924 0001                 cmp.w   #h'0001, r4
273a: 4638                      bne     h'002774
273c: 0c8a                      mov.b   r0l, r2l
273e: f200                      mov.b   #h'00, r2h
2740: 1772                      extu.l  er2
2742: 0100 6ff2 0010            mov.l   er2, @(h'10, sp)
2748: 0100 6f72 0034            mov.l   @(h'34, sp), er2
274e: 0100 6f75 0010            mov.l   @(h'10, sp), er5
2754: 0ad2                      add.l   er5, er2
2756: 682a                      mov.b   @er2, r2l
2758: f200                      mov.b   #h'00, r2h
275a: 6f73 001c                 mov.w   @(h'1c, sp), r3
275e: 6632                      and.w   r3, r2
2760: 6ff2 0016                 mov.w   r2, @(h'16, sp)
2764: 6e7a 0017                 mov.b   @(h'17, sp), r2l
2768: 170a                      not.b   r2l
276a: 16a9                      and.b   r2l, r1l
276c: 6e7c 0017                 mov.b   @(h'17, sp), r4l
2770: 16c8                      and.b   r4l, r0l
2772: 4010                      bt      h'002784
2774: 1598                      xor.b   r1l, r0l
2776: 6e7a 001d                 mov.b   @(h'1d, sp), r2l
277a: 170a                      not.b   r2l
277c: 16a9                      and.b   r2l, r1l
277e: 6e7d 001d                 mov.b   @(h'1d, sp), r5l
2782: 16d8                      and.b   r5l, r0l
2784: 1489                      or.b    r0l, r1l
2786: 68e9                      mov.b   r1l, @er6
2788: 0b06                      adds.l  #1, er6
278a: 7903 ffff                 mov.w   #h'ffff, r3
278e: 6ff3 001c                 mov.w   r3, @(h'1c, sp)
2792: 6e7c 003b                 mov.b   @(h'3b, sp), r4l
2796: 5860 016c                 bne     h'002906
279a: 6f75 0032                 mov.w   @(h'32, sp), r5
279e: 4660                      bne     h'002800
27a0: 6e78 000f                 mov.b   @(h'f, sp), r0l
27a4: 6f73 002e                 mov.w   @(h'2e, sp), r3
27a8: 6f74 0018                 mov.w   @(h'18, sp), r4
27ac: 1943                      sub.w   r4, r3
27ae: 6ff3 002e                 mov.w   r3, @(h'2e, sp)
27b2: 0d33                      mov.w   r3, r3
27b4: 58f0 02ce                 ble     h'002a86
27b8: 0100 6f75 0020            mov.l   @(h'20, sp), er5
27be: 0b05                      adds.l  #1, er5
27c0: 0100 6ff5 0020            mov.l   er5, @(h'20, sp)
27c6: 685b                      mov.b   @er5, r3l
27c8: f300                      mov.b   #h'00, r3h
27ca: 6e7c 001b                 mov.b   @(h'1b, sp), r4l
27ce: 0ccd                      mov.b   r4l, r5l
27d0: 4f06                      ble     h'0027d8
27d2: 1013                      shll.w  r3
27d4: 8dff                      add.b   #h'ff, r5l
27d6: 46fa                      bne     h'0027d2
27d8: 6ff3 000e                 mov.w   r3, @(h'e, sp)
27dc: 6f72 000e                 mov.w   @(h'e, sp), r2
27e0: 0c2a                      mov.b   r2h, r2l
27e2: 1822                      sub.b   r2h, r2h
27e4: 14a8                      or.b    r2l, r0l
27e6: 6f74 002e                 mov.w   @(h'2e, sp), r4
27ea: 6f75 001a                 mov.w   @(h'1a, sp), r5
27ee: 1954                      sub.w   r5, r4
27f0: 6ff4 002e                 mov.w   r4, @(h'2e, sp)
27f4: 0d44                      mov.w   r4, r4
27f6: 58f0 028c                 ble     h'002a86
27fa: 68e8                      mov.b   r0l, @er6
27fc: 0b06                      adds.l  #1, er6
27fe: 40a0                      bt      h'0027a0
2800: 6f73 0032                 mov.w   @(h'32, sp), r3
2804: 7923 0001                 cmp.w   #h'0001, r3
2808: 5860 0096                 bne     h'0028a2
280c: 6e78 000f                 mov.b   @(h'f, sp), r0l
2810: 6f74 002e                 mov.w   @(h'2e, sp), r4
2814: 6f75 0018                 mov.w   @(h'18, sp), r5
2818: 1954                      sub.w   r5, r4
281a: 6ff4 002e                 mov.w   r4, @(h'2e, sp)
281e: 0d44                      mov.w   r4, r4
2820: 58f0 0262                 ble     h'002a86
2824: 0100 6f73 0020            mov.l   @(h'20, sp), er3
282a: 0b03                      adds.l  #1, er3
282c: 0100 6ff3 0020            mov.l   er3, @(h'20, sp)
2832: 683c                      mov.b   @er3, r4l
2834: f400                      mov.b   #h'00, r4h
2836: 6e7d 001b                 mov.b   @(h'1b, sp), r5l
283a: 0cdb                      mov.b   r5l, r3l
283c: 4f06                      ble     h'002844
283e: 1014                      shll.w  r4
2840: 8bff                      add.b   #h'ff, r3l
2842: 46fa                      bne     h'00283e
2844: 6ff4 000e                 mov.w   r4, @(h'e, sp)
2848: 6f72 000e                 mov.w   @(h'e, sp), r2
284c: 0c2a                      mov.b   r2h, r2l
284e: 1822                      sub.b   r2h, r2h
2850: 14a8                      or.b    r2l, r0l
2852: 6f75 002e                 mov.w   @(h'2e, sp), r5
2856: 6f73 001a                 mov.w   @(h'1a, sp), r3
285a: 1935                      sub.w   r3, r5
285c: 6ff5 002e                 mov.w   r5, @(h'2e, sp)
2860: 0d55                      mov.w   r5, r5
2862: 58f0 0220                 ble     h'002a86
2866: 0c8a                      mov.b   r0l, r2l
2868: f200                      mov.b   #h'00, r2h
286a: 1772                      extu.l  er2
286c: 0100 6ff2 0010            mov.l   er2, @(h'10, sp)
2872: 0100 6f72 0034            mov.l   @(h'34, sp), er2
2878: 0100 6f74 0010            mov.l   @(h'10, sp), er4
287e: 0ac2                      add.l   er4, er2
2880: 682a                      mov.b   @er2, r2l
2882: f200                      mov.b   #h'00, r2h
2884: 6ff2 0016                 mov.w   r2, @(h'16, sp)
2888: 6e7a 0017                 mov.b   @(h'17, sp), r2l
288c: 170a                      not.b   r2l
288e: 686d                      mov.b   @er6, r5l
2890: 16da                      and.b   r5l, r2l
2892: 6e7b 0017                 mov.b   @(h'17, sp), r3l
2896: 16b8                      and.b   r3l, r0l
2898: 148a                      or.b    r0l, r2l
289a: 68ea                      mov.b   r2l, @er6
289c: 0b06                      adds.l  #1, er6
289e: 5800 ff6a                 bt      h'00280c
28a2: 6e78 000f                 mov.b   @(h'f, sp), r0l
28a6: 6f74 002e                 mov.w   @(h'2e, sp), r4
28aa: 6f75 0018                 mov.w   @(h'18, sp), r5
28ae: 1954                      sub.w   r5, r4
28b0: 6ff4 002e                 mov.w   r4, @(h'2e, sp)
28b4: 0d44                      mov.w   r4, r4
28b6: 58f0 01cc                 ble     h'002a86
28ba: 0100 6f73 0020            mov.l   @(h'20, sp), er3
28c0: 0b03                      adds.l  #1, er3
28c2: 0100 6ff3 0020            mov.l   er3, @(h'20, sp)
28c8: 683c                      mov.b   @er3, r4l
28ca: f400                      mov.b   #h'00, r4h
28cc: 6e7d 001b                 mov.b   @(h'1b, sp), r5l
28d0: 0cdb                      mov.b   r5l, r3l
28d2: 4f06                      ble     h'0028da
28d4: 1014                      shll.w  r4
28d6: 8bff                      add.b   #h'ff, r3l
28d8: 46fa                      bne     h'0028d4
28da: 6ff4 000e                 mov.w   r4, @(h'e, sp)
28de: 6f72 000e                 mov.w   @(h'e, sp), r2
28e2: 0c2a                      mov.b   r2h, r2l
28e4: 1822                      sub.b   r2h, r2h
28e6: 14a8                      or.b    r2l, r0l
28e8: 6f75 002e                 mov.w   @(h'2e, sp), r5
28ec: 6f73 001a                 mov.w   @(h'1a, sp), r3
28f0: 1935                      sub.w   r3, r5
28f2: 6ff5 002e                 mov.w   r5, @(h'2e, sp)
28f6: 0d55                      mov.w   r5, r5
28f8: 58f0 018a                 ble     h'002a86
28fc: 686c                      mov.b   @er6, r4l
28fe: 15c8                      xor.b   r4l, r0l
2900: 68e8                      mov.b   r0l, @er6
2902: 0b06                      adds.l  #1, er6
2904: 409c                      bt      h'0028a2
2906: 6f75 0032                 mov.w   @(h'32, sp), r5
290a: 4668                      bne     h'002974
290c: 6e78 000f                 mov.b   @(h'f, sp), r0l
2910: 6f73 002e                 mov.w   @(h'2e, sp), r3
2914: 6f74 0018                 mov.w   @(h'18, sp), r4
2918: 1943                      sub.w   r4, r3
291a: 6ff3 002e                 mov.w   r3, @(h'2e, sp)
291e: 0d33                      mov.w   r3, r3
2920: 58f0 0162                 ble     h'002a86
2924: 0100 6f75 0020            mov.l   @(h'20, sp), er5
292a: 1b05                      subs.l  #1, er5
292c: 0100 6ff5 0020            mov.l   er5, @(h'20, sp)
2932: 685a                      mov.b   @er5, r2l
2934: f200                      mov.b   #h'00, r2h
2936: 1772                      extu.l  er2
2938: 7820 6a2a 00ff f1fe       mov.b   @(h'fff1fe, er2), r2l
2940: f200                      mov.b   #h'00, r2h
2942: 6e7b 001b                 mov.b   @(h'1b, sp), r3l
2946: 0cbc                      mov.b   r3l, r4l
2948: 4f06                      ble     h'002950
294a: 1012                      shll.w  r2
294c: 8cff                      add.b   #h'ff, r4l
294e: 46fa                      bne     h'00294a
2950: 6ff2 000e                 mov.w   r2, @(h'e, sp)
2954: 0c2a                      mov.b   r2h, r2l
2956: 1822                      sub.b   r2h, r2h
2958: 14a8                      or.b    r2l, r0l
295a: 6f73 002e                 mov.w   @(h'2e, sp), r3
295e: 6f74 001a                 mov.w   @(h'1a, sp), r4
2962: 1943                      sub.w   r4, r3
2964: 6ff3 002e                 mov.w   r3, @(h'2e, sp)
2968: 0d33                      mov.w   r3, r3
296a: 58f0 0118                 ble     h'002a86
296e: 68e8                      mov.b   r0l, @er6
2970: 0b06                      adds.l  #1, er6
2972: 4098                      bt      h'00290c
2974: 6f75 0032                 mov.w   @(h'32, sp), r5
2978: 7925 0001                 cmp.w   #h'0001, r5
297c: 5860 009e                 bne     h'002a1e
2980: 6e78 000f                 mov.b   @(h'f, sp), r0l
2984: 6f73 002e                 mov.w   @(h'2e, sp), r3
2988: 6f74 0018                 mov.w   @(h'18, sp), r4
298c: 1943                      sub.w   r4, r3
298e: 6ff3 002e                 mov.w   r3, @(h'2e, sp)
2992: 0d33                      mov.w   r3, r3
2994: 58f0 00ee                 ble     h'002a86
2998: 0100 6f75 0020            mov.l   @(h'20, sp), er5
299e: 1b05                      subs.l  #1, er5
29a0: 0100 6ff5 0020            mov.l   er5, @(h'20, sp)
29a6: 685a                      mov.b   @er5, r2l
29a8: f200                      mov.b   #h'00, r2h
29aa: 1772                      extu.l  er2
29ac: 7820 6a2a 00ff f1fe       mov.b   @(h'fff1fe, er2), r2l
29b4: f200                      mov.b   #h'00, r2h
29b6: 6e7b 001b                 mov.b   @(h'1b, sp), r3l
29ba: 0cbc                      mov.b   r3l, r4l
29bc: 4f06                      ble     h'0029c4
29be: 1012                      shll.w  r2
29c0: 8cff                      add.b   #h'ff, r4l
29c2: 46fa                      bne     h'0029be
29c4: 6ff2 000e                 mov.w   r2, @(h'e, sp)
29c8: 0c2a                      mov.b   r2h, r2l
29ca: 1822                      sub.b   r2h, r2h
29cc: 14a8                      or.b    r2l, r0l
29ce: 6f73 002e                 mov.w   @(h'2e, sp), r3
29d2: 6f74 001a                 mov.w   @(h'1a, sp), r4
29d6: 1943                      sub.w   r4, r3
29d8: 6ff3 002e                 mov.w   r3, @(h'2e, sp)
29dc: 0d33                      mov.w   r3, r3
29de: 58f0 00a4                 ble     h'002a86
29e2: 0c8a                      mov.b   r0l, r2l
29e4: f200                      mov.b   #h'00, r2h
29e6: 1772                      extu.l  er2
29e8: 0100 6ff2 0010            mov.l   er2, @(h'10, sp)
29ee: 0100 6f72 0034            mov.l   @(h'34, sp), er2
29f4: 0100 6f75 0010            mov.l   @(h'10, sp), er5
29fa: 0ad2                      add.l   er5, er2
29fc: 682a                      mov.b   @er2, r2l
29fe: f200                      mov.b   #h'00, r2h
2a00: 6ff2 0016                 mov.w   r2, @(h'16, sp)
2a04: 6e7a 0017                 mov.b   @(h'17, sp), r2l
2a08: 170a                      not.b   r2l
2a0a: 686b                      mov.b   @er6, r3l
2a0c: 16ba                      and.b   r3l, r2l
2a0e: 6e7c 0017                 mov.b   @(h'17, sp), r4l
2a12: 16c8                      and.b   r4l, r0l
2a14: 148a                      or.b    r0l, r2l
2a16: 68ea                      mov.b   r2l, @er6
2a18: 0b06                      adds.l  #1, er6
2a1a: 5800 ff62                 bt      h'002980
2a1e: 6e78 000f                 mov.b   @(h'f, sp), r0l
2a22: 6f75 002e                 mov.w   @(h'2e, sp), r5
2a26: 6f73 0018                 mov.w   @(h'18, sp), r3
2a2a: 1935                      sub.w   r3, r5
2a2c: 6ff5 002e                 mov.w   r5, @(h'2e, sp)
2a30: 0d55                      mov.w   r5, r5
2a32: 4f52                      ble     h'002a86
2a34: 0100 6f74 0020            mov.l   @(h'20, sp), er4
2a3a: 1b04                      subs.l  #1, er4
2a3c: 0100 6ff4 0020            mov.l   er4, @(h'20, sp)
2a42: 684a                      mov.b   @er4, r2l
2a44: f200                      mov.b   #h'00, r2h
2a46: 1772                      extu.l  er2
2a48: 7820 6a2a 00ff f1fe       mov.b   @(h'fff1fe, er2), r2l
2a50: f200                      mov.b   #h'00, r2h
2a52: 6e7d 001b                 mov.b   @(h'1b, sp), r5l
2a56: 0cdb                      mov.b   r5l, r3l
2a58: 4f06                      ble     h'002a60
2a5a: 1012                      shll.w  r2
2a5c: 8bff                      add.b   #h'ff, r3l
2a5e: 46fa                      bne     h'002a5a
2a60: 6ff2 000e                 mov.w   r2, @(h'e, sp)
2a64: 0c2a                      mov.b   r2h, r2l
2a66: 1822                      sub.b   r2h, r2h
2a68: 14a8                      or.b    r2l, r0l
2a6a: 6f75 002e                 mov.w   @(h'2e, sp), r5
2a6e: 6f73 001a                 mov.w   @(h'1a, sp), r3
2a72: 1935                      sub.w   r3, r5
2a74: 6ff5 002e                 mov.w   r5, @(h'2e, sp)
2a78: 0d55                      mov.w   r5, r5
2a7a: 4f0a                      ble     h'002a86
2a7c: 686c                      mov.b   @er6, r4l
2a7e: 15c8                      xor.b   r4l, r0l
2a80: 68e8                      mov.b   r0l, @er6
2a82: 0b06                      adds.l  #1, er6
2a84: 4098                      bt      h'002a1e
2a86: 6f75 001c                 mov.w   @(h'1c, sp), r5
2a8a: 6f73 001e                 mov.w   @(h'1e, sp), r3
2a8e: 6635                      and.w   r3, r5
2a90: 6ff5 001c                 mov.w   r5, @(h'1c, sp)
2a94: 6f74 0032                 mov.w   @(h'32, sp), r4
2a98: 4616                      bne     h'002ab0
2a9a: 6e7a 001d                 mov.b   @(h'1d, sp), r2l
2a9e: 170a                      not.b   r2l
2aa0: 686d                      mov.b   @er6, r5l
2aa2: 16da                      and.b   r5l, r2l
2aa4: 6e7b 001d                 mov.b   @(h'1d, sp), r3l
2aa8: 16b8                      and.b   r3l, r0l
2aaa: 148a                      or.b    r0l, r2l
2aac: 68ea                      mov.b   r2l, @er6
2aae: 404c                      bt      h'002afc
2ab0: 6869                      mov.b   @er6, r1l
2ab2: 6f74 0032                 mov.w   @(h'32, sp), r4
2ab6: 7924 0001                 cmp.w   #h'0001, r4
2aba: 462c                      bne     h'002ae8
2abc: 0c8a                      mov.b   r0l, r2l
2abe: f200                      mov.b   #h'00, r2h
2ac0: 1772                      extu.l  er2
2ac2: 0100 6f75 0034            mov.l   @(h'34, sp), er5
2ac8: 0aa5                      add.l   er2, er5
2aca: 685b                      mov.b   @er5, r3l
2acc: f300                      mov.b   #h'00, r3h
2ace: 6f74 001c                 mov.w   @(h'1c, sp), r4
2ad2: 6643                      and.w   r4, r3
2ad4: 6ff3 0016                 mov.w   r3, @(h'16, sp)
2ad8: 6e7a 0017                 mov.b   @(h'17, sp), r2l
2adc: 170a                      not.b   r2l
2ade: 16a9                      and.b   r2l, r1l
2ae0: 6e7d 0017                 mov.b   @(h'17, sp), r5l
2ae4: 16d8                      and.b   r5l, r0l
2ae6: 4010                      bt      h'002af8
2ae8: 1598                      xor.b   r1l, r0l
2aea: 6e7a 001d                 mov.b   @(h'1d, sp), r2l
2aee: 170a                      not.b   r2l
2af0: 16a9                      and.b   r2l, r1l
2af2: 6e7b 001d                 mov.b   @(h'1d, sp), r3l
2af6: 16b8                      and.b   r3l, r0l
2af8: 1489                      or.b    r0l, r1l
2afa: 68e9                      mov.b   r1l, @er6
2afc: 0120 6d76                 ldm.l   @sp+, er4-er6
2b00: 7a17 0000 0018            add.l   #h'00000018, sp
2b06: 5470                      rts
2b08: 7a37 0000 0010            sub.l   #h'00000010, sp
2b0e: 0120 6df4                 stm.l   er4-er6, @-sp
2b12: 0f86                      mov.l   er0, er6
2b14: 6ff1 001a                 mov.w   r1, @(h'1a, sp)
2b18: 0100 6ff2 000c            mov.l   er2, @(h'c, sp)
2b1e: 6f73 0026                 mov.w   @(h'26, sp), r3
2b22: 58f0 0204                 ble     h'002d2a
2b26: 6f71 0022                 mov.w   @(h'22, sp), r1
2b2a: 0931                      add.w   r3, r1
2b2c: 0d12                      mov.w   r1, r2
2b2e: 1b02                      subs.l  #1, er2
2b30: 0d20                      mov.w   r2, r0
2b32: 0d22                      mov.w   r2, r2
2b34: 4c04                      bge     h'002b3a
2b36: 0d10                      mov.w   r1, r0
2b38: 0b80                      adds.l  #2, er0
2b3a: e8fc                      and.b   #h'fc, r0l
2b3c: 1902                      sub.w   r0, r2
2b3e: 17f2                      exts.l  er2
2b40: 7820 6a2a 00ff ed08       mov.b   @(h'ffed08, er2), r2l
2b48: f200                      mov.b   #h'00, r2h
2b4a: 6ff2 0018                 mov.w   r2, @(h'18, sp)
2b4e: 6f72 0022                 mov.w   @(h'22, sp), r2
2b52: 17f2                      exts.l  er2
2b54: 7820 6a2a 00ff ed04       mov.b   @(h'ffed04, er2), r2l
2b5c: f200                      mov.b   #h'00, r2h
2b5e: 6ff2 0016                 mov.w   r2, @(h'16, sp)
2b62: 0d32                      mov.w   r3, r2
2b64: 1012                      shll.w  r2
2b66: 0d23                      mov.w   r2, r3
2b68: 6f71 001a                 mov.w   @(h'1a, sp), r1
2b6c: 1011                      shll.w  r1
2b6e: 6ff1 001a                 mov.w   r1, @(h'1a, sp)
2b72: 6f70 0022                 mov.w   @(h'22, sp), r0
2b76: 1010                      shll.w  r0
2b78: 6ff0 0022                 mov.w   r0, @(h'22, sp)
2b7c: 1d01                      cmp.w   r0, r1
2b7e: 465a                      bne     h'002bda
2b80: 6868                      mov.b   @er6, r0l
2b82: 1b93                      subs.l  #4, er3
2b84: 1b93                      subs.l  #4, er3
2b86: 6f74 0022                 mov.w   @(h'22, sp), r4
2b8a: 0943                      add.w   r4, r3
2b8c: 0d33                      mov.w   r3, r3
2b8e: 58f0 016a                 ble     h'002cfc
2b92: 6e7a 0017                 mov.b   @(h'17, sp), r2l
2b96: 170a                      not.b   r2l
2b98: 0100 6f75 000c            mov.l   @(h'c, sp), er5
2b9e: 685d                      mov.b   @er5, r5l
2ba0: 16da                      and.b   r5l, r2l
2ba2: 6e7c 0017                 mov.b   @(h'17, sp), r4l
2ba6: 16c8                      and.b   r4l, r0l
2ba8: 148a                      or.b    r0l, r2l
2baa: 0100 6f75 000c            mov.l   @(h'c, sp), er5
2bb0: 68da                      mov.b   r2l, @er5
2bb2: 7904 ffff                 mov.w   #h'ffff, r4
2bb6: 6ff4 0016                 mov.w   r4, @(h'16, sp)
2bba: 0100 6f75 000c            mov.l   @(h'c, sp), er5
2bc0: 0b05                      adds.l  #1, er5
2bc2: 0100 6ff5 000c            mov.l   er5, @(h'c, sp)
2bc8: 0b06                      adds.l  #1, er6
2bca: 6868                      mov.b   @er6, r0l
2bcc: 1b93                      subs.l  #4, er3
2bce: 1b93                      subs.l  #4, er3
2bd0: 0d33                      mov.w   r3, r3
2bd2: 58f0 0126                 ble     h'002cfc
2bd6: 68d8                      mov.b   r0l, @er5
2bd8: 40e0                      bt      h'002bba
2bda: 0d23                      mov.w   r2, r3
2bdc: 1b93                      subs.l  #4, er3
2bde: 1b93                      subs.l  #4, er3
2be0: 686a                      mov.b   @er6, r2l
2be2: f200                      mov.b   #h'00, r2h
2be4: 1d01                      cmp.w   r0, r1
2be6: 4d60                      blt     h'002c48
2be8: 6f74 001a                 mov.w   @(h'1a, sp), r4
2bec: 6ff4 0012                 mov.w   r4, @(h'12, sp)
2bf0: 6f75 0012                 mov.w   @(h'12, sp), r5
2bf4: 6f74 0022                 mov.w   @(h'22, sp), r4
2bf8: 1945                      sub.w   r4, r5
2bfa: 6ff5 0012                 mov.w   r5, @(h'12, sp)
2bfe: 7904 0008                 mov.w   #h'0008, r4
2c02: 1954                      sub.w   r5, r4
2c04: 6ff4 0014                 mov.w   r4, @(h'14, sp)
2c08: 0d20                      mov.w   r2, r0
2c0a: 6e7d 0013                 mov.b   @(h'13, sp), r5l
2c0e: 0cdc                      mov.b   r5l, r4l
2c10: 4f06                      ble     h'002c18
2c12: 1010                      shll.w  r0
2c14: 8cff                      add.b   #h'ff, r4l
2c16: 46fa                      bne     h'002c12
2c18: 6f75 001a                 mov.w   @(h'1a, sp), r5
2c1c: 0953                      add.w   r5, r3
2c1e: 0d33                      mov.w   r3, r3
2c20: 58f0 00d8                 ble     h'002cfc
2c24: 0b06                      adds.l  #1, er6
2c26: 6869                      mov.b   @er6, r1l
2c28: f100                      mov.b   #h'00, r1h
2c2a: 6e7c 0013                 mov.b   @(h'13, sp), r4l
2c2e: 0ccd                      mov.b   r4l, r5l
2c30: 4f06                      ble     h'002c38
2c32: 1011                      shll.w  r1
2c34: 8dff                      add.b   #h'ff, r5l
2c36: 46fa                      bne     h'002c32
2c38: 0d12                      mov.w   r1, r2
2c3a: 0c2a                      mov.b   r2h, r2l
2c3c: 1822                      sub.b   r2h, r2h
2c3e: 14a8                      or.b    r2l, r0l
2c40: 6f75 0012                 mov.w   @(h'12, sp), r5
2c44: 1953                      sub.w   r5, r3
2c46: 403c                      bt      h'002c84
2c48: 6f74 0022                 mov.w   @(h'22, sp), r4
2c4c: 6ff4 0014                 mov.w   r4, @(h'14, sp)
2c50: 6f75 0014                 mov.w   @(h'14, sp), r5
2c54: 6f74 001a                 mov.w   @(h'1a, sp), r4
2c58: 1945                      sub.w   r4, r5
2c5a: 6ff5 0014                 mov.w   r5, @(h'14, sp)
2c5e: 7904 0008                 mov.w   #h'0008, r4
2c62: 1954                      sub.w   r5, r4
2c64: 6ff4 0012                 mov.w   r4, @(h'12, sp)
2c68: 0d21                      mov.w   r2, r1
2c6a: 6e7d 0013                 mov.b   @(h'13, sp), r5l
2c6e: 0cdc                      mov.b   r5l, r4l
2c70: 4f06                      ble     h'002c78
2c72: 1011                      shll.w  r1
2c74: 8cff                      add.b   #h'ff, r4l
2c76: 46fa                      bne     h'002c72
2c78: 0d10                      mov.w   r1, r0
2c7a: 0c08                      mov.b   r0h, r0l
2c7c: 1800                      sub.b   r0h, r0h
2c7e: 6f74 0022                 mov.w   @(h'22, sp), r4
2c82: 0943                      add.w   r4, r3
2c84: 0d33                      mov.w   r3, r3
2c86: 4f74                      ble     h'002cfc
2c88: 6e7a 0017                 mov.b   @(h'17, sp), r2l
2c8c: 170a                      not.b   r2l
2c8e: 0100 6f75 000c            mov.l   @(h'c, sp), er5
2c94: 685d                      mov.b   @er5, r5l
2c96: 16da                      and.b   r5l, r2l
2c98: 6e7c 0017                 mov.b   @(h'17, sp), r4l
2c9c: 16c8                      and.b   r4l, r0l
2c9e: 148a                      or.b    r0l, r2l
2ca0: 0100 6f75 000c            mov.l   @(h'c, sp), er5
2ca6: 68da                      mov.b   r2l, @er5
2ca8: 0b05                      adds.l  #1, er5
2caa: 0100 6ff5 000c            mov.l   er5, @(h'c, sp)
2cb0: 7904 ffff                 mov.w   #h'ffff, r4
2cb4: 6ff4 0016                 mov.w   r4, @(h'16, sp)
2cb8: 0c98                      mov.b   r1l, r0l
2cba: 6f75 0014                 mov.w   @(h'14, sp), r5
2cbe: 1953                      sub.w   r5, r3
2cc0: 0d33                      mov.w   r3, r3
2cc2: 4f38                      ble     h'002cfc
2cc4: 0b06                      adds.l  #1, er6
2cc6: 6869                      mov.b   @er6, r1l
2cc8: f100                      mov.b   #h'00, r1h
2cca: 6e7c 0013                 mov.b   @(h'13, sp), r4l
2cce: 0ccd                      mov.b   r4l, r5l
2cd0: 4f06                      ble     h'002cd8
2cd2: 1011                      shll.w  r1
2cd4: 8dff                      add.b   #h'ff, r5l
2cd6: 46fa                      bne     h'002cd2
2cd8: 0d12                      mov.w   r1, r2
2cda: 0c2a                      mov.b   r2h, r2l
2cdc: 1822                      sub.b   r2h, r2h
2cde: 14a8                      or.b    r2l, r0l
2ce0: 6f75 0012                 mov.w   @(h'12, sp), r5
2ce4: 1953                      sub.w   r5, r3
2ce6: 0d33                      mov.w   r3, r3
2ce8: 4f12                      ble     h'002cfc
2cea: 0100 6f74 000c            mov.l   @(h'c, sp), er4
2cf0: 68c8                      mov.b   r0l, @er4
2cf2: 0b04                      adds.l  #1, er4
2cf4: 0100 6ff4 000c            mov.l   er4, @(h'c, sp)
2cfa: 40bc                      bt      h'002cb8
2cfc: 6f75 0016                 mov.w   @(h'16, sp), r5
2d00: 6f74 0018                 mov.w   @(h'18, sp), r4
2d04: 6645                      and.w   r4, r5
2d06: 6ff5 0016                 mov.w   r5, @(h'16, sp)
2d0a: 6e7a 0017                 mov.b   @(h'17, sp), r2l
2d0e: 170a                      not.b   r2l
2d10: 0100 6f75 000c            mov.l   @(h'c, sp), er5
2d16: 685d                      mov.b   @er5, r5l
2d18: 16da                      and.b   r5l, r2l
2d1a: 6e7c 0017                 mov.b   @(h'17, sp), r4l
2d1e: 16c8                      and.b   r4l, r0l
2d20: 148a                      or.b    r0l, r2l
2d22: 0100 6f75 000c            mov.l   @(h'c, sp), er5
2d28: 68da                      mov.b   r2l, @er5
2d2a: 0120 6d76                 ldm.l   @sp+, er4-er6
2d2e: 7a17 0000 0010            add.l   #h'00000010, sp
2d34: 5470                      rts
2d36: 7a37 0000 0014            sub.l   #h'00000014, sp
2d3c: 0120 6df4                 stm.l   er4-er6, @-sp
2d40: 0100 6ff0 001c            mov.l   er0, @(h'1c, sp)
2d46: 0d16                      mov.w   r1, r6
2d48: 0100 6ff2 000c            mov.l   er2, @(h'c, sp)
2d4e: 6f71 002a                 mov.w   @(h'2a, sp), r1
2d52: 58f0 0254                 ble     h'002faa
2d56: 6f72 0026                 mov.w   @(h'26, sp), r2
2d5a: 17f2                      exts.l  er2
2d5c: 7820 6a2a 00ff ed04       mov.b   @(h'ffed04, er2), r2l
2d64: f200                      mov.b   #h'00, r2h
2d66: 6ff2 001a                 mov.w   r2, @(h'1a, sp)
2d6a: 0d13                      mov.w   r1, r3
2d6c: 1b03                      subs.l  #1, er3
2d6e: 0936                      add.w   r3, r6
2d70: 6ff6 0012                 mov.w   r6, @(h'12, sp)
2d74: 6f72 0012                 mov.w   @(h'12, sp), r2
2d78: 0d66                      mov.w   r6, r6
2d7a: 4c04                      bge     h'002d80
2d7c: 0b82                      adds.l  #2, er2
2d7e: 0b02                      adds.l  #1, er2
2d80: 0d26                      mov.w   r2, r6
2d82: 11d6                      shar.w  #2, r6
2d84: 0d62                      mov.w   r6, r2
2d86: 17f2                      exts.l  er2
2d88: 0100 6f74 001c            mov.l   @(h'1c, sp), er4
2d8e: 0aa4                      add.l   er2, er4
2d90: 0100 6ff4 001c            mov.l   er4, @(h'1c, sp)
2d96: 6f70 0026                 mov.w   @(h'26, sp), r0
2d9a: 0930                      add.w   r3, r0
2d9c: 0d02                      mov.w   r0, r2
2d9e: 0d00                      mov.w   r0, r0
2da0: 4c04                      bge     h'002da6
2da2: 0b82                      adds.l  #2, er2
2da4: 0b02                      adds.l  #1, er2
2da6: 0d23                      mov.w   r2, r3
2da8: 11d3                      shar.w  #2, r3
2daa: 0d32                      mov.w   r3, r2
2dac: 17f2                      exts.l  er2
2dae: 0100 6f75 000c            mov.l   @(h'c, sp), er5
2db4: 0aa5                      add.l   er2, er5
2db6: 0100 6ff5 000c            mov.l   er5, @(h'c, sp)
2dbc: 6f74 0012                 mov.w   @(h'12, sp), r4
2dc0: 1056                      shll.w  #2, r6
2dc2: 6f75 0012                 mov.w   @(h'12, sp), r5
2dc6: 1965                      sub.w   r6, r5
2dc8: 0d56                      mov.w   r5, r6
2dca: 1053                      shll.w  #2, r3
2dcc: 1930                      sub.w   r3, r0
2dce: 6ff0 0026                 mov.w   r0, @(h'26, sp)
2dd2: 0d02                      mov.w   r0, r2
2dd4: 17f2                      exts.l  er2
2dd6: 7820 6a2a 00ff ed08       mov.b   @(h'ffed08, er2), r2l
2dde: f200                      mov.b   #h'00, r2h
2de0: 6ff2 0018                 mov.w   r2, @(h'18, sp)
2de4: 0d12                      mov.w   r1, r2
2de6: 1012                      shll.w  r2
2de8: 0d21                      mov.w   r2, r1
2dea: 0d60                      mov.w   r6, r0
2dec: 1010                      shll.w  r0
2dee: 0d06                      mov.w   r0, r6
2df0: 6f73 0026                 mov.w   @(h'26, sp), r3
2df4: 1013                      shll.w  r3
2df6: 6ff3 0026                 mov.w   r3, @(h'26, sp)
2dfa: 1d63                      cmp.w   r6, r3
2dfc: 4666                      bne     h'002e64
2dfe: 0100 6f74 001c            mov.l   @(h'1c, sp), er4
2e04: 6848                      mov.b   @er4, r0l
2e06: 1b81                      subs.l  #2, er1
2e08: 1931                      sub.w   r3, r1
2e0a: 0d11                      mov.w   r1, r1
2e0c: 58f0 016c                 ble     h'002f7c
2e10: 6e7a 0019                 mov.b   @(h'19, sp), r2l
2e14: 170a                      not.b   r2l
2e16: 0100 6f75 000c            mov.l   @(h'c, sp), er5
2e1c: 685d                      mov.b   @er5, r5l
2e1e: 16da                      and.b   r5l, r2l
2e20: 6e7c 0019                 mov.b   @(h'19, sp), r4l
2e24: 16c8                      and.b   r4l, r0l
2e26: 148a                      or.b    r0l, r2l
2e28: 0100 6f75 000c            mov.l   @(h'c, sp), er5
2e2e: 68da                      mov.b   r2l, @er5
2e30: 7904 ffff                 mov.w   #h'ffff, r4
2e34: 6ff4 0018                 mov.w   r4, @(h'18, sp)
2e38: 0100 6f75 000c            mov.l   @(h'c, sp), er5
2e3e: 1b05                      subs.l  #1, er5
2e40: 0100 6ff5 000c            mov.l   er5, @(h'c, sp)
2e46: 0100 6f74 001c            mov.l   @(h'1c, sp), er4
2e4c: 1b04                      subs.l  #1, er4
2e4e: 0100 6ff4 001c            mov.l   er4, @(h'1c, sp)
2e54: 6848                      mov.b   @er4, r0l
2e56: 1b91                      subs.l  #4, er1
2e58: 1b91                      subs.l  #4, er1
2e5a: 0d11                      mov.w   r1, r1
2e5c: 58f0 011c                 ble     h'002f7c
2e60: 68d8                      mov.b   r0l, @er5
2e62: 40d4                      bt      h'002e38
2e64: 0100 6f75 001c            mov.l   @(h'1c, sp), er5
2e6a: 6859                      mov.b   @er5, r1l
2e6c: f100                      mov.b   #h'00, r1h
2e6e: 1b82                      subs.l  #2, er2
2e70: 1d03                      cmp.w   r0, r3
2e72: 4d58                      blt     h'002ecc
2e74: 6f74 0026                 mov.w   @(h'26, sp), r4
2e78: 1964                      sub.w   r6, r4
2e7a: 6ff4 0016                 mov.w   r4, @(h'16, sp)
2e7e: 7905 0008                 mov.w   #h'0008, r5
2e82: 1945                      sub.w   r4, r5
2e84: 6ff5 0014                 mov.w   r5, @(h'14, sp)
2e88: 0d10                      mov.w   r1, r0
2e8a: 6e7c 0017                 mov.b   @(h'17, sp), r4l
2e8e: 0ccd                      mov.b   r4l, r5l
2e90: 4f06                      ble     h'002e98
2e92: 1190                      shar.w  r0
2e94: 8dff                      add.b   #h'ff, r5l
2e96: 46fa                      bne     h'002e92
2e98: 0d21                      mov.w   r2, r1
2e9a: 1961                      sub.w   r6, r1
2e9c: 0d11                      mov.w   r1, r1
2e9e: 58f0 00da                 ble     h'002f7c
2ea2: 0100 6f74 001c            mov.l   @(h'1c, sp), er4
2ea8: 1b04                      subs.l  #1, er4
2eaa: 0100 6ff4 001c            mov.l   er4, @(h'1c, sp)
2eb0: 684b                      mov.b   @er4, r3l
2eb2: f300                      mov.b   #h'00, r3h
2eb4: 6e7d 0015                 mov.b   @(h'15, sp), r5l
2eb8: 0cdc                      mov.b   r5l, r4l
2eba: 4f06                      ble     h'002ec2
2ebc: 1013                      shll.w  r3
2ebe: 8cff                      add.b   #h'ff, r4l
2ec0: 46fa                      bne     h'002ebc
2ec2: 14b8                      or.b    r3l, r0l
2ec4: 6f75 0016                 mov.w   @(h'16, sp), r5
2ec8: 1951                      sub.w   r5, r1
2eca: 402e                      bt      h'002efa
2ecc: 6f74 0026                 mov.w   @(h'26, sp), r4
2ed0: 1946                      sub.w   r4, r6
2ed2: 6ff6 0014                 mov.w   r6, @(h'14, sp)
2ed6: 7905 0008                 mov.w   #h'0008, r5
2eda: 1965                      sub.w   r6, r5
2edc: 6ff5 0016                 mov.w   r5, @(h'16, sp)
2ee0: 0d13                      mov.w   r1, r3
2ee2: 6e7c 0015                 mov.b   @(h'15, sp), r4l
2ee6: 0ccd                      mov.b   r4l, r5l
2ee8: 4f06                      ble     h'002ef0
2eea: 1013                      shll.w  r3
2eec: 8dff                      add.b   #h'ff, r5l
2eee: 46fa                      bne     h'002eea
2ef0: 0cb8                      mov.b   r3l, r0l
2ef2: 0d21                      mov.w   r2, r1
2ef4: 6f74 0026                 mov.w   @(h'26, sp), r4
2ef8: 1941                      sub.w   r4, r1
2efa: 0d11                      mov.w   r1, r1
2efc: 4f7e                      ble     h'002f7c
2efe: 6e7a 0019                 mov.b   @(h'19, sp), r2l
2f02: 170a                      not.b   r2l
2f04: 0100 6f75 000c            mov.l   @(h'c, sp), er5
2f0a: 685d                      mov.b   @er5, r5l
2f0c: 16da                      and.b   r5l, r2l
2f0e: 6e7c 0019                 mov.b   @(h'19, sp), r4l
2f12: 16c8                      and.b   r4l, r0l
2f14: 148a                      or.b    r0l, r2l
2f16: 0100 6f75 000c            mov.l   @(h'c, sp), er5
2f1c: 68da                      mov.b   r2l, @er5
2f1e: 1b05                      subs.l  #1, er5
2f20: 0100 6ff5 000c            mov.l   er5, @(h'c, sp)
2f26: 7904 ffff                 mov.w   #h'ffff, r4
2f2a: 6ff4 0018                 mov.w   r4, @(h'18, sp)
2f2e: 0d30                      mov.w   r3, r0
2f30: 0c08                      mov.b   r0h, r0l
2f32: 1800                      sub.b   r0h, r0h
2f34: 6f74 0014                 mov.w   @(h'14, sp), r4
2f38: 1941                      sub.w   r4, r1
2f3a: 0d11                      mov.w   r1, r1
2f3c: 4f3e                      ble     h'002f7c
2f3e: 0100 6f75 001c            mov.l   @(h'1c, sp), er5
2f44: 1b05                      subs.l  #1, er5
2f46: 0100 6ff5 001c            mov.l   er5, @(h'1c, sp)
2f4c: 685b                      mov.b   @er5, r3l
2f4e: f300                      mov.b   #h'00, r3h
2f50: 6e7c 0015                 mov.b   @(h'15, sp), r4l
2f54: 0ccd                      mov.b   r4l, r5l
2f56: 4f06                      ble     h'002f5e
2f58: 1013                      shll.w  r3
2f5a: 8dff                      add.b   #h'ff, r5l
2f5c: 46fa                      bne     h'002f58
2f5e: 14b8                      or.b    r3l, r0l
2f60: 6f74 0016                 mov.w   @(h'16, sp), r4
2f64: 1941                      sub.w   r4, r1
2f66: 0d11                      mov.w   r1, r1
2f68: 4f12                      ble     h'002f7c
2f6a: 0100 6f75 000c            mov.l   @(h'c, sp), er5
2f70: 68d8                      mov.b   r0l, @er5
2f72: 1b05                      subs.l  #1, er5
2f74: 0100 6ff5 000c            mov.l   er5, @(h'c, sp)
2f7a: 40b2                      bt      h'002f2e
2f7c: 6f74 0018                 mov.w   @(h'18, sp), r4
2f80: 6f75 001a                 mov.w   @(h'1a, sp), r5
2f84: 6654                      and.w   r5, r4
2f86: 6ff4 0018                 mov.w   r4, @(h'18, sp)
2f8a: 6e7a 0019                 mov.b   @(h'19, sp), r2l
2f8e: 170a                      not.b   r2l
2f90: 0100 6f74 000c            mov.l   @(h'c, sp), er4
2f96: 684c                      mov.b   @er4, r4l
2f98: 16ca                      and.b   r4l, r2l
2f9a: 6e7d 0019                 mov.b   @(h'19, sp), r5l
2f9e: 16d8                      and.b   r5l, r0l
2fa0: 148a                      or.b    r0l, r2l
2fa2: 0100 6f74 000c            mov.l   @(h'c, sp), er4
2fa8: 68ca                      mov.b   r2l, @er4
2faa: 0120 6d76                 ldm.l   @sp+, er4-er6
2fae: 7a17 0000 0014            add.l   #h'00000014, sp
2fb4: 5470                      rts
2fb6: 7a37 0000 000c            sub.l   #h'0000000c, sp
2fbc: 0120 6df4                 stm.l   er4-er6, @-sp
2fc0: 0100 6ff0 000c            mov.l   er0, @(h'c, sp)
2fc6: 6ff1 0016                 mov.w   r1, @(h'16, sp)
2fca: 6ff2 0014                 mov.w   r2, @(h'14, sp)
2fce: 0100 6f76 001c            mov.l   @(h'1c, sp), er6
2fd4: 6f72 0022                 mov.w   @(h'22, sp), r2
2fd8: 4c04                      bge     h'002fde
2fda: 7912 0007                 add.w   #h'0007, r2
2fde: 11d2                      shar.w  #2, r2
2fe0: 1192                      shar.w  r2
2fe2: 0d23                      mov.w   r2, r3
2fe4: 17f3                      exts.l  er3
2fe6: 0ab6                      add.l   er3, er6
2fe8: 1052                      shll.w  #2, r2
2fea: 1012                      shll.w  r2
2fec: 6f74 0022                 mov.w   @(h'22, sp), r4
2ff0: 1924                      sub.w   r2, r4
2ff2: 6ff4 0022                 mov.w   r4, @(h'22, sp)
2ff6: 0100 6f75 000c            mov.l   @(h'c, sp), er5
2ffc: 6858                      mov.b   @er5, r0l
2ffe: 6869                      mov.b   @er6, r1l
3000: f100                      mov.b   #h'00, r1h
3002: 6e7c 0023                 mov.b   @(h'23, sp), r4l
3006: 0ccd                      mov.b   r4l, r5l
3008: 4f06                      ble     h'003010
300a: 1011                      shll.w  r1
300c: 8dff                      add.b   #h'ff, r5l
300e: 46fa                      bne     h'00300a
3010: 6a0c ed00                 mov.b   @h'ffed00, r4l
3014: 0cc4                      mov.b   r4l, r4h
3016: 18cc                      sub.b   r4l, r4l
3018: 6f72 0026                 mov.w   @(h'26, sp), r2
301c: 17f2                      exts.l  er2
301e: 1072                      shll.l  #2, er2
3020: 7820 6a2a 00ff ed10       mov.b   @(h'ffed10, er2), r2l
3028: f200                      mov.b   #h'00, r2h
302a: 6424                      or.w    r2, r4
302c: 6ff4 0012                 mov.w   r4, @(h'12, sp)
3030: 6f74 0016                 mov.w   @(h'16, sp), r4
3034: 0944                      add.w   r4, r4
3036: 6ff4 0016                 mov.w   r4, @(h'16, sp)
303a: 6f73 0012                 mov.w   @(h'12, sp), r3
303e: 6e7d 0017                 mov.b   @(h'17, sp), r5l
3042: 0cdc                      mov.b   r5l, r4l
3044: 4f06                      ble     h'00304c
3046: 1113                      shlr.w  r3
3048: 8cff                      add.b   #h'ff, r4l
304a: 46fa                      bne     h'003046
304c: 6f72 0014                 mov.w   @(h'14, sp), r2
3050: 0d25                      mov.w   r2, r5
3052: 1b05                      subs.l  #1, er5
3054: 6ff5 0014                 mov.w   r5, @(h'14, sp)
3058: 0d22                      mov.w   r2, r2
305a: 4f60                      ble     h'0030bc
305c: 1011                      shll.w  r1
305e: 7301                      btst    #0, r1h
3060: 470c                      beq     h'00306e
3062: 0d32                      mov.w   r3, r2
3064: 0c2a                      mov.b   r2h, r2l
3066: 1822                      sub.b   r2h, r2h
3068: 170a                      not.b   r2l
306a: 16a8                      and.b   r2l, r0l
306c: 14b8                      or.b    r3l, r0l
306e: 6f75 0022                 mov.w   @(h'22, sp), r5
3072: 0b05                      adds.l  #1, er5
3074: 6ff5 0022                 mov.w   r5, @(h'22, sp)
3078: 1153                      shlr.w  #2, r3
307a: 0d32                      mov.w   r3, r2
307c: 0c2a                      mov.b   r2h, r2l
307e: 1822                      sub.b   r2h, r2h
3080: 0d22                      mov.w   r2, r2
3082: 4616                      bne     h'00309a
3084: 0100 6f75 000c            mov.l   @(h'c, sp), er5
308a: 68d8                      mov.b   r0l, @er5
308c: 0b05                      adds.l  #1, er5
308e: 0100 6ff5 000c            mov.l   er5, @(h'c, sp)
3094: 6858                      mov.b   @er5, r0l
3096: 6f73 0012                 mov.w   @(h'12, sp), r3
309a: 6f72 0022                 mov.w   @(h'22, sp), r2
309e: ea07                      and.b   #h'07, r2l
30a0: e200                      and.b   #h'00, r2h
30a2: 0d22                      mov.w   r2, r2
30a4: 4606                      bne     h'0030ac
30a6: 0b06                      adds.l  #1, er6
30a8: 6869                      mov.b   @er6, r1l
30aa: f100                      mov.b   #h'00, r1h
30ac: 6f72 0014                 mov.w   @(h'14, sp), r2
30b0: 0d24                      mov.w   r2, r4
30b2: 1b04                      subs.l  #1, er4
30b4: 6ff4 0014                 mov.w   r4, @(h'14, sp)
30b8: 0d22                      mov.w   r2, r2
30ba: 4ea0                      bgt     h'00305c
30bc: 0c3b                      mov.b   r3h, r3l
30be: 1833                      sub.b   r3h, r3h
30c0: 0d33                      mov.w   r3, r3
30c2: 4708                      beq     h'0030cc
30c4: 0100 6f74 000c            mov.l   @(h'c, sp), er4
30ca: 68c8                      mov.b   r0l, @er4
30cc: 0120 6d76                 ldm.l   @sp+, er4-er6
30d0: 7a17 0000 000c            add.l   #h'0000000c, sp
30d6: 5470                      rts
30d8: 030c                      ldc     r4l, ccr
30da: 30c0                      mov.b   r0h, @h'ffffc0
30dc: 7a37 0000 0012            sub.l   #h'00000012, sp
30e2: 0100 69f3                 mov.l   er3, @sp
30e6: 0100 6ff1 0004            mov.l   er1, @(h'4, sp)
30ec: 0f86                      mov.l   er0, er6
30ee: 6ff0 000e                 mov.w   r0, @(h'e, sp)
30f2: 1a80                      sub.l   er0, er0
30f4: f064                      mov.b   #h'64, r0h
30f6: 5360                      divxu.w r6, er0
30f8: 6ff0 000c                 mov.w   r0, @(h'c, sp)
30fc: 1999                      sub.w   e1, e1
30fe: 0d61                      mov.w   r6, r1
3100: 790b 0003                 mov.w   #h'0003, e3
3104: 53b1                      divxu.w e3, er1
3106: 0d1b                      mov.w   r1, e3
3108: 1955                      sub.w   r5, r5
310a: 790d 0064                 mov.w   #h'0064, e5
310e: 190d                      sub.w   r0, e5
3110: 119d                      shar.w  e5
3112: 64dd                      or.w    e5, e5
3114: 4a0a                      bpl     h'003120
3116: 179d                      neg.w   e5
3118: 0db1                      mov.w   e3, r1
311a: 52d1                      mulxu.w e5, er1
311c: 0d15                      mov.w   r1, r5
311e: 19dd                      sub.w   e5, e5
3120: 6ff5 0010                 mov.w   r5, @(h'10, sp)
3124: 1ac4                      sub.l   er4, er4
3126: fc28                      mov.b   #h'28, r4l
3128: 52d4                      mulxu.w e5, er4
312a: 1774                      extu.l  er4
312c: 0aa4                      add.l   er2, er4
312e: 0100 6ff4 0008            mov.l   er4, @(h'8, sp)
3134: 0de8                      mov.w   e6, e0
3136: 10de                      shal.w  #2, e6
3138: 098e                      add.w   e0, e6
313a: 11de                      shar.w  #2, e6
313c: 0d64                      mov.w   r6, r4
313e: 09e6                      add.w   e6, r6
3140: 790e 0050                 mov.w   #h'0050, e6
3144: 01c0 52e6                 mulxs.w e6, er6
3148: 01d0 5346                 divxs.w r4, er6
314c: 1190                      shar.w  r0
314e: 1906                      sub.w   r0, r6
3150: 0d6e                      mov.w   r6, e6
3152: 1966                      sub.w   r6, r6
3154: 64ee                      or.w    e6, e6
3156: 4a0a                      bpl     h'003162
3158: 179e                      neg.w   e6
315a: 0db0                      mov.w   e3, r0
315c: 52e0                      mulxu.w e6, er0
315e: 0d06                      mov.w   r0, r6
3160: 19ee                      sub.w   e6, e6
3162: 6f70 000c                 mov.w   @(h'c, sp), r0
3166: 7920 0064                 cmp.w   #h'0064, r0
316a: 4b08                      bmi     h'003174
316c: 7900 0064                 mov.w   #h'0064, r0
3170: 6ff0 000c                 mov.w   r0, @(h'c, sp)
3174: 0100 6f70 0004            mov.l   @(h'4, sp), er0
317a: 0de1                      mov.w   e6, r1
317c: 1011                      shll.w  r1
317e: 1771                      extu.l  er1
3180: 0a90                      add.l   er1, er0
3182: 0100 6ff0 0004            mov.l   er0, @(h'4, sp)
3188: 1a80                      sub.l   er0, er0
318a: 0de0                      mov.w   e6, r0
318c: e803                      and.b   #h'03, r0l
318e: d803                      xor.b   #h'03, r0l
3190: 7800 6a2a 0000 30d8       mov.b   @(h'30d8, er0), r2l
3198: 170a                      not.b   r2l
319a: a620                      cmp.b   #h'20, r6h
319c: 4d04                      blt     h'0031a2
319e: 5a00 3270                 jmp     h'003270
31a2: 792e 00a0                 cmp.w   #h'00a0, e6
31a6: 4d04                      blt     h'0031ac
31a8: 5a00 3270                 jmp     h'003270
31ac: 6f7c 000e                 mov.w   @(h'e, sp), e4
31b0: 0100 6f70 0004            mov.l   @(h'4, sp), er0
31b6: 6904                      mov.w   @er0, r4
31b8: 0bf0                      inc.l   #2, er0
31ba: 0100 6ff0 0004            mov.l   er0, @(h'4, sp)
31c0: 1d4c                      cmp.w   r4, e4
31c2: 4d04                      blt     h'0031c8
31c4: 5a00 3266                 jmp     h'003266
31c8: 0100 6f74 0008            mov.l   @(h'8, sp), er4
31ce: 0de5                      mov.w   e6, r5
31d0: 1155                      shlr.w  #2, r5
31d2: 1775                      extu.l  er5
31d4: 0ad4                      add.l   er5, er4
31d6: 0100 6971                 mov.l   @sp, er1
31da: 6df6                      mov.w   r6, @-sp
31dc: 6499                      or.w    e1, e1
31de: 4a08                      bpl     h'0031e8
31e0: 1731                      not.l   er1
31e2: fe1f                      mov.b   #h'1f, r6l
31e4: 18e6                      sub.b   r6l, r6h
31e6: 1786                      neg.b   r6h
31e8: 1a80                      sub.l   er0, er0
31ea: 0c68                      mov.b   r6h, r0l
31ec: e8fc                      and.b   #h'fc, r0l
31ee: 1048                      shll.b  #2, r0l
31f0: 1008                      shll.b  r0l
31f2: 0a90                      add.l   er1, er0
31f4: 1ad5                      sub.l   er5, er5
31f6: f903                      mov.b   #h'03, r1l
31f8: 0c6d                      mov.b   r6h, r5l
31fa: 169d                      and.b   r1l, r5l
31fc: 159d                      xor.b   r1l, r5l
31fe: 7850 6a22 0000 30d8       mov.b   @(h'30d8, er5), r2h
3206: 0cd1                      mov.b   r5l, r1h
3208: 0de5                      mov.w   e6, r5
320a: 169d                      and.b   r1l, r5l
320c: 159d                      xor.b   r1l, r5l
320e: 181d                      sub.b   r1h, r5l
3210: f502                      mov.b   #h'02, r5h
3212: 0c1e                      mov.b   r1h, r6l
3214: 14ee                      or.b    r6l, r6l
3216: 4706                      beq     h'00321e
3218: 1045                      shll.b  #2, r5h
321a: 1a0e                      dec.b   #1, r6l
321c: 40f6                      bt      h'003214
321e: 6d76                      mov.w   @sp+, r6
3220: 0d5d                      mov.w   r5, e5
3222: 0f81                      mov.l   er0, er1
3224: 6f73 0010                 mov.w   @(h'10, sp), r3
3228: 6f7a 000c                 mov.w   @(h'c, sp), e2
322c: 1a80                      sub.l   er0, er0
322e: 0c38                      mov.b   r3h, r0l
3230: 0a90                      add.l   er1, er0
3232: 6805                      mov.b   @er0, r5h
3234: 1625                      and.b   r2h, r5h
3236: 0dd0                      mov.w   e5, r0
3238: 1c05                      cmp.b   r0h, r5h
323a: 471e                      beq     h'00325a
323c: 1488                      or.b    r0l, r0l
323e: 4712                      beq     h'003252
3240: 4b08                      bmi     h'00324a
3242: 1045                      shll.b  #2, r5h
3244: 1a08                      dec.b   #1, r0l
3246: 46fa                      bne     h'003242
3248: 4008                      bt      h'003252
324a: 1788                      neg.b   r0l
324c: 1145                      shlr.b  #2, r5h
324e: 1a08                      dec.b   #1, r0l
3250: 46fa                      bne     h'00324c
3252: 684d                      mov.b   @er4, r5l
3254: 16ad                      and.b   r2l, r5l
3256: 145d                      or.b    r5h, r5l
3258: 68cd                      mov.b   r5l, @er4
325a: 7a14 0000 0028            add.l   #h'00000028, er4
3260: 09b3                      add.w   e3, r3
3262: 1b5a                      dec.w   #1, e2
3264: 46c6                      bne     h'00322c
3266: 09b6                      add.w   e3, r6
3268: 0b5e                      inc.w   #1, e6
326a: 13ca                      rotr.b  #2, r2l
326c: 5a00 319a                 jmp     h'00319a
3270: 7a17 0000 0012            add.l   #h'00000012, sp
3276: 5470                      rts
3278: 7920 0040                 cmp.w   #h'0040, r0
327c: 4a02                      bpl     h'003280
327e: 5470                      rts
3280: 7a37 0000 0004            sub.l   #h'00000004, sp
3286: 0d86                      mov.w   e0, r6
3288: 0100 69f5                 mov.l   er5, @sp
328c: 0cbd                      mov.b   r3l, r5l
328e: 1753                      extu.w  r3
3290: 0d3e                      mov.w   r3, e6
3292: 115e                      shlr.w  #2, e6
3294: 1773                      extu.l  er3
3296: 1033                      shll.l  er3
3298: 0ac3                      add.l   er4, er3
329a: 69b0                      mov.w   r0, @er3
329c: f203                      mov.b   #h'03, r2h
329e: 162d                      and.b   r2h, r5l
32a0: 152d                      xor.b   r2h, r5l
32a2: 162a                      and.b   r2h, r2l
32a4: 152a                      xor.b   r2h, r2l
32a6: 0cdb                      mov.b   r5l, r3l
32a8: 18ad                      sub.b   r2l, r5l
32aa: 0d5d                      mov.w   r5, e5
32ac: 1752                      extu.w  r2
32ae: 1772                      extu.l  er2
32b0: 7820 6a22 0000 30d8       mov.b   @(h'30d8, er2), r2h
32b8: 1753                      extu.w  r3
32ba: 1773                      extu.l  er3
32bc: 7830 6a2a 0000 30d8       mov.b   @(h'30d8, er3), r2l
32c4: 170a                      not.b   r2l
32c6: 7904 6400                 mov.w   #h'6400, r4
32ca: 1774                      extu.l  er4
32cc: 5304                      divxu.w r0, er4
32ce: 790a 0064                 mov.w   #h'0064, e2
32d2: 19a4                      sub.w   e2, r4
32d4: 1794                      neg.w   r4
32d6: 7903 0052                 mov.w   #h'0052, r3
32da: 5230                      mulxu.w r3, er0
32dc: 0c08                      mov.b   r0h, r0l
32de: 0d83                      mov.w   e0, r3
32e0: 0cb0                      mov.b   r3l, r0h
32e2: 0d0b                      mov.w   r0, e3
32e4: 1933                      sub.w   r3, r3
32e6: 1194                      shar.w  r4
32e8: 4a08                      bpl     h'0032f2
32ea: 1794                      neg.w   r4
32ec: 52b4                      mulxu.w e3, er4
32ee: 0d43                      mov.w   r4, r3
32f0: 1944                      sub.w   r4, r4
32f2: 0d4c                      mov.w   r4, e4
32f4: 101c                      shll.w  e4
32f6: 19ca                      sub.w   e4, e2
32f8: 790c 0028                 mov.w   #h'0028, e4
32fc: 52c4                      mulxu.w e4, er4
32fe: 09e4                      add.w   e6, r4
3300: 0100 6970                 mov.l   @sp, er0
3304: 0a84                      add.l   er0, er4
3306: 1a80                      sub.l   er0, er0
3308: 0c38                      mov.b   r3h, r0l
330a: 08e8                      add.b   r6l, r0l
330c: e81f                      and.b   #h'1f, r0l
330e: 0a90                      add.l   er1, er0
3310: 6805                      mov.b   @er0, r5h
3312: 1625                      and.b   r2h, r5h
3314: 0dd0                      mov.w   e5, r0
3316: 1488                      or.b    r0l, r0l
3318: 4712                      beq     h'00332c
331a: 4b08                      bmi     h'003324
331c: 1045                      shll.b  #2, r5h
331e: 1a08                      dec.b   #1, r0l
3320: 46fa                      bne     h'00331c
3322: 4008                      bt      h'00332c
3324: 1788                      neg.b   r0l
3326: 1145                      shlr.b  #2, r5h
3328: 1a08                      dec.b   #1, r0l
332a: 46fa                      bne     h'003326
332c: 684d                      mov.b   @er4, r5l
332e: 16ad                      and.b   r2l, r5l
3330: 145d                      or.b    r5h, r5l
3332: 68cd                      mov.b   r5l, @er4
3334: 7a14 0000 0028            add.l   #h'00000028, er4
333a: 09b3                      add.w   e3, r3
333c: 1b5a                      dec.w   #1, e2
333e: 46c6                      bne     h'003306
3340: 7a17 0000 0004            add.l   #h'00000004, sp
3346: 5470                      rts
3348: 0fe2                      mov.l   er6, er2
334a: 0ccb                      mov.b   r4l, r3l
334c: ec03                      and.b   #h'03, r4l
334e: 18dd                      sub.b   r5l, r5l
3350: f504                      mov.b   #h'04, r5h
3352: 14cd                      or.b    r4l, r5l
3354: 104c                      shll.b  #2, r4l
3356: 1a05                      dec.b   #1, r5h
3358: 46f8                      bne     h'003352
335a: 0cd5                      mov.b   r5l, r5h
335c: 0d5d                      mov.w   r5, e5
335e: 7904 01f4                 mov.w   #h'01f4, r4
3362: 0100 69e5                 mov.l   er5, @er6
3366: 0bf6                      inc.l   #2, er6
3368: 0bf6                      inc.l   #2, er6
336a: 1b54                      dec.w   #1, r4
336c: 46f4                      bne     h'003362
336e: 0cbc                      mov.b   r3l, r4l
3370: 114c                      shlr.b  #2, r4l
3372: 7a06 0000 07d0            mov.l   #h'000007d0, er6
3378: 0aa6                      add.l   er2, er6
337a: ec03                      and.b   #h'03, r4l
337c: 18dd                      sub.b   r5l, r5l
337e: f504                      mov.b   #h'04, r5h
3380: 14cd                      or.b    r4l, r5l
3382: 104c                      shll.b  #2, r4l
3384: 1a05                      dec.b   #1, r5h
3386: 46f8                      bne     h'003380
3388: 0cd5                      mov.b   r5l, r5h
338a: 0d5d                      mov.w   r5, e5
338c: 7904 01f4                 mov.w   #h'01f4, r4
3390: 0100 69e5                 mov.l   er5, @er6
3394: 0bf6                      inc.l   #2, er6
3396: 0bf6                      inc.l   #2, er6
3398: 1b54                      dec.w   #1, r4
339a: 46f4                      bne     h'003390
339c: 5470                      rts
339e: 0c1c                      mov.b   r1h, r4l
33a0: 1754                      extu.w  r4
33a2: fd28                      mov.b   #h'28, r5l
33a4: 50d4                      mulxu.b r5l, r4
33a6: 1149                      shlr.b  #2, r1l
33a8: 1751                      extu.w  r1
33aa: 0914                      add.w   r1, r4
33ac: 1774                      extu.l  er4
33ae: 0ae4                      add.l   er6, er4
33b0: 0fc6                      mov.l   er4, er6
33b2: 0c89                      mov.b   r0l, r1l
33b4: 1751                      extu.w  r1
33b6: 1151                      shlr.w  #2, r1
33b8: 0d18                      mov.w   r1, e0
33ba: f903                      mov.b   #h'03, r1l
33bc: f1fc                      mov.b   #h'fc, r1h
33be: f802                      mov.b   #h'02, r0l
33c0: 0fa5                      mov.l   er2, er5
33c2: 6488                      or.w    e0, e0
33c4: 473e                      beq     h'003404
33c6: 0fe4                      mov.l   er6, er4
33c8: 0c03                      mov.b   r0h, r3h
33ca: 1433                      or.b    r3h, r3h
33cc: 4730                      beq     h'0033fe
33ce: 790b 0004                 mov.w   #h'0004, e3
33d2: 684a                      mov.b   @er4, r2l
33d4: 685b                      mov.b   @er5, r3l
33d6: 0cb2                      mov.b   r3l, r2h
33d8: 1692                      and.b   r1l, r2h
33da: 1c82                      cmp.b   r0l, r2h
33dc: 4604                      bne     h'0033e2
33de: 161b                      and.b   r1h, r3l
33e0: 4002                      bt      h'0033e4
33e2: 161a                      and.b   r1h, r2l
33e4: 12c9                      rotl.b  #2, r1l
33e6: 12c1                      rotl.b  #2, r1h
33e8: 12c8                      rotl.b  #2, r0l
33ea: 1b5b                      dec.w   #1, e3
33ec: 46e8                      bne     h'0033d6
33ee: 14ab                      or.b    r2l, r3l
33f0: 68cb                      mov.b   r3l, @er4
33f2: 7a14 0000 0028            add.l   #h'00000028, er4
33f8: 0b75                      inc.l   #1, er5
33fa: 1a03                      dec.b   #1, r3h
33fc: 40ce                      bt      h'0033cc
33fe: 0b76                      inc.l   #1, er6
3400: 1b58                      dec.w   #1, e0
3402: 40c0                      bt      h'0033c4
3404: 5470                      rts
3406: 7903 03e8                 mov.w   #h'03e8, r3
340a: 0100 6d12                 mov.l   @er1+, er2
340e: 0100 6d04                 mov.l   @er0+, er4
3412: 01f0 6424                 or.l    er2, er4
3416: 0100 6f84 fffc            mov.l   er4, @(h'fffc, er0)
341c: 1b53                      dec.w   #1, r3
341e: 46ea                      bne     h'00340a
3420: 5470                      rts
3422: 7903 03e8                 mov.w   #h'03e8, r3
3426: 0100 6d12                 mov.l   @er1+, er2
342a: 0100 6d04                 mov.l   @er0+, er4
342e: 01f0 6524                 xor.l   er2, er4
3432: 0100 6f84 fffc            mov.l   er4, @(h'fffc, er0)
3438: 1b53                      dec.w   #1, r3
343a: 46ea                      bne     h'003426
343c: 5470                      rts
343e: 030c                      ldc     r4l, ccr
3440: 30c0                      mov.b   r0h, @h'ffffc0
3442: 7a37 0000 0012            sub.l   #h'00000012, sp
3448: 0100 69f3                 mov.l   er3, @sp
344c: 0100 6ff1 0004            mov.l   er1, @(h'4, sp)
3452: 0f86                      mov.l   er0, er6
3454: 6ff0 000e                 mov.w   r0, @(h'e, sp)
3458: 1a80                      sub.l   er0, er0
345a: f064                      mov.b   #h'64, r0h
345c: 5360                      divxu.w r6, er0
345e: 6ff0 000c                 mov.w   r0, @(h'c, sp)
3462: 1999                      sub.w   e1, e1
3464: 0d61                      mov.w   r6, r1
3466: 790b 0003                 mov.w   #h'0003, e3
346a: 53b1                      divxu.w e3, er1
346c: 0d1b                      mov.w   r1, e3
346e: 1955                      sub.w   r5, r5
3470: 790d 0064                 mov.w   #h'0064, e5
3474: 190d                      sub.w   r0, e5
3476: 119d                      shar.w  e5
3478: 64dd                      or.w    e5, e5
347a: 4a0a                      bpl     h'003486
347c: 179d                      neg.w   e5
347e: 0db1                      mov.w   e3, r1
3480: 52d1                      mulxu.w e5, er1
3482: 0d15                      mov.w   r1, r5
3484: 19dd                      sub.w   e5, e5
3486: 6ff5 0010                 mov.w   r5, @(h'10, sp)
348a: 1ac4                      sub.l   er4, er4
348c: fc28                      mov.b   #h'28, r4l
348e: 52d4                      mulxu.w e5, er4
3490: 1774                      extu.l  er4
3492: 0aa4                      add.l   er2, er4
3494: 0100 6ff4 0008            mov.l   er4, @(h'8, sp)
349a: 0de8                      mov.w   e6, e0
349c: 10de                      shal.w  #2, e6
349e: 098e                      add.w   e0, e6
34a0: 11de                      shar.w  #2, e6
34a2: 0d64                      mov.w   r6, r4
34a4: 09e6                      add.w   e6, r6
34a6: 790e 0050                 mov.w   #h'0050, e6
34aa: 01c0 52e6                 mulxs.w e6, er6
34ae: 01d0 5346                 divxs.w r4, er6
34b2: 1190                      shar.w  r0
34b4: 1906                      sub.w   r0, r6
34b6: 0d6e                      mov.w   r6, e6
34b8: 1966                      sub.w   r6, r6
34ba: 64ee                      or.w    e6, e6
34bc: 4a0a                      bpl     h'0034c8
34be: 179e                      neg.w   e6
34c0: 0db0                      mov.w   e3, r0
34c2: 52e0                      mulxu.w e6, er0
34c4: 0d06                      mov.w   r0, r6
34c6: 19ee                      sub.w   e6, e6
34c8: 6f70 000c                 mov.w   @(h'c, sp), r0
34cc: 7920 0064                 cmp.w   #h'0064, r0
34d0: 4b08                      bmi     h'0034da
34d2: 7900 0064                 mov.w   #h'0064, r0
34d6: 6ff0 000c                 mov.w   r0, @(h'c, sp)
34da: 0100 6f70 0004            mov.l   @(h'4, sp), er0
34e0: 0de1                      mov.w   e6, r1
34e2: 1011                      shll.w  r1
34e4: 1771                      extu.l  er1
34e6: 0a90                      add.l   er1, er0
34e8: 0100 6ff0 0004            mov.l   er0, @(h'4, sp)
34ee: 1a80                      sub.l   er0, er0
34f0: 0de0                      mov.w   e6, r0
34f2: e803                      and.b   #h'03, r0l
34f4: d803                      xor.b   #h'03, r0l
34f6: 7800 6a2a 0000 343e       mov.b   @(h'343e, er0), r2l
34fe: 170a                      not.b   r2l
3500: a620                      cmp.b   #h'20, r6h
3502: 4d04                      blt     h'003508
3504: 5a00 35d6                 jmp     h'0035d6
3508: 792e 00a0                 cmp.w   #h'00a0, e6
350c: 4d04                      blt     h'003512
350e: 5a00 35d6                 jmp     h'0035d6
3512: 6f7c 000e                 mov.w   @(h'e, sp), e4
3516: 0100 6f70 0004            mov.l   @(h'4, sp), er0
351c: 6904                      mov.w   @er0, r4
351e: 0bf0                      inc.l   #2, er0
3520: 0100 6ff0 0004            mov.l   er0, @(h'4, sp)
3526: 1d4c                      cmp.w   r4, e4
3528: 4d04                      blt     h'00352e
352a: 5a00 35cc                 jmp     h'0035cc
352e: 0100 6f74 0008            mov.l   @(h'8, sp), er4
3534: 0de5                      mov.w   e6, r5
3536: 1155                      shlr.w  #2, r5
3538: 1775                      extu.l  er5
353a: 0ad4                      add.l   er5, er4
353c: 0100 6971                 mov.l   @sp, er1
3540: 6df6                      mov.w   r6, @-sp
3542: 6499                      or.w    e1, e1
3544: 4a08                      bpl     h'00354e
3546: 1731                      not.l   er1
3548: fe1f                      mov.b   #h'1f, r6l
354a: 18e6                      sub.b   r6l, r6h
354c: 1786                      neg.b   r6h
354e: 1a80                      sub.l   er0, er0
3550: 0c68                      mov.b   r6h, r0l
3552: e8fc                      and.b   #h'fc, r0l
3554: 1048                      shll.b  #2, r0l
3556: 1008                      shll.b  r0l
3558: 0a90                      add.l   er1, er0
355a: 1ad5                      sub.l   er5, er5
355c: f903                      mov.b   #h'03, r1l
355e: 0c6d                      mov.b   r6h, r5l
3560: 169d                      and.b   r1l, r5l
3562: 159d                      xor.b   r1l, r5l
3564: 7850 6a22 0000 343e       mov.b   @(h'343e, er5), r2h
356c: 0cd1                      mov.b   r5l, r1h
356e: 0de5                      mov.w   e6, r5
3570: 169d                      and.b   r1l, r5l
3572: 159d                      xor.b   r1l, r5l
3574: 181d                      sub.b   r1h, r5l
3576: f502                      mov.b   #h'02, r5h
3578: 0c1e                      mov.b   r1h, r6l
357a: 14ee                      or.b    r6l, r6l
357c: 4706                      beq     h'003584
357e: 1045                      shll.b  #2, r5h
3580: 1a0e                      dec.b   #1, r6l
3582: 40f6                      bt      h'00357a
3584: 6d76                      mov.w   @sp+, r6
3586: 0d5d                      mov.w   r5, e5
3588: 0f81                      mov.l   er0, er1
358a: 6f73 0010                 mov.w   @(h'10, sp), r3
358e: 6f7a 000c                 mov.w   @(h'c, sp), e2
3592: 1a80                      sub.l   er0, er0
3594: 0c38                      mov.b   r3h, r0l
3596: 0a90                      add.l   er1, er0
3598: 6805                      mov.b   @er0, r5h
359a: 1625                      and.b   r2h, r5h
359c: 0dd0                      mov.w   e5, r0
359e: 1c05                      cmp.b   r0h, r5h
35a0: 471e                      beq     h'0035c0
35a2: 1488                      or.b    r0l, r0l
35a4: 4712                      beq     h'0035b8
35a6: 4b08                      bmi     h'0035b0
35a8: 1045                      shll.b  #2, r5h
35aa: 1a08                      dec.b   #1, r0l
35ac: 46fa                      bne     h'0035a8
35ae: 4008                      bt      h'0035b8
35b0: 1788                      neg.b   r0l
35b2: 1145                      shlr.b  #2, r5h
35b4: 1a08                      dec.b   #1, r0l
35b6: 46fa                      bne     h'0035b2
35b8: 684d                      mov.b   @er4, r5l
35ba: 16ad                      and.b   r2l, r5l
35bc: 145d                      or.b    r5h, r5l
35be: 68cd                      mov.b   r5l, @er4
35c0: 7a14 0000 0028            add.l   #h'00000028, er4
35c6: 09b3                      add.w   e3, r3
35c8: 1b5a                      dec.w   #1, e2
35ca: 46c6                      bne     h'003592
35cc: 09b6                      add.w   e3, r6
35ce: 0b5e                      inc.w   #1, e6
35d0: 13ca                      rotr.b  #2, r2l
35d2: 5a00 3500                 jmp     h'003500
35d6: 7a17 0000 0012            add.l   #h'00000012, sp
35dc: 5470                      rts
35de: 7920 0040                 cmp.w   #h'0040, r0
35e2: 4a02                      bpl     h'0035e6
35e4: 5470                      rts
35e6: 7a37 0000 0004            sub.l   #h'00000004, sp
35ec: 0100 69f5                 mov.l   er5, @sp
35f0: 0cbd                      mov.b   r3l, r5l
35f2: 1753                      extu.w  r3
35f4: 0d36                      mov.w   r3, r6
35f6: 1156                      shlr.w  #2, r6
35f8: 1773                      extu.l  er3
35fa: 1033                      shll.l  er3
35fc: 0ac3                      add.l   er4, er3
35fe: 69b0                      mov.w   r0, @er3
3600: f203                      mov.b   #h'03, r2h
3602: 162d                      and.b   r2h, r5l
3604: 152d                      xor.b   r2h, r5l
3606: 162a                      and.b   r2h, r2l
3608: 152a                      xor.b   r2h, r2l
360a: 0cdb                      mov.b   r5l, r3l
360c: 18ad                      sub.b   r2l, r5l
360e: 0d5d                      mov.w   r5, e5
3610: 1752                      extu.w  r2
3612: 1772                      extu.l  er2
3614: 7820 6a22 0000 343e       mov.b   @(h'343e, er2), r2h
361c: 1753                      extu.w  r3
361e: 1773                      extu.l  er3
3620: 7830 6a2a 0000 343e       mov.b   @(h'343e, er3), r2l
3628: 170a                      not.b   r2l
362a: 7904 6400                 mov.w   #h'6400, r4
362e: 1774                      extu.l  er4
3630: 5304                      divxu.w r0, er4
3632: 790a 0064                 mov.w   #h'0064, e2
3636: 19a4                      sub.w   e2, r4
3638: 1794                      neg.w   r4
363a: 7903 0052                 mov.w   #h'0052, r3
363e: 5230                      mulxu.w r3, er0
3640: 0c08                      mov.b   r0h, r0l
3642: 0d83                      mov.w   e0, r3
3644: 0cb0                      mov.b   r3l, r0h
3646: 0d0b                      mov.w   r0, e3
3648: 1933                      sub.w   r3, r3
364a: 1194                      shar.w  r4
364c: 4a08                      bpl     h'003656
364e: 1794                      neg.w   r4
3650: 52b4                      mulxu.w e3, er4
3652: 0d43                      mov.w   r4, r3
3654: 1944                      sub.w   r4, r4
3656: 0d4c                      mov.w   r4, e4
3658: 101c                      shll.w  e4
365a: 19ca                      sub.w   e4, e2
365c: 111a                      shlr.w  e2
365e: 790c 0028                 mov.w   #h'0028, e4
3662: 52c4                      mulxu.w e4, er4
3664: 0964                      add.w   r6, r4
3666: 0100 6970                 mov.l   @sp, er0
366a: 0a84                      add.l   er0, er4
366c: 1a80                      sub.l   er0, er0
366e: 0c38                      mov.b   r3h, r0l
3670: 0a90                      add.l   er1, er0
3672: 6805                      mov.b   @er0, r5h
3674: 1625                      and.b   r2h, r5h
3676: 0dd0                      mov.w   e5, r0
3678: 1488                      or.b    r0l, r0l
367a: 4712                      beq     h'00368e
367c: 4b08                      bmi     h'003686
367e: 1045                      shll.b  #2, r5h
3680: 1a08                      dec.b   #1, r0l
3682: 46fa                      bne     h'00367e
3684: 4008                      bt      h'00368e
3686: 1788                      neg.b   r0l
3688: 1145                      shlr.b  #2, r5h
368a: 1a08                      dec.b   #1, r0l
368c: 46fa                      bne     h'003688
368e: 684d                      mov.b   @er4, r5l
3690: 16ad                      and.b   r2l, r5l
3692: 145d                      or.b    r5h, r5l
3694: 68cd                      mov.b   r5l, @er4
3696: 7a14 0000 0028            add.l   #h'00000028, er4
369c: 09b3                      add.w   e3, r3
369e: 1b5a                      dec.w   #1, e2
36a0: 46ca                      bne     h'00366c
36a2: 7a17 0000 0004            add.l   #h'00000004, sp
36a8: 5470                      rts
36aa: ec03                      and.b   #h'03, r4l
36ac: 18dd                      sub.b   r5l, r5l
36ae: f504                      mov.b   #h'04, r5h
36b0: 14cd                      or.b    r4l, r5l
36b2: 104c                      shll.b  #2, r4l
36b4: 1a05                      dec.b   #1, r5h
36b6: 46f8                      bne     h'0036b0
36b8: 0cd5                      mov.b   r5l, r5h
36ba: 0d5d                      mov.w   r5, e5
36bc: 7904 01f4                 mov.w   #h'01f4, r4
36c0: 0100 69e5                 mov.l   er5, @er6
36c4: 0bf6                      inc.l   #2, er6
36c6: 0bf6                      inc.l   #2, er6
36c8: 1b54                      dec.w   #1, r4
36ca: 46f4                      bne     h'0036c0
36cc: 5470                      rts
36ce: 0f81                      mov.l   er0, er1
36d0: 7a11 0000 0f78            add.l   #h'00000f78, er1
36d6: f232                      mov.b   #h'32, r2h
36d8: fa0a                      mov.b   #h'0a, r2l
36da: 0100 6903                 mov.l   @er0, er3
36de: 0100 6993                 mov.l   er3, @er1
36e2: 0bf0                      inc.l   #2, er0
36e4: 0bf0                      inc.l   #2, er0
36e6: 0bf1                      inc.l   #2, er1
36e8: 0bf1                      inc.l   #2, er1
36ea: 1a0a                      dec.b   #1, r2l
36ec: 46ec                      bne     h'0036da
36ee: 7a31 0000 0050            sub.l   #h'00000050, er1
36f4: 1a02                      dec.b   #1, r2h
36f6: 46e0                      bne     h'0036d8
36f8: 5470                      rts
36fa: 0c1c                      mov.b   r1h, r4l
36fc: 1754                      extu.w  r4
36fe: fd28                      mov.b   #h'28, r5l
3700: 50d4                      mulxu.b r5l, r4
3702: 1149                      shlr.b  #2, r1l
3704: 1751                      extu.w  r1
3706: 0914                      add.w   r1, r4
3708: 1774                      extu.l  er4
370a: 7905 00a0                 mov.w   #h'00a0, r5
370e: 188d                      sub.b   r0l, r5l
3710: 1155                      shlr.w  #2, r5
3712: 1775                      extu.l  er5
3714: 1148                      shlr.b  #2, r0l
3716: 0c83                      mov.b   r0l, r3h
3718: 0d38                      mov.w   r3, e0
371a: 0ae4                      add.l   er6, er4
371c: 0fa6                      mov.l   er2, er6
371e: f903                      mov.b   #h'03, r1l
3720: f1fc                      mov.b   #h'fc, r1h
3722: f802                      mov.b   #h'02, r0l
3724: 0d83                      mov.w   e0, r3
3726: 686b                      mov.b   @er6, r3l
3728: 684a                      mov.b   @er4, r2l
372a: 790b 0004                 mov.w   #h'0004, e3
372e: 0cb2                      mov.b   r3l, r2h
3730: 1692                      and.b   r1l, r2h
3732: 1c82                      cmp.b   r0l, r2h
3734: 4604                      bne     h'00373a
3736: 161b                      and.b   r1h, r3l
3738: 4002                      bt      h'00373c
373a: 161a                      and.b   r1h, r2l
373c: 12c9                      rotl.b  #2, r1l
373e: 12c1                      rotl.b  #2, r1h
3740: 12c8                      rotl.b  #2, r0l
3742: 1b5b                      dec.w   #1, e3
3744: 46e8                      bne     h'00372e
3746: 14ab                      or.b    r2l, r3l
3748: 68cb                      mov.b   r3l, @er4
374a: 0b76                      inc.l   #1, er6
374c: 0b74                      inc.l   #1, er4
374e: 1a03                      dec.b   #1, r3h
3750: 46d4                      bne     h'003726
3752: 0ad4                      add.l   er5, er4
3754: 1a00                      dec.b   #1, r0h
3756: 46cc                      bne     h'003724
3758: 5470                      rts
375a: 7903 03e8                 mov.w   #h'03e8, r3
375e: 0100 6d12                 mov.l   @er1+, er2
3762: 0100 6d04                 mov.l   @er0+, er4
3766: 01f0 6424                 or.l    er2, er4
376a: 0100 6f84 fffc            mov.l   er4, @(h'fffc, er0)
3770: 1b53                      dec.w   #1, r3
3772: 46ea                      bne     h'00375e
3774: 5470                      rts
3776: 7903 03e8                 mov.w   #h'03e8, r3
377a: 0100 6d12                 mov.l   @er1+, er2
377e: 0100 6d04                 mov.l   @er0+, er4
3782: 01f0 6524                 xor.l   er2, er4
3786: 0100 6f84 fffc            mov.l   er4, @(h'fffc, er0)
378c: 1b53                      dec.w   #1, r3
378e: 46ea                      bne     h'00377a
3790: 5470                      rts
3792: 030c                      ldc     r4l, ccr
3794: 30c0                      mov.b   r0h, @h'ffffc0
3796: 7928 0100                 cmp.w   #h'0100, e0
379a: 4e02                      bgt     h'00379e
379c: 5470                      rts
379e: 1750                      extu.w  r0
37a0: 7903 3200                 mov.w   #h'3200, r3
37a4: 1773                      extu.l  er3
37a6: 5383                      divxu.w e0, er3
37a8: 0d38                      mov.w   r3, e0
37aa: 7904 0032                 mov.w   #h'0032, r4
37ae: 1984                      sub.w   e0, r4
37b0: 0fa5                      mov.l   er2, er5
37b2: 0c8a                      mov.b   r0l, r2l
37b4: 170a                      not.b   r2l
37b6: ea03                      and.b   #h'03, r2l
37b8: 1752                      extu.w  r2
37ba: 1772                      extu.l  er2
37bc: 7820 6a22 0000 3792       mov.b   @(h'3792, er2), r2h
37c4: 1702                      not.b   r2h
37c6: 1150                      shlr.w  #2, r0
37c8: 7903 0028                 mov.w   #h'0028, r3
37cc: 5283                      mulxu.w e0, er3
37ce: 0903                      add.w   r0, r3
37d0: 7913 07d0                 add.w   #h'07d0, r3
37d4: 1773                      extu.l  er3
37d6: 0ab6                      add.l   er3, er6
37d8: 0d4a                      mov.w   r4, e2
37da: 0d83                      mov.w   e0, r3
37dc: 1b53                      dec.w   #1, r3
37de: 1053                      shll.w  #2, r3
37e0: 1013                      shll.w  r3
37e2: 1773                      extu.l  er3
37e4: 0ab1                      add.l   er3, er1
37e6: 64aa                      or.w    e2, e2
37e8: 475a                      beq     h'003844
37ea: 0100 6d13                 mov.l   @er1+, er3
37ee: 0100 6d14                 mov.l   @er1+, er4
37f2: 0c3b                      mov.b   r3h, r3l
37f4: e3e0                      and.b   #h'e0, r3h
37f6: 0c4c                      mov.b   r4h, r4l
37f8: 1844                      sub.b   r4h, r4h
37fa: 114c                      shlr.b  #2, r4l
37fc: 110c                      shlr.b  r4l
37fe: 143c                      or.b    r3h, r4l
3800: 1754                      extu.w  r4
3802: 1774                      extu.l  er4
3804: 0ad4                      add.l   er5, er4
3806: 114b                      shlr.b  #2, r3l
3808: 110b                      shlr.b  r3l
380a: 170b                      not.b   r3l
380c: eb03                      and.b   #h'03, r3l
380e: 1753                      extu.w  r3
3810: 1773                      extu.l  er3
3812: 7830 6a23 0000 3792       mov.b   @(h'3792, er3), r3h
381a: 684c                      mov.b   @er4, r4l
381c: 163c                      and.b   r3h, r4l
381e: 0cb4                      mov.b   r3l, r4h
3820: 400a                      bt      h'00382c
3822: 104c                      shll.b  #2, r4l
3824: 0a04                      inc.b   #1, r4h
3826: 4004                      bt      h'00382c
3828: 114c                      shlr.b  #2, r4l
382a: 1a04                      dec.b   #1, r4h
382c: 1c4a                      cmp.b   r4h, r2l
382e: 4ef2                      bgt     h'003822
3830: 4df6                      blt     h'003828
3832: 6864                      mov.b   @er6, r4h
3834: 1624                      and.b   r2h, r4h
3836: 14c4                      or.b    r4l, r4h
3838: 68e4                      mov.b   r4h, @er6
383a: 7a16 0000 0028            add.l   #h'00000028, er6
3840: 1b5a                      dec.w   #1, e2
3842: 40a2                      bt      h'0037e6
3844: 5470                      rts
3846: 7908 0001                 mov.w   #h'0001, e0
384a: 6d53                      mov.w   @er5+, r3
384c: 17f3                      exts.l  er3
384e: 0100 6d64                 mov.l   @er6+, er4
3852: 0ab4                      add.l   er3, er4
3854: 0100 6fe4 fffc            mov.l   er4, @(h'fffc, er6)
385a: 6d53                      mov.w   @er5+, r3
385c: 17f3                      exts.l  er3
385e: 0100 6d64                 mov.l   @er6+, er4
3862: 0ab4                      add.l   er3, er4
3864: 0100 6fe4 fffc            mov.l   er4, @(h'fffc, er6)
386a: 0b58                      inc.w   #1, e0
386c: 7928 0032                 cmp.w   #h'0032, e0
3870: 46d8                      bne     h'00384a
3872: 5470                      rts
3874: 0c66                      mov.b   r6h, r6h
3876: 4606                      bne     h'00387e
3878: 6c4e                      mov.b   @er4+, r6l
387a: f6ff                      mov.b   #h'ff, r6h
387c: 1b05                      subs.l  #1, er5
387e: 1116                      shlr.w  r6
3880: 1230                      rotxl.l er0
3882: 0c66                      mov.b   r6h, r6h
3884: 4606                      bne     h'00388c
3886: 6c4e                      mov.b   @er4+, r6l
3888: f6ff                      mov.b   #h'ff, r6h
388a: 1b05                      subs.l  #1, er5
388c: 1116                      shlr.w  r6
388e: 1230                      rotxl.l er0
3890: 0c66                      mov.b   r6h, r6h
3892: 4606                      bne     h'00389a
3894: 6c4e                      mov.b   @er4+, r6l
3896: f6ff                      mov.b   #h'ff, r6h
3898: 1b05                      subs.l  #1, er5
389a: 1116                      shlr.w  r6
389c: 1230                      rotxl.l er0
389e: 0c66                      mov.b   r6h, r6h
38a0: 4606                      bne     h'0038a8
38a2: 6c4e                      mov.b   @er4+, r6l
38a4: f6ff                      mov.b   #h'ff, r6h
38a6: 1b05                      subs.l  #1, er5
38a8: 1116                      shlr.w  r6
38aa: 1230                      rotxl.l er0
38ac: 0c66                      mov.b   r6h, r6h
38ae: 4606                      bne     h'0038b6
38b0: 6c4e                      mov.b   @er4+, r6l
38b2: f6ff                      mov.b   #h'ff, r6h
38b4: 1b05                      subs.l  #1, er5
38b6: 1116                      shlr.w  r6
38b8: 1230                      rotxl.l er0
38ba: 0c66                      mov.b   r6h, r6h
38bc: 4606                      bne     h'0038c4
38be: 6c4e                      mov.b   @er4+, r6l
38c0: f6ff                      mov.b   #h'ff, r6h
38c2: 1b05                      subs.l  #1, er5
38c4: 1116                      shlr.w  r6
38c6: 1230                      rotxl.l er0
38c8: 0c66                      mov.b   r6h, r6h
38ca: 4606                      bne     h'0038d2
38cc: 6c4e                      mov.b   @er4+, r6l
38ce: f6ff                      mov.b   #h'ff, r6h
38d0: 1b05                      subs.l  #1, er5
38d2: 1116                      shlr.w  r6
38d4: 1230                      rotxl.l er0
38d6: 0c66                      mov.b   r6h, r6h
38d8: 4606                      bne     h'0038e0
38da: 6c4e                      mov.b   @er4+, r6l
38dc: f6ff                      mov.b   #h'ff, r6h
38de: 1b05                      subs.l  #1, er5
38e0: 1116                      shlr.w  r6
38e2: 1230                      rotxl.l er0
38e4: 0c66                      mov.b   r6h, r6h
38e6: 4606                      bne     h'0038ee
38e8: 6c4e                      mov.b   @er4+, r6l
38ea: f6ff                      mov.b   #h'ff, r6h
38ec: 1b05                      subs.l  #1, er5
38ee: 1116                      shlr.w  r6
38f0: 1230                      rotxl.l er0
38f2: 0c66                      mov.b   r6h, r6h
38f4: 4606                      bne     h'0038fc
38f6: 6c4e                      mov.b   @er4+, r6l
38f8: f6ff                      mov.b   #h'ff, r6h
38fa: 1b05                      subs.l  #1, er5
38fc: 1116                      shlr.w  r6
38fe: 1230                      rotxl.l er0
3900: 0c66                      mov.b   r6h, r6h
3902: 4606                      bne     h'00390a
3904: 6c4e                      mov.b   @er4+, r6l
3906: f6ff                      mov.b   #h'ff, r6h
3908: 1b05                      subs.l  #1, er5
390a: 1116                      shlr.w  r6
390c: 1230                      rotxl.l er0
390e: 0c66                      mov.b   r6h, r6h
3910: 4606                      bne     h'003918
3912: 6c4e                      mov.b   @er4+, r6l
3914: f6ff                      mov.b   #h'ff, r6h
3916: 1b05                      subs.l  #1, er5
3918: 1116                      shlr.w  r6
391a: 1230                      rotxl.l er0
391c: 5470                      rts
391e: 0c66                      mov.b   r6h, r6h
3920: 4606                      bne     h'003928
3922: 6c4e                      mov.b   @er4+, r6l
3924: f6ff                      mov.b   #h'ff, r6h
3926: 1b05                      subs.l  #1, er5
3928: 1116                      shlr.w  r6
392a: 120b                      rotxl.b r3l
392c: 0c66                      mov.b   r6h, r6h
392e: 4606                      bne     h'003936
3930: 6c4e                      mov.b   @er4+, r6l
3932: f6ff                      mov.b   #h'ff, r6h
3934: 1b05                      subs.l  #1, er5
3936: 1116                      shlr.w  r6
3938: 120b                      rotxl.b r3l
393a: 0c66                      mov.b   r6h, r6h
393c: 4606                      bne     h'003944
393e: 6c4e                      mov.b   @er4+, r6l
3940: f6ff                      mov.b   #h'ff, r6h
3942: 1b05                      subs.l  #1, er5
3944: 1116                      shlr.w  r6
3946: 120b                      rotxl.b r3l
3948: 0c66                      mov.b   r6h, r6h
394a: 4606                      bne     h'003952
394c: 6c4e                      mov.b   @er4+, r6l
394e: f6ff                      mov.b   #h'ff, r6h
3950: 1b05                      subs.l  #1, er5
3952: 1116                      shlr.w  r6
3954: 120b                      rotxl.b r3l
3956: 0c66                      mov.b   r6h, r6h
3958: 4606                      bne     h'003960
395a: 6c4e                      mov.b   @er4+, r6l
395c: f6ff                      mov.b   #h'ff, r6h
395e: 1b05                      subs.l  #1, er5
3960: 1116                      shlr.w  r6
3962: 120b                      rotxl.b r3l
3964: 0c66                      mov.b   r6h, r6h
3966: 4606                      bne     h'00396e
3968: 6c4e                      mov.b   @er4+, r6l
396a: f6ff                      mov.b   #h'ff, r6h
396c: 1b05                      subs.l  #1, er5
396e: 1116                      shlr.w  r6
3970: 120b                      rotxl.b r3l
3972: 0c66                      mov.b   r6h, r6h
3974: 4606                      bne     h'00397c
3976: 6c4e                      mov.b   @er4+, r6l
3978: f6ff                      mov.b   #h'ff, r6h
397a: 1b05                      subs.l  #1, er5
397c: 1116                      shlr.w  r6
397e: 120b                      rotxl.b r3l
3980: 0c66                      mov.b   r6h, r6h
3982: 4606                      bne     h'00398a
3984: 6c4e                      mov.b   @er4+, r6l
3986: f6ff                      mov.b   #h'ff, r6h
3988: 1b05                      subs.l  #1, er5
398a: 1116                      shlr.w  r6
398c: 120b                      rotxl.b r3l
398e: 5470                      rts
3990: 1933                      sub.w   r3, r3
3992: 0c66                      mov.b   r6h, r6h
3994: 4606                      bne     h'00399c
3996: 6c4e                      mov.b   @er4+, r6l
3998: f6ff                      mov.b   #h'ff, r6h
399a: 1b05                      subs.l  #1, er5
399c: 1116                      shlr.w  r6
399e: 4510                      bcs     h'0039b0
39a0: 0c66                      mov.b   r6h, r6h
39a2: 4606                      bne     h'0039aa
39a4: 6c4e                      mov.b   @er4+, r6l
39a6: f6ff                      mov.b   #h'ff, r6h
39a8: 1b05                      subs.l  #1, er5
39aa: 1116                      shlr.w  r6
39ac: 9b02                      addx.b  #h'02, r3l
39ae: 5470                      rts
39b0: 0c66                      mov.b   r6h, r6h
39b2: 4606                      bne     h'0039ba
39b4: 6c4e                      mov.b   @er4+, r6l
39b6: f6ff                      mov.b   #h'ff, r6h
39b8: 1b05                      subs.l  #1, er5
39ba: 1116                      shlr.w  r6
39bc: 4510                      bcs     h'0039ce
39be: 0c66                      mov.b   r6h, r6h
39c0: 4606                      bne     h'0039c8
39c2: 6c4e                      mov.b   @er4+, r6l
39c4: f6ff                      mov.b   #h'ff, r6h
39c6: 1b05                      subs.l  #1, er5
39c8: 1116                      shlr.w  r6
39ca: 9b04                      addx.b  #h'04, r3l
39cc: 5470                      rts
39ce: 0c66                      mov.b   r6h, r6h
39d0: 4606                      bne     h'0039d8
39d2: 6c4e                      mov.b   @er4+, r6l
39d4: f6ff                      mov.b   #h'ff, r6h
39d6: 1b05                      subs.l  #1, er5
39d8: 1116                      shlr.w  r6
39da: 4522                      bcs     h'0039fe
39dc: 0c66                      mov.b   r6h, r6h
39de: 4606                      bne     h'0039e6
39e0: 6c4e                      mov.b   @er4+, r6l
39e2: f6ff                      mov.b   #h'ff, r6h
39e4: 1b05                      subs.l  #1, er5
39e6: 1116                      shlr.w  r6
39e8: 4504                      bcs     h'0039ee
39ea: fb06                      mov.b   #h'06, r3l
39ec: 5470                      rts
39ee: 0c66                      mov.b   r6h, r6h
39f0: 4606                      bne     h'0039f8
39f2: 6c4e                      mov.b   @er4+, r6l
39f4: f6ff                      mov.b   #h'ff, r6h
39f6: 1b05                      subs.l  #1, er5
39f8: 1116                      shlr.w  r6
39fa: 9b08                      addx.b  #h'08, r3l
39fc: 5470                      rts
39fe: 0c66                      mov.b   r6h, r6h
3a00: 4606                      bne     h'003a08
3a02: 6c4e                      mov.b   @er4+, r6l
3a04: f6ff                      mov.b   #h'ff, r6h
3a06: 1b05                      subs.l  #1, er5
3a08: 1116                      shlr.w  r6
3a0a: 4522                      bcs     h'003a2e
3a0c: 0c66                      mov.b   r6h, r6h
3a0e: 4606                      bne     h'003a16
3a10: 6c4e                      mov.b   @er4+, r6l
3a12: f6ff                      mov.b   #h'ff, r6h
3a14: 1b05                      subs.l  #1, er5
3a16: 1116                      shlr.w  r6
3a18: 4504                      bcs     h'003a1e
3a1a: fb07                      mov.b   #h'07, r3l
3a1c: 5470                      rts
3a1e: 0c66                      mov.b   r6h, r6h
3a20: 4606                      bne     h'003a28
3a22: 6c4e                      mov.b   @er4+, r6l
3a24: f6ff                      mov.b   #h'ff, r6h
3a26: 1b05                      subs.l  #1, er5
3a28: 1116                      shlr.w  r6
3a2a: 9b0a                      addx.b  #h'0a, r3l
3a2c: 5470                      rts
3a2e: 1a80                      sub.l   er0, er0
3a30: 5e00 38f2                 jsr     h'0038f2
3a34: 1070                      shll.l  #2, er0
3a36: 0100 7800 6b20 0000 08e0  mov.l   @(h'8e0, er0), er0
3a40: 5900                      jmp     er0
3a42: fb0c                      mov.b   #h'0c, r3l
3a44: 5470                      rts
3a46: fb0d                      mov.b   #h'0d, r3l
3a48: 5470                      rts
3a4a: 5e00 3972                 jsr     h'003972
3a4e: 8b14                      add.b   #h'14, r3l
3a50: 5470                      rts
3a52: 0c66                      mov.b   r6h, r6h
3a54: 4606                      bne     h'003a5c
3a56: 6c4e                      mov.b   @er4+, r6l
3a58: f6ff                      mov.b   #h'ff, r6h
3a5a: 1b05                      subs.l  #1, er5
3a5c: 1116                      shlr.w  r6
3a5e: 9b10                      addx.b  #h'10, r3l
3a60: 5470                      rts
3a62: 5e00 3964                 jsr     h'003964
3a66: 8b18                      add.b   #h'18, r3l
3a68: 5470                      rts
3a6a: fb0e                      mov.b   #h'0e, r3l
3a6c: 5470                      rts
3a6e: 0c66                      mov.b   r6h, r6h
3a70: 4606                      bne     h'003a78
3a72: 6c4e                      mov.b   @er4+, r6l
3a74: f6ff                      mov.b   #h'ff, r6h
3a76: 1b05                      subs.l  #1, er5
3a78: 1116                      shlr.w  r6
3a7a: 4508                      bcs     h'003a84
3a7c: 5e00 3948                 jsr     h'003948
3a80: 8b20                      add.b   #h'20, r3l
3a82: 5470                      rts
3a84: 0c66                      mov.b   r6h, r6h
3a86: 4606                      bne     h'003a8e
3a88: 6c4e                      mov.b   @er4+, r6l
3a8a: f6ff                      mov.b   #h'ff, r6h
3a8c: 1b05                      subs.l  #1, er5
3a8e: 1116                      shlr.w  r6
3a90: 9b12                      addx.b  #h'12, r3l
3a92: 5470                      rts
3a94: 0c66                      mov.b   r6h, r6h
3a96: 4606                      bne     h'003a9e
3a98: 6c4e                      mov.b   @er4+, r6l
3a9a: f6ff                      mov.b   #h'ff, r6h
3a9c: 1b05                      subs.l  #1, er5
3a9e: 1116                      shlr.w  r6
3aa0: 4504                      bcs     h'003aa6
3aa2: fb0f                      mov.b   #h'0f, r3l
3aa4: 5470                      rts
3aa6: 0c66                      mov.b   r6h, r6h
3aa8: 4606                      bne     h'003ab0
3aaa: 6c4e                      mov.b   @er4+, r6l
3aac: f6ff                      mov.b   #h'ff, r6h
3aae: 1b05                      subs.l  #1, er5
3ab0: 1116                      shlr.w  r6
3ab2: 4508                      bcs     h'003abc
3ab4: 5e00 393a                 jsr     h'00393a
3ab8: 8b40                      add.b   #h'40, r3l
3aba: 5470                      rts
3abc: 0c66                      mov.b   r6h, r6h
3abe: 4606                      bne     h'003ac6
3ac0: 6c4e                      mov.b   @er4+, r6l
3ac2: f6ff                      mov.b   #h'ff, r6h
3ac4: 1b05                      subs.l  #1, er5
3ac6: 1116                      shlr.w  r6
3ac8: 4508                      bcs     h'003ad2
3aca: 5e00 392c                 jsr     h'00392c
3ace: 8b80                      add.b   #h'80, r3l
3ad0: 5470                      rts
3ad2: f301                      mov.b   #h'01, r3h
3ad4: 5470                      rts
3ad6: 1a80                      sub.l   er0, er0
3ad8: 5e00 38f2                 jsr     h'0038f2
3adc: 1070                      shll.l  #2, er0
3ade: 0100 7800 6b20 0000 0900  mov.l   @(h'900, er0), er0
3ae8: 5900                      jmp     er0
3aea: 1a80                      sub.l   er0, er0
3aec: 5e00 3890                 jsr     h'003890
3af0: 7910 0400                 add.w   #h'0400, r0
3af4: 5470                      rts
3af6: 1a80                      sub.l   er0, er0
3af8: 5e00 389e                 jsr     h'00389e
3afc: 7910 0200                 add.w   #h'0200, r0
3b00: 5470                      rts
3b02: 1a80                      sub.l   er0, er0
3b04: 5e00 38ac                 jsr     h'0038ac
3b08: 7910 0100                 add.w   #h'0100, r0
3b0c: 5470                      rts
3b0e: 1a80                      sub.l   er0, er0
3b10: 5e00 38c8                 jsr     h'0038c8
3b14: 8840                      add.b   #h'40, r0l
3b16: 5470                      rts
3b18: 1a80                      sub.l   er0, er0
3b1a: 5e00 38ba                 jsr     h'0038ba
3b1e: 8880                      add.b   #h'80, r0l
3b20: 5470                      rts
3b22: 1a80                      sub.l   er0, er0
3b24: 0c66                      mov.b   r6h, r6h
3b26: 4606                      bne     h'003b2e
3b28: 6c4e                      mov.b   @er4+, r6l
3b2a: f6ff                      mov.b   #h'ff, r6h
3b2c: 1b05                      subs.l  #1, er5
3b2e: 1116                      shlr.w  r6
3b30: 450a                      bcs     h'003b3c
3b32: 5e00 3882                 jsr     h'003882
3b36: 7910 0800                 add.w   #h'0800, r0
3b3a: 5470                      rts
3b3c: 5e00 3874                 jsr     h'003874
3b40: 7910 1000                 add.w   #h'1000, r0
3b44: 5470                      rts
3b46: 1a80                      sub.l   er0, er0
3b48: 0c66                      mov.b   r6h, r6h
3b4a: 4606                      bne     h'003b52
3b4c: 6c4e                      mov.b   @er4+, r6l
3b4e: f6ff                      mov.b   #h'ff, r6h
3b50: 1b05                      subs.l  #1, er5
3b52: 1116                      shlr.w  r6
3b54: 4508                      bcs     h'003b5e
3b56: 5e00 38d6                 jsr     h'0038d6
3b5a: 8820                      add.b   #h'20, r0l
3b5c: 5470                      rts
3b5e: 5e00 38e4                 jsr     h'0038e4
3b62: 8810                      add.b   #h'10, r0l
3b64: 5470                      rts
3b66: 1a80                      sub.l   er0, er0
3b68: 5e00 3900                 jsr     h'003900
3b6c: 1070                      shll.l  #2, er0
3b6e: 0100 7800 6b20 0000 0920  mov.l   @(h'920, er0), er0
3b78: 5900                      jmp     er0
3b7a: 1a80                      sub.l   er0, er0
3b7c: 5a00 390e                 jmp     h'00390e
3b80: 1a80                      sub.l   er0, er0
3b82: 5e00 3900                 jsr     h'003900
3b86: 8806                      add.b   #h'06, r0l
3b88: 5470                      rts
3b8a: 1a80                      sub.l   er0, er0
3b8c: 0c66                      mov.b   r6h, r6h
3b8e: 4606                      bne     h'003b96
3b90: 6c4e                      mov.b   @er4+, r6l
3b92: f6ff                      mov.b   #h'ff, r6h
3b94: 1b05                      subs.l  #1, er5
3b96: 1116                      shlr.w  r6
3b98: 4510                      bcs     h'003baa
3b9a: 0c66                      mov.b   r6h, r6h
3b9c: 4606                      bne     h'003ba4
3b9e: 6c4e                      mov.b   @er4+, r6l
3ba0: f6ff                      mov.b   #h'ff, r6h
3ba2: 1b05                      subs.l  #1, er5
3ba4: 1116                      shlr.w  r6
3ba6: 9804                      addx.b  #h'04, r0l
3ba8: 5470                      rts
3baa: f802                      mov.b   #h'02, r0l
3bac: 5470                      rts
3bae: 1a80                      sub.l   er0, er0
3bb0: 0c66                      mov.b   r6h, r6h
3bb2: 4606                      bne     h'003bba
3bb4: 6c4e                      mov.b   @er4+, r6l
3bb6: f6ff                      mov.b   #h'ff, r6h
3bb8: 1b05                      subs.l  #1, er5
3bba: 1116                      shlr.w  r6
3bbc: 4508                      bcs     h'003bc6
3bbe: 5e00 3900                 jsr     h'003900
3bc2: 880c                      add.b   #h'0c, r0l
3bc4: 5470                      rts
3bc6: 0c66                      mov.b   r6h, r6h
3bc8: 4606                      bne     h'003bd0
3bca: 6c4e                      mov.b   @er4+, r6l
3bcc: f6ff                      mov.b   #h'ff, r6h
3bce: 1b05                      subs.l  #1, er5
3bd0: 1116                      shlr.w  r6
3bd2: 4504                      bcs     h'003bd8
3bd4: f803                      mov.b   #h'03, r0l
3bd6: 5470                      rts
3bd8: 0c66                      mov.b   r6h, r6h
3bda: 4606                      bne     h'003be2
3bdc: 6c4e                      mov.b   @er4+, r6l
3bde: f6ff                      mov.b   #h'ff, r6h
3be0: 1b05                      subs.l  #1, er5
3be2: 1116                      shlr.w  r6
3be4: 980a                      addx.b  #h'0a, r0l
3be6: 5470                      rts
3be8: 0120 6df4                 stm.l   er4-er6, @-sp
3bec: 0110 6df0                 stm.l   er0-er1, @-sp
3bf0: 0100 6904                 mov.l   @er0, er4
3bf4: 0100 6f03 0004            mov.l   @(h'4, er0), er3
3bfa: 0ab4                      add.l   er3, er4
3bfc: 0100 6f75 001c            mov.l   @(h'1c, sp), er5
3c02: 1ab5                      sub.l   er3, er5
3c04: 6f06 0008                 mov.w   @(h'8, er0), r6
3c08: 0100 6f73 0018            mov.l   @(h'18, sp), er3
3c0e: 0d3e                      mov.w   r3, e6
3c10: 0c66                      mov.b   r6h, r6h
3c12: 4606                      bne     h'003c1a
3c14: 6c4e                      mov.b   @er4+, r6l
3c16: f6ff                      mov.b   #h'ff, r6h
3c18: 1b05                      subs.l  #1, er5
3c1a: 1116                      shlr.w  r6
3c1c: 4512                      bcs     h'003c30
3c1e: 5e00 391e                 jsr     h'00391e
3c22: 0fa0                      mov.l   er2, er0
3c24: 66e0                      and.w   e6, r0
3c26: 66b8                      and.w   e3, e0
3c28: 0a90                      add.l   er1, er0
3c2a: 688b                      mov.b   r3l, @er0
3c2c: 0b02                      adds.l  #1, er2
3c2e: 4032                      bt      h'003c62
3c30: 5e00 3990                 jsr     h'003990
3c34: 5e00 3ad6                 jsr     h'003ad6
3c38: 0100 69f5                 mov.l   er5, @sp
3c3c: 0930                      add.w   r3, r0
3c3e: 1b53                      dec.w   #1, r3
3c40: 0fa5                      mov.l   er2, er5
3c42: 1a85                      sub.l   er0, er5
3c44: 66e5                      and.w   e6, r5
3c46: 66bd                      and.w   e3, e5
3c48: 0a95                      add.l   er1, er5
3c4a: 6853                      mov.b   @er5, r3h
3c4c: 0fa5                      mov.l   er2, er5
3c4e: 66e5                      and.w   e6, r5
3c50: 66bd                      and.w   e3, e5
3c52: 0a95                      add.l   er1, er5
3c54: 68d3                      mov.b   r3h, @er5
3c56: 0b02                      adds.l  #1, er2
3c58: f301                      mov.b   #h'01, r3h
3c5a: 183b                      sub.b   r3h, r3l
3c5c: 44e2                      bcc     h'003c40
3c5e: 0100 6975                 mov.l   @sp, er5
3c62: 0fd5                      mov.l   er5, er5
3c64: 4eaa                      bgt     h'003c10
3c66: 0110 6d71                 ldm.l   @sp+, er0-er1
3c6a: 0100 6901                 mov.l   @er0, er1
3c6e: 1a94                      sub.l   er1, er4
3c70: 0100 6f84 0004            mov.l   er4, @(h'4, er0)
3c76: 6f86 0008                 mov.w   r6, @(h'8, er0)
3c7a: 0120 6d76                 ldm.l   @sp+, er4-er6
3c7e: 0fa0                      mov.l   er2, er0
3c80: 5470                      rts
3c82: 1ab3                      sub.l   er3, er3
3c84: 0100 6df3                 mov.l   er3, @-sp
3c88: 0100 6df3                 mov.l   er3, @-sp
3c8c: 0100 6df1                 mov.l   er1, @-sp
3c90: 0f81                      mov.l   er0, er1
3c92: 0ff0                      mov.l   sp, er0
3c94: 0100 6df2                 mov.l   er2, @-sp
3c98: 1733                      not.l   er3
3c9a: 0100 6df3                 mov.l   er3, @-sp
3c9e: 1aa2                      sub.l   er2, er2
3ca0: 5e00 3be8                 jsr     h'003be8
3ca4: 7a17 0000 0014            add.l   #h'00000014, sp
3caa: 5470                      rts
3cac: 7a37 0000 0010            sub.l   #h'00000010, sp
3cb2: 0120 6df4                 stm.l   er4-er6, @-sp
3cb6: 0f84                      mov.l   er0, er4
3cb8: 0100 6ff1 0018            mov.l   er1, @(h'18, sp)
3cbe: 0100 6ff2 0014            mov.l   er2, @(h'14, sp)
3cc4: 1ae6                      sub.l   er6, er6
3cc6: 1fa6                      cmp.l   er2, er6
3cc8: 58c0 0146                 bge     h'003e12
3ccc: 5800 008a                 bt      h'003d5a
3cd0: 1aa2                      sub.l   er2, er2
3cd2: 0100 6fc2 0004            mov.l   er2, @(h'4, er4)
3cd8: 0100 6f40 000c            mov.l   @(h'c, er4), er0
3cde: 0fc1                      mov.l   er4, er1
3ce0: 7a11 0000 0014            add.l   #h'00000014, er1
3ce6: 0100 6f72 0010            mov.l   @(h'10, sp), er2
3cec: 7a22 0000 003f            cmp.l   #h'0000003f, er2
3cf2: 4f04                      ble     h'003cf8
3cf4: 1aa2                      sub.l   er2, er2
3cf6: 8a3f                      add.b   #h'3f, r2l
3cf8: 0100 6df2                 mov.l   er2, @-sp
3cfc: 7a02 0000 1fff            mov.l   #h'00001fff, er2
3d02: 0100 6df2                 mov.l   er2, @-sp
3d06: 0f82                      mov.l   er0, er2
3d08: 0fc0                      mov.l   er4, er0
3d0a: 5e00 3be8                 jsr     h'003be8
3d0e: 0100 6fc0 000c            mov.l   er0, @(h'c, er4)
3d14: 0100 6f41 0004            mov.l   @(h'4, er4), er1
3d1a: 0100 6f73 0018            mov.l   @(h'18, sp), er3
3d20: 1a93                      sub.l   er1, er3
3d22: 0100 6ff3 0018            mov.l   er3, @(h'18, sp)
3d28: 0b97                      adds.l  #4, sp
3d2a: 0b97                      adds.l  #4, sp
3d2c: 0100 6f75 0010            mov.l   @(h'10, sp), er5
3d32: 471a                      beq     h'003d4e
3d34: 0ac1                      add.l   er4, er1
3d36: 7a11 0000 2014            add.l   #h'00002014, er1
3d3c: 0100 6f72 0010            mov.l   @(h'10, sp), er2
3d42: 0fc0                      mov.l   er4, er0
3d44: 7a10 0000 2014            add.l   #h'00002014, er0
3d4a: 5e00 120c                 jsr     h'00120c
3d4e: 0100 6f73 0010            mov.l   @(h'10, sp), er3
3d54: 0100 6fc3 0004            mov.l   er3, @(h'4, er4)
3d5a: 0100 6f43 0010            mov.l   @(h'10, er4), er3
3d60: 0100 6f42 000c            mov.l   @(h'c, er4), er2
3d66: 1fa3                      cmp.l   er2, er3
3d68: 4c5e                      bge     h'003dc8
3d6a: 0100 6ff6 0010            mov.l   er6, @(h'10, sp)
3d70: 0fe5                      mov.l   er6, er5
3d72: 0100 6f73 0018            mov.l   @(h'18, sp), er3
3d78: 0ab5                      add.l   er3, er5
3d7a: 0100 6ff5 0010            mov.l   er5, @(h'10, sp)
3d80: 0fc0                      mov.l   er4, er0
3d82: 7a10 0000 0010            add.l   #h'00000010, er0
3d88: 0100 6901                 mov.l   @er0, er1
3d8c: 0f95                      mov.l   er1, er5
3d8e: 7a65 0000 1fff            and.l   #h'00001fff, er5
3d94: 0fc2                      mov.l   er4, er2
3d96: 0ad2                      add.l   er5, er2
3d98: 6e2a 0014                 mov.b   @(h'14, er2), r2l
3d9c: 0100 6f73 0010            mov.l   @(h'10, sp), er3
3da2: 68ba                      mov.b   r2l, @er3
3da4: 0b03                      adds.l  #1, er3
3da6: 0100 6ff3 0010            mov.l   er3, @(h'10, sp)
3dac: 0b01                      adds.l  #1, er1
3dae: 0100 6981                 mov.l   er1, @er0
3db2: 0b06                      adds.l  #1, er6
3db4: 0100 6f75 0014            mov.l   @(h'14, sp), er5
3dba: 1fd6                      cmp.l   er5, er6
3dbc: 4754                      beq     h'003e12
3dbe: 0100 6f42 000c            mov.l   @(h'c, er4), er2
3dc4: 1fa1                      cmp.l   er2, er1
3dc6: 4db8                      blt     h'003d80
3dc8: 0100 6f42 0004            mov.l   @(h'4, er4), er2
3dce: 7a12 0000 2014            add.l   #h'00002014, er2
3dd4: 0fc1                      mov.l   er4, er1
3dd6: 0aa1                      add.l   er2, er1
3dd8: 7a12 ffff dfec            add.l   #h'ffffdfec, er2
3dde: 0100 6f43 2058            mov.l   @(h'2058, er4), er3
3de4: 0100 6f33 0008            mov.l   @(h'8, er3), er3
3dea: 1ad5                      sub.l   er5, er5
3dec: 8d44                      add.b   #h'44, r5l
3dee: 1aa5                      sub.l   er2, er5
3df0: 0fd2                      mov.l   er5, er2
3df2: 0fc0                      mov.l   er4, er0
3df4: 5d30                      jsr     er3
3df6: 0100 6ff0 0010            mov.l   er0, @(h'10, sp)
3dfc: 0100 6f42 0004            mov.l   @(h'4, er4), er2
3e02: 0f83                      mov.l   er0, er3
3e04: 0aa3                      add.l   er2, er3
3e06: 0100 6ff3 0010            mov.l   er3, @(h'10, sp)
3e0c: 0fb3                      mov.l   er3, er3
3e0e: 5860 febe                 bne     h'003cd0
3e12: 0fe0                      mov.l   er6, er0
3e14: 0120 6d76                 ldm.l   @sp+, er4-er6
3e18: 7a17 0000 0010            add.l   #h'00000010, sp
3e1e: 5470                      rts
3e20: 6b81 f304                 mov.w   r1, @h'fff304
3e24: 0d11                      mov.w   r1, r1
3e26: 4f1a                      ble     h'003e42
3e28: 0100 6b02 f2fe            mov.l   @h'fff2fe, er2
3e2e: 6922                      mov.w   @er2, r2
3e30: 6b82 f302                 mov.w   r2, @h'fff302
3e34: 6b02 f304                 mov.w   @h'fff304, r2
3e38: 1b02                      subs.l  #1, er2
3e3a: 6b82 f304                 mov.w   r2, @h'fff304
3e3e: 0d22                      mov.w   r2, r2
3e40: 4ee6                      bgt     h'003e28
3e42: 6b00 f302                 mov.w   @h'fff302, r0
3e46: 5470                      rts
3e48: 7a02 00e0 0000            mov.l   #h'00e00000, er2
3e4e: 0100 6b82 f2fe            mov.l   er2, @h'fff2fe
3e54: 6922                      mov.w   @er2, r2
3e56: 6b82 f302                 mov.w   r2, @h'fff302
3e5a: 0180                      sleep
3e5c: 5470                      rts
3e5e: 0047                      .word
3e60: 6661                      and.w   r6, r1
3e62: 696c                      mov.w   @er6, e4
3e64: 6564                      xor.w   r6, r4
3e66: 2028                      mov.b   @h'ffff28, r0h
3e68: 3078                      mov.b   r0h, @h'ffff78
3e6a: 2558                      mov.b   @h'ffff58, r5h
3e6c: 292c                      mov.b   @h'ffff2c, r1l
3e6e: 2061                      mov.b   @h'ffff61, r0h
3e70: 7373                      btst    #7, r3h
3e72: 756d                      bxor    #6, r5l
3e74: 696e                      mov.w   @er6, e6
3e76: 6720                      bst     #2, r0h
3e78: 0070                      .word
3e7a: 6c61                      mov.b   @er6+, r1h
3e7c: 696e                      mov.w   @er6, e6
3e7e: 2069                      mov.b   @h'ffff69, r0h
3e80: 6d61                      mov.w   @er6+, r1
3e82: 6765                      bst     #6, r5h
3e84: 3a20                      mov.b   r2l, @h'ffff20
3e86: 6c65                      mov.b   @er6+, r5h
3e88: 6e67 7468                 mov.b   @(h'7468, er6), r7h
3e8c: 203d                      mov.b   @h'ffff3d, r0h
3e8e: 2025                      mov.b   @h'ffff25, r0h
3e90: 6c64                      mov.b   @er6+, r4h
3e92: 2c20                      mov.b   @h'ffff20, r4l
3e94: 6368                      btst    r6h, r0l
3e96: 6563                      xor.w   r6, r3
3e98: 6b73                      .word
3e9a: 756d                      bxor    #6, r5l
3e9c: 2069                      mov.b   @h'ffff69, r0h
3e9e: 7320                      btst    #2, r0h
3ea0: 004f                      .word
3ea2: 4b20                      bmi     h'003ec4
3ea4: 2830                      mov.b   @h'ffff30, r0l
3ea6: 7825                      .word
3ea8: 3038                      mov.b   r0h, @h'ffff38
3eaa: 6c58                      mov.b   @er5+, r0l
3eac: 2900                      mov.b   @h'ffff00, r1l
3eae: 5752                      .word
3eb0: 4f4e                      ble     h'003f00
3eb2: 4720                      beq     h'003ed4
3eb4: 2830                      mov.b   @h'ffff30, r0l
3eb6: 7825                      .word
3eb8: 3038                      mov.b   r0h, @h'ffff38
3eba: 6c58                      mov.b   @er5+, r0l
3ebc: 2900                      mov.b   @h'ffff00, r1l
3ebe: 0a53                      .word
3ec0: 7461                      bor     #6, r1h
3ec2: 7274                      bclr    #7, r4h
3ec4: 696e                      mov.w   @er6, e6
3ec6: 6720                      bst     #2, r0h
3ec8: 3078                      mov.b   r0h, @h'ffff78
3eca: 256c                      mov.b   @h'ffff6c, r5h
3ecc: 782e                      .word
3ece: 2e2e                      mov.b   @h'ffff2e, r6l
3ed0: 0a00                      inc.b   #1, r0h
3ed2: 2573                      mov.b   @h'ffff73, r5h
3ed4: 2063                      mov.b   @h'ffff63, r0h
3ed6: 6f6d 7072                 mov.w   @(h'7072, er6), e5
3eda: 6573                      xor.w   r7, r3
3edc: 7365                      btst    #6, r5h
3ede: 6420                      or.w    r2, r0
3ee0: 696d                      mov.w   @er6, e5
3ee2: 6167                      bnot    r6h, r7h
3ee4: 650a                      xor.w   r0, e2
3ee6: 6465                      or.w    r6, r5
3ee8: 636f                      btst    r6h, r7l
3eea: 6d70                      mov.w   @sp+, r0
3eec: 7265                      bclr    #6, r5h
3eee: 7373                      btst    #7, r3h
3ef0: 696e                      mov.w   @er6, e6
3ef2: 672e                      bst     #2, r6l
3ef4: 2e2e                      mov.b   @h'ffff2e, r6l
3ef6: 000a                      .word
3ef8: 476f                      beq     h'003f69
3efa: 7420                      bor     #2, r0h
3efc: 6865                      mov.b   @er6, r5h
3efe: 6164                      bnot    r6h, r4h
3f00: 6572                      xor.w   r7, r2
3f02: 3a20                      mov.b   r2l, @h'ffff20
3f04: 6d61                      mov.w   @er6+, r1
3f06: 6769                      bst     #6, r1l
3f08: 6320                      btst    r2h, r0h
3f0a: 256c                      mov.b   @h'ffff6c, r5h
3f0c: 5820 3a20                 bhi     h'007930
3f10: 0049                      .word
3f12: 4e56                      bgt     h'003f6a
3f14: 414c                      bf      h'003f62
3f16: 4944                      bvs     h'003f5c
3f18: 2100                      mov.b   @h'ffff00, r1h
3f1a: 004c                      .word
3f1c: 5a53 5300                 jmp     h'535300
3f20: 424d                      bhi     h'003f6f
3f22: 4300                      bls     h'003f24
3f24: 0a44                      .word
3f26: 6563                      xor.w   r6, r3
3f28: 6f6d 7072                 mov.w   @(h'7072, er6), e5
3f2c: 6573                      xor.w   r7, r3
3f2e: 7369                      btst    #6, r1l
3f30: 6f6e 2065                 mov.w   @(h'2065, er6), e6
3f34: 7272                      bclr    #7, r2h
3f36: 6f72 2c20                 mov.w   @(h'2c20, sp), r2
3f3a: 7265                      bclr    #6, r5h
3f3c: 7375                      btst    #7, r5h
3f3e: 6c74                      mov.b   @sp+, r4h
3f40: 696e                      mov.w   @er6, e6
3f42: 6720                      bst     #2, r0h
3f44: 7369                      btst    #6, r1l
3f46: 7a65 2069 7320            and.l   #h'20697320, er5
3f4c: 256c                      mov.b   @h'ffff6c, r5h
3f4e: 6400                      or.w    r0, r0
3f50: 706c                      bset    #6, r4l
3f52: 6169                      bnot    r6h, r1l
3f54: 6e20 696d                 mov.b   @(h'696d, er2), r0h
3f58: 6167                      bnot    r6h, r7h
3f5a: 6500                      xor.w   r0, r0
3f5c: 0a53                      .word
3f5e: 6361                      btst    r6h, r1h
3f60: 6e6e 696e                 mov.b   @(h'696e, er6), r6l
3f64: 6720                      bst     #2, r0h
3f66: 666c                      and.w   r6, e4
3f68: 6173                      bnot    r7h, r3h
3f6a: 683a                      mov.b   @er3, r2l
3f6c: 2000                      mov.b   @h'ffff00, r0h
3f6e: 706c                      bset    #6, r4l
3f70: 6169                      bnot    r6h, r1l
3f72: 6e20 696d                 mov.b   @(h'696d, er2), r0h
3f76: 6167                      bnot    r6h, r7h
3f78: 6520                      xor.w   r2, r0
3f7a: 666f                      and.w   r6, e7
3f7c: 756e                      bxor    #6, r6l
3f7e: 6400                      or.w    r0, r0
3f80: 6e6f 2076                 mov.b   @(h'2076, er6), r7l
3f84: 616c                      bnot    r6h, r4l
3f86: 6964                      mov.w   @er6, r4
3f88: 2069                      mov.b   @h'ffff69, r0h
3f8a: 6d61                      mov.w   @er6+, r1
3f8c: 6765                      bst     #6, r5h
3f8e: 2066                      mov.b   @h'ffff66, r0h
3f90: 6f75 6e64                 mov.w   @(h'6e64, sp), r5
3f94: 2028                      mov.b   @h'ffff28, r0h
3f96: 6d61                      mov.w   @er6+, r1
3f98: 6769                      bst     #6, r1l
3f9a: 6320                      btst    r2h, r0h
3f9c: 3d20                      mov.b   r5l, @h'ffff20
3f9e: 3078                      mov.b   r0h, @h'ffff78
3fa0: 2530                      mov.b   @h'ffff30, r5h
3fa2: 386c                      mov.b   r0l, @h'ffff6c
3fa4: 5829                      .word
3fa6: 000a                      .word
3fa8: 5072                      mulxu.b r7h, r2
3faa: 6570                      xor.w   r7, r0
3fac: 6172                      bnot    r7h, r2h
3fae: 696e                      mov.w   @er6, e6
3fb0: 6720                      bst     #2, r0h
3fb2: 746f                      bor     #6, r7l
3fb4: 206c                      mov.b   @h'ffff6c, r0h
3fb6: 6f61 6420                 mov.w   @(h'6420, er6), r1
3fba: 4379                      bls     h'004035
3fbc: 4f53                      ble     h'004011
3fbe: 0a00                      inc.b   #1, r0h
3fc0: 7263                      bclr    #6, r3h
3fc2: 7600                      band    #0, r0h
3fc4: 7562                      bxor    #6, r2h
3fc6: 6f6f 742e                 mov.w   @(h'742e, er6), e7
3fca: 626f                      bclr    r6h, r7l
3fcc: 6f74 000a                 mov.w   @(h'a, sp), r4
3fd0: 4661                      bne     h'004033
3fd2: 7461                      bor     #6, r1h
3fd4: 6c20                      mov.b   @er2+, r0h
3fd6: 4552                      bcs     h'00402a
3fd8: 524f                      .word
3fda: 523a                      .word
3fdc: 206e                      mov.b   @h'ffff6e, r0h
3fde: 6f20 4452                 mov.w   @(h'4452, er2), r0
3fe2: 414d                      bf      h'004031
3fe4: 2069                      mov.b   @h'ffff69, r0h
3fe6: 7320                      btst    #2, r0h
3fe8: 6465                      or.w    r6, r5
3fea: 7465                      bor     #6, r5h
3fec: 6374                      btst    r7h, r4h
3fee: 6564                      xor.w   r6, r4
3ff0: 202d                      mov.b   @h'ffff2d, r0h
3ff2: 2073                      mov.b   @h'ffff73, r0h
3ff4: 7973                      .word
3ff6: 7465                      bor     #6, r5h
3ff8: 6d20                      mov.w   @er2+, r0
3ffa: 6861                      mov.b   @er6, r1h
3ffc: 6c74                      mov.b   @sp+, r4h
3ffe: 6564                      xor.w   r6, r4
4000: 2100                      mov.b   @h'ffff00, r1h
4002: 5265                      mulxu.w r6, er5
4004: 6365                      btst    r6h, r5h
4006: 6976                      mov.w   @sp, r6
4008: 6564                      xor.w   r6, r4
400a: 2066                      mov.b   @h'ffff66, r0h
400c: 696c                      mov.w   @er6, e4
400e: 6520                      xor.w   r2, r0
4010: 2825                      mov.b   @h'ffff25, r0l
4012: 6c64                      mov.b   @er6+, r4h
4014: 2062                      mov.b   @h'ffff62, r0h
4016: 7974                      .word
4018: 6573                      xor.w   r7, r3
401a: 290a                      mov.b   @h'ffff0a, r1l
401c: 000a                      .word
401e: 4641                      bne     h'004061
4020: 494c                      bvs     h'00406e
4022: 4544                      bcs     h'004068
4024: 2074                      mov.b   @h'ffff74, r0h
4026: 6f20 646f                 mov.w   @(h'646f, er2), r0
402a: 776e                      bld     #6, r6l
402c: 6c6f                      mov.b   @er6+, r7l
402e: 6164                      bnot    r6h, r4h
4030: 204f                      mov.b   @h'ffff4f, r0h
4032: 5320                      divxu.w r2, er0
4034: 6669                      and.w   r6, e1
4036: 6c65                      mov.b   @er6+, r5h
4038: 0a00                      inc.b   #1, r0h
403a: 0a0a                      inc.b   #1, r2l
403c: 5374                      divxu.w r7, er4
403e: 6172                      bnot    r7h, r2h
4040: 7469                      bor     #6, r1l
4042: 6e67 2043                 mov.b   @(h'2043, er6), r7h
4046: 794f 5320                 or.w    #h'5320, e7
404a: 626f                      bclr    r6h, r7l
404c: 6f74 206c                 mov.w   @(h'206c, sp), r4
4050: 6f61 6465                 mov.w   @(h'6465, er6), r1
4054: 7220                      bclr    #2, r0h
4056: 7625                      band    #2, r5h
4058: 730a                      btst    #0, r2l
405a: 000a                      .word
405c: 4465                      bcc     h'0040c3
405e: 7465                      bor     #6, r5h
4060: 6374                      btst    r7h, r4h
4062: 696e                      mov.w   @er6, e6
4064: 6720                      bst     #2, r0h
4066: 4452                      bcc     h'0040ba
4068: 414d                      bf      h'0040b7
406a: 2069                      mov.b   @h'ffff69, r0h
406c: 6e74 6572                 mov.b   @(h'6572, sp), r4h
4070: 6661                      and.w   r6, r1
4072: 6365                      btst    r6h, r5h
4074: 2073                      mov.b   @h'ffff73, r0h
4076: 6574                      xor.w   r7, r4
4078: 7469                      bor     #6, r1l
407a: 6e67 732e                 mov.b   @(h'732e, er6), r7h
407e: 2e2e                      mov.b   @h'ffff2e, r6l
4080: 2000                      mov.b   @h'ffff00, r0h
4082: 2564                      mov.b   @h'ffff64, r5h
4084: 2d62                      mov.b   @h'ffff62, r5l
4086: 6974                      mov.w   @sp, r4
4088: 2073                      mov.b   @h'ffff73, r0h
408a: 6869                      mov.b   @er6, r1l
408c: 6674                      and.w   r7, r4
408e: 000a                      .word
4090: 4465                      bcc     h'0040f7
4092: 7465                      bor     #6, r5h
4094: 6374                      btst    r7h, r4h
4096: 696e                      mov.w   @er6, e6
4098: 6720                      bst     #2, r0h
409a: 4452                      bcc     h'0040ee
409c: 414d                      bf      h'0040eb
409e: 2073                      mov.b   @h'ffff73, r0h
40a0: 697a                      mov.w   @sp, e2
40a2: 652e                      xor.w   r2, e6
40a4: 2e2e                      mov.b   @h'ffff2e, r6l
40a6: 2000                      mov.b   @h'ffff00, r0h
40a8: 256c                      mov.b   @h'ffff6c, r5h
40aa: 644b                      or.w    r4, e3
40ac: 0a00                      inc.b   #1, r0h
40ae: 0a6d                      .word
40b0: 5f74                      jsr     @h'74
40b2: 7261                      bclr    #6, r1h
40b4: 6365                      btst    r6h, r5h
40b6: 3a20                      mov.b   r2l, @h'ffff20
40b8: 3078                      mov.b   r0h, @h'ffff78
40ba: 2530                      mov.b   @h'ffff30, r5h
40bc: 386c                      mov.b   r0l, @h'ffff6c
40be: 5800 0004                 bt      h'0040c6
40c2: 08fe                      add.b   r7l, r6l
40c4: fde7                      mov.b   #h'e7, r5l
40c6: 98e3                      addx.b  #h'e3, r0l
40c8: 3abe                      mov.b   r2l, @h'ffffbe
40ca: 1d7f                      cmp.w   r7, e7
40cc: c0f1                      or.b    #h'f1, r0h
40ce: 1f70                      .word
40d0: fc0f                      mov.b   #h'0f, r4l
40d2: 70fc                      .word
40d4: fff8                      mov.b   #h'f8, r7l
40d6: cf3d                      or.b    #h'3d, r7l
40d8: 0000                      nop
40da: c0ff                      or.b    #h'ff, r0h
40dc: 87fc                      add.b   #h'fc, r7h
40de: 3c64                      mov.b   r4l, @h'ffff64
40e0: 18e0                      sub.b   r6l, r0h
40e2: 3fe4                      mov.b   r7l, @h'ffffe4
40e4: 6120                      bnot    r2h, r0h
40e6: c300                      or.b    #h'00, r3h
40e8: 80ff                      add.b   #h'ff, r0h
40ea: 432d                      bls     h'004119
40ec: 75d8                      bixor   #5, r0l
40ee: f5a4                      mov.b   #h'a4, r5h
40f0: 4afd                      bpl     h'0040ef
40f2: 07df                      ldc     #h'df, ccr
40f4: 7e6a                      .word
40f6: 6a8e bdf9                 mov.b   r6l, @h'ffbdf9
40fa: a54a                      cmp.b   #h'4a, r5h
40fc: ff47                      mov.b   #h'47, r7l
40fe: 5f4d                      jsr     @h'4d
4100: d8c0                      xor.b   #h'c0, r0l
4102: 1376                      rotxr.l #2, er6
4104: 86f1                      add.b   #h'f1, r6h
4106: fff1                      mov.b   #h'f1, r7l
4108: 6712                      bst     #1, r2h
410a: cbef                      or.b    #h'ef, r3l
410c: 5cbd                      .word
410e: fee4                      mov.b   #h'e4, r6l
4110: 2347                      mov.b   @h'ffff47, r3h
4112: 475c                      beq     h'004170
4114: 037e                      .word
4116: 18dd                      sub.b   r5l, r5l
4118: 0e06                      addx.b  r0h, r6h
411a: 6ce0                      mov.b   r0h, @-er6
411c: 88d7                      add.b   #h'd7, r0l
411e: eacf                      and.b   #h'cf, r2l
4120: ef00                      and.b   #h'00, r7l
4122: 3c3c                      mov.b   r4l, @h'ffff3c
4124: 037f                      .word
4126: 98da                      addx.b  #h'da, r0l
4128: 0e8e                      addx.b  r0l, r6l
412a: b030                      subx.b  #h'30, r0h
412c: 34bb                      mov.b   r4h, @h'ffffbb
412e: 91ed                      addx.b  #h'ed, r1h
4130: 4ce8                      bge     h'00411a
4132: 0780                      ldc     #h'80, ccr
4134: 4879                      bvc     h'0041af
4136: 0450                      orc     #h'50, ccr
4138: f919                      mov.b   #h'19, r1l
413a: 00e3                      .word
413c: e7de                      and.b   #h'de, r7h
413e: efff                      and.b   #h'ff, r7l
4140: 0cc9                      mov.b   r4l, r1l
4142: 0e86                      addx.b  r0l, r6h
4144: 3308                      mov.b   r3h, @h'ffff08
4146: fc0c                      mov.b   #h'0c, r4l
4148: c914                      or.b    #h'14, r1l
414a: f09d                      mov.b   #h'9d, r0h
414c: 86df                      add.b   #h'df, r6h
414e: 8f1f                      add.b   #h'1f, r7l
4150: 0cef                      mov.b   r6l, r7l
4152: 5d0f                      .word
4154: 607a                      bset    r7h, r2l
4156: ce7e                      or.b    #h'7e, r6l
4158: 7ea3                      .word
415a: ec19                      and.b   #h'19, r4l
415c: 9223                      addx.b  #h'23, r2h
415e: 698f                      mov.w   e7, @er0
4160: 5d3f                      .word
4162: 66de                      and.w   e5, e6
4164: bb79                      subx.b  #h'79, r3l
4166: d4e2                      xor.b   #h'e2, r4h
4168: ee64                      and.b   #h'64, r6l
416a: 2f29                      mov.b   @h'ffff29, r7l
416c: 3d03                      mov.b   r5l, @h'ffff03
416e: d77a                      xor.b   #h'7a, r7h
4170: 867d                      add.b   #h'7d, r6h
4172: b839                      subx.b  #h'39, r0l
4174: 83f0                      add.b   #h'f0, r3h
4176: 8399                      add.b   #h'99, r3h
4178: dc9e                      xor.b   #h'9e, r4l
417a: 8163                      add.b   #h'63, r1h
417c: 037c                      .word
417e: 17df                      exts.w  e7
4180: f19e                      mov.b   #h'9e, r1h
4182: 418d                      bf      h'004111
4184: 6985                      mov.w   r5, @er0
4186: dbe1                      xor.b   #h'e1, r3l
4188: 3b18                      mov.b   r3l, @h'ffff18
418a: b083                      subx.b  #h'83, r0h
418c: 249f                      mov.b   @h'ffff9f, r4h
418e: 6ff4 5fac                 mov.w   r4, @(h'5fac, sp)
4192: 3489                      mov.b   r4h, @h'ffff89
4194: 1a38                      .word
4196: 0975                      add.w   r7, r5
4198: fc0c                      mov.b   #h'0c, r4l
419a: b949                      subx.b  #h'49, r1l
419c: 7085                      .word
419e: bc83                      subx.b  #h'83, r4l
41a0: 37bb                      mov.b   r7h, @h'ffffbb
41a2: 19d2                      sub.w   e5, r2
41a4: f866                      mov.b   #h'66, r0l
41a6: d4e8                      xor.b   #h'e8, r4h
41a8: f177                      mov.b   #h'77, r1h
41aa: 2b01                      mov.b   @h'ffff01, r3l
41ac: 3f03                      mov.b   r7l, @h'ffff03
41ae: 1bec                      .word
41b0: 187b                      sub.b   r7h, r3l
41b2: 4cfe                      bge     h'0041b2
41b4: db5c                      xor.b   #h'5c, r3l
41b6: f23d                      mov.b   #h'3d, r2h
41b8: 9e12                      addx.b  #h'12, r6l
41ba: 6789                      bist    #0, r1l
41bc: e349                      and.b   #h'49, r3h
41be: f0bb                      mov.b   #h'bb, r0h
41c0: f399                      mov.b   #h'99, r3h
41c2: ffb1                      mov.b   #h'b1, r7l
41c4: 3312                      mov.b   r3h, @h'ffff12
41c6: 3d59                      mov.b   r5l, @h'ffff59
41c8: 1db2                      cmp.w   e3, r2
41ca: bff7                      subx.b  #h'f7, r7l
41cc: 47a4                      beq     h'004172
41ce: 9956                      addx.b  #h'56, r1l
41d0: 8f95                      add.b   #h'95, r7l
41d2: ffe7                      mov.b   #h'e7, r7l
41d4: 3668                      mov.b   r6h, @h'ffff68
41d6: 019f                      .word
41d8: dba3                      xor.b   #h'a3, r3l
41da: f0fc                      mov.b   #h'fc, r0h
41dc: 26f6                      mov.b   @h'fffff6, r6h
41de: b7db                      subx.b  #h'db, r7h
41e0: 1c78                      cmp.b   r7h, r0l
41e2: 2698                      mov.b   @h'ffff98, r6h
41e4: 1707                      not.b   r7h
41e6: 5ebe 3b6a                 jsr     h'be3b6a
41ea: 07df                      ldc     #h'df, ccr
41ec: aadf                      cmp.b   #h'df, r2l
41ee: c16f                      or.b    #h'6f, r1h
41f0: e67d                      and.b   #h'7d, r6h
41f2: e8b6                      and.b   #h'b6, r0l
41f4: be3f                      subx.b  #h'3f, r6l
41f6: 7672                      band    #7, r2h
41f8: 5f6d                      jsr     @h'6d
41fa: ffdb                      mov.b   #h'db, r7l
41fc: 1cf2                      cmp.b   r7l, r2h
41fe: b9f7                      subx.b  #h'f7, r1l
4200: 57c8                      .word
4202: 0f51                      .word
4204: 7e70                      .word
4206: cb88                      or.b    #h'88, r3l
4208: 75c9                      bixor   #4, r1l
420a: 1bff                      .word
420c: 19b4                      sub.w   e3, r4
420e: 327e                      mov.b   r2h, @h'ffff7e
4210: c8f3                      or.b    #h'f3, r0l
4212: 1300                      rotxr.b r0h
4214: ff5a                      mov.b   #h'5a, r7l
4216: fe21                      mov.b   #h'21, r6l
4218: 752c                      bxor    #2, r4l
421a: a5ff                      cmp.b   #h'ff, r5h
421c: 6100                      bnot    r0h, r0h
421e: f99d                      mov.b   #h'9d, r1l
4220: ec4f                      and.b   #h'4f, r4l
4222: a7fc                      cmp.b   #h'fc, r7h
4224: 2180                      mov.b   @h'ffff80, r1h
4226: f77f                      mov.b   #h'7f, r7h
4228: 0db0                      mov.w   e3, r0
422a: 7172                      bnot    #7, r2h
422c: 33fc                      mov.b   r3h, @h'fffffc
422e: 4f74                      ble     h'0042a4
4230: bb38                      subx.b  #h'38, r3l
4232: 2cfe                      mov.b   @h'fffffe, r4l
4234: daf3                      xor.b   #h'f3, r2l
4236: 330b                      mov.b   r3h, @h'ffff0b
4238: 86fb                      add.b   #h'fb, r6h
423a: fac1                      mov.b   #h'c1, r2l
423c: 736b                      btst    #6, r3l
423e: fd4c                      mov.b   #h'4c, r5l
4240: f4f0                      mov.b   #h'f0, r4h
4242: f0d8                      mov.b   #h'd8, r0h
4244: c7ce                      or.b    #h'ce, r7h
4246: cc7e                      or.b    #h'7e, r4l
4248: e9d7                      and.b   #h'd7, r1l
424a: b01f                      subx.b  #h'1f, r0h
424c: cca1                      or.b    #h'a1, r4l
424e: fee8                      mov.b   #h'e8, r6l
4250: 2f23                      mov.b   @h'ffff23, r7l
4252: f000                      mov.b   #h'00, r0h
4254: 0eeb                      addx.b  r6l, r3l
4256: 67bf                      bist    #3, r7l
4258: 0f0f                      daa.b   r7l
425a: f919                      mov.b   #h'19, r1l
425c: 3690                      mov.b   r6h, @h'ffff90
425e: 67cc                      bist    #4, r4l
4260: 85ea                      add.b   #h'ea, r5h
4262: 0364                      .word
4264: f184                      mov.b   #h'84, r1h
4266: 8b76                      add.b   #h'76, r3l
4268: 6241                      bclr    r4h, r1h
426a: 2c18                      mov.b   @h'ffff18, r4l
426c: 0c59                      mov.b   r5h, r1l
426e: cc30                      or.b    #h'30, r4l
4270: ff7d                      mov.b   #h'7d, r7l
4272: e4dc                      and.b   #h'dc, r4h
4274: b743                      subx.b  #h'43, r7h
4276: 7bcb                      .word
4278: 1986                      sub.w   e0, r6
427a: c383                      or.b    #h'83, r3h
427c: e77c                      and.b   #h'7c, r7h
427e: afe9                      cmp.b   #h'e9, r7l
4280: 506b                      mulxu.b r6h, e3
4282: 22f2                      mov.b   @h'fffff2, r2h
4284: d019                      xor.b   #h'19, r0h
4286: 592c                      .word
4288: d89e                      xor.b   #h'9e, r0l
428a: 5f7e                      jsr     @h'7e
428c: 31bd                      mov.b   r1h, @h'ffffbd
428e: 8363                      add.b   #h'63, r3h
4290: 6507                      xor.w   r0, r7
4292: afe9                      cmp.b   #h'e9, r7l
4294: 0ec5                      addx.b  r4l, r5h
4296: 9f20                      addx.b  #h'20, r7l
4298: 3dc4                      mov.b   r5l, @h'ffffc4
429a: e0ec                      and.b   #h'ec, r0h
429c: 26cc                      mov.b   @h'ffffcc, r6h
429e: 7d0d                      .word
42a0: ef3d                      and.b   #h'3d, r7l
42a2: c3e2                      or.b    #h'e2, r3h
42a4: 6586                      xor.w   e0, r6
42a6: 8475                      add.b   #h'75, r4h
42a8: cea0                      or.b    #h'a0, r6l
42aa: 504a                      mulxu.b r4h, e2
42ac: 4208                      bhi     h'0042b6
42ae: 418e                      bf      h'00423e
42b0: d140                      xor.b   #h'40, r1h
42b2: 9044                      addx.b  #h'44, r0h
42b4: 9e67                      addx.b  #h'67, r6l
42b6: 3e32                      mov.b   r6l, @h'ffff32
42b8: ec09                      and.b   #h'09, r4l
42ba: b3c3                      subx.b  #h'c3, r3h
42bc: c1e7                      or.b    #h'e7, r1h
42be: fbc7                      mov.b   #h'c7, r3l
42c0: a8bb                      cmp.b   #h'bb, r0l
42c2: b3ff                      subx.b  #h'ff, r3h
42c4: 5089                      mulxu.b r0l, e1
42c6: fd11                      mov.b   #h'11, r5l
42c8: c77f                      or.b    #h'7f, r7h
42ca: 8c92                      add.b   #h'92, r4l
42cc: ebe1                      and.b   #h'e1, r3l
42ce: 8734                      add.b   #h'34, r7h
42d0: 5a99 be77                 jmp     h'99be77
42d4: 47eb                      beq     h'0042c1
42d6: 7fc8                      .word
42d8: e387                      and.b   #h'87, r3h
42da: d323                      xor.b   #h'23, r3h
42dc: 8aaa                      add.b   #h'aa, r2l
42de: f2a8                      mov.b   #h'a8, r2h
42e0: d940                      xor.b   #h'40, r1l
42e2: 7e55                      .word
42e4: 34fe                      mov.b   r4h, @h'fffffe
42e6: c295                      or.b    #h'95, r2h
42e8: d1dd                      xor.b   #h'dd, r1h
42ea: b7f9                      subx.b  #h'f9, r7h
42ec: 25d0                      mov.b   @h'ffffd0, r5h
42ee: 67e0                      bist    #6, r0h
42f0: 2a36                      mov.b   @h'ffff36, r2l
42f2: d27d                      xor.b   #h'7d, r2h
42f4: de6f                      xor.b   #h'6f, r6l
42f6: 78f8                      .word
42f8: df66                      xor.b   #h'66, r7l
42fa: 88e8                      add.b   #h'e8, r0l
42fc: cbe5                      or.b    #h'e5, r3l
42fe: ac64                      cmp.b   #h'64, r4l
4300: 5875                      .word
4302: 023e                      .word
4304: 9b21                      addx.b  #h'21, r3l
4306: f292                      mov.b   #h'92, r2h
4308: fa9a                      mov.b   #h'9a, r2l
430a: ae8e                      cmp.b   #h'8e, r6l
430c: ff9e                      mov.b   #h'9e, r7l
430e: 1b32                      .word
4310: ba06                      subx.b  #h'06, r2l
4312: 4cc8                      bge     h'0042dc
4314: 13ce                      rotr.b  #2, r6l
4316: 3cbf                      mov.b   r4l, @h'ffffbf
4318: afff                      cmp.b   #h'ff, r7l
431a: 13c3                      rotr.b  #2, r3h
431c: 1f2a                      .word
431e: a10f                      cmp.b   #h'0f, r1h
4320: a1ff                      cmp.b   #h'ff, r1h
4322: bf08                      subx.b  #h'08, r7l
4324: f4ff                      mov.b   #h'ff, r4h
4326: e3ff                      and.b   #h'ff, r3h
4328: c7ff                      or.b    #h'ff, r7h
432a: 8fff                      add.b   #h'ff, r7l
432c: c003                      or.b    #h'03, r0h
432e: fefd                      mov.b   #h'fd, r6l
4330: e798                      and.b   #h'98, r7h
4332: e33a                      and.b   #h'3a, r3h
4334: be1d                      subx.b  #h'1d, r6l
4336: 7fc0                      .word
4338: f11f                      mov.b   #h'1f, r1h
433a: 70fc                      .word
433c: 0f70                      .word
433e: fc6f                      mov.b   #h'6f, r4l
4340: 7880                      .word
4342: f770                      mov.b   #h'70, r7h
4344: 5e03 7335                 jsr     h'037335
4348: fcf9                      mov.b   #h'f9, r4l
434a: 857f                      add.b   #h'7f, r5h
434c: ce67                      or.b    #h'67, r6l
434e: c3bf                      or.b    #h'bf, r3h
4350: e167                      and.b   #h'67, r1h
4352: 1540                      xor.b   r4h, r0h
4354: 56c0                      .word
4356: e7ff                      and.b   #h'ff, r7h
4358: 63db                      btst    r5l, r3l
435a: cfe7                      or.b    #h'e7, r7l
435c: b607                      subx.b  #h'07, r6h
435e: 30e0                      mov.b   r0h, @h'ffffe0
4360: c160                      or.b    #h'60, r1h
4362: 309f                      mov.b   r0h, @h'ffff9f
4364: 4b7e                      bmi     h'0043e4
4366: 8601                      add.b   #h'01, r6h
4368: c41c                      or.b    #h'1c, r4h
436a: 78c0                      .word
436c: dd05                      xor.b   #h'05, r5l
436e: 6fc0 8319                 mov.w   r0, @(h'8319, er4)
4372: 3c80                      mov.b   r4l, @h'ffff80
4374: f399                      mov.b   #h'99, r3h
4376: 7fc3                      .word
4378: 19e9                      sub.w   e6, e1
437a: c13c                      or.b    #h'3c, r1h
437c: 003f                      .word
437e: 5dca                      .word
4380: 0a06                      inc.b   #1, r6h
4382: c019                      or.b    #h'19, r0h
4384: 1813                      sub.b   r1h, r3h
4386: e311                      and.b   #h'11, r3h
4388: 0006                      .word
438a: 0378                      .word
438c: 0074                      .word
438e: 3ae0                      mov.b   r2l, @h'ffffe0
4390: 5c01                      .word
4392: 8001                      add.b   #h'01, r0h
4394: 6018                      bset    r1h, r0l
4396: 0c9e                      mov.b   r1l, r6l
4398: 7c75                      .word
439a: 28e0                      mov.b   @h'ffffe0, r0l
439c: 0c58                      mov.b   r5h, r0l
439e: 9b31                      addx.b  #h'31, r3l
43a0: 9661                      addx.b  #h'61, r6h
43a2: 7d66                      .word
43a4: c57c                      or.b    #h'7c, r5h
43a6: 2e06                      mov.b   @h'ffff06, r6l
43a8: e61a                      and.b   #h'1a, r6h
43aa: 17b5                      neg.l   er5
43ac: d923                      xor.b   #h'23, r1l
43ae: 0b19                      .word
43b0: d57f                      xor.b   #h'7f, r5h
43b2: c399                      or.b    #h'99, r3h
43b4: 5d23                      .word
43b6: 6326                      btst    r2h, r6h
43b8: 7327                      btst    #2, r7h
43ba: 9c7c                      addx.b  #h'7c, r4l
43bc: e492                      and.b   #h'92, r4h
43be: adc7                      cmp.b   #h'c7, r5l
43c0: 642f                      or.w    r2, e7
43c2: 9904                      addx.b  #h'04, r1l
43c4: 06ff                      andc    #h'ff, ccr
43c6: 0ede                      addx.b  r5l, r6l
43c8: 37c3                      mov.b   r7h, @h'ffffc3
43ca: 6667                      and.w   r6, r7
43cc: b249                      subx.b  #h'49, r2h
43ce: a80d                      cmp.b   #h'0d, r0l
43d0: d7f0                      xor.b   #h'f0, r7h
43d2: 1366                      .word
43d4: b601                      subx.b  #h'01, r6h
43d6: 6758                      bst     #5, r0l
43d8: be77                      subx.b  #h'77, r6l
43da: 7076                      bset    #7, r6h
43dc: c7cc                      or.b    #h'cc, r7h
43de: bf3c                      subx.b  #h'3c, r7l
43e0: 7ed3                      .word
43e2: ff42                      mov.b   #h'42, r7l
43e4: ac57                      cmp.b   #h'57, r4l
43e6: 9e7f                      addx.b  #h'7f, r6l
43e8: c0ed                      or.b    #h'ed, r0h
43ea: 3f5c                      mov.b   r7l, @h'ffff5c
43ec: 8eb5                      add.b   #h'b5, r6l
43ee: 5719                      .word
43f0: cf71                      or.b    #h'71, r7l
43f2: 2974                      mov.b   @h'ffff74, r1l
43f4: dce1                      xor.b   #h'e1, r4l
43f6: 1965                      sub.w   r6, r5
43f8: 7ddb                      .word
43fa: 98af                      addx.b  #h'af, r0l
43fc: 9ecf                      addx.b  #h'cf, r6l
43fe: c009                      or.b    #h'09, r0h
4400: 6d8e                      mov.w   e6, @-er0
4402: 7f9b                      .word
4404: 9148                      addx.b  #h'48, r1h
4406: 05e0                      xorc    #h'e0, ccr
4408: 678e                      bist    #0, r6l
440a: 08d1                      add.b   r5l, r1h
440c: 03f8                      .word
440e: fc3c                      mov.b   #h'3c, r4l
4410: 4420                      bcc     h'004432
4412: 512d                      divxu.b r2h, e5
4414: 86aa                      add.b   #h'aa, r6h
4416: a0ba                      cmp.b   #h'ba, r0h
4418: c610                      or.b    #h'10, r6h
441a: 1182                      shar.b  r2h
441c: 31ec                      mov.b   r1h, @h'ffffec
441e: 010f                      .word
4420: e648                      and.b   #h'48, r6h
4422: a0d2                      cmp.b   #h'd2, r0h
4424: 8d94                      add.b   #h'94, r5l
4426: aa3d                      cmp.b   #h'3d, r2l
4428: c073                      or.b    #h'73, r0h
442a: d482                      xor.b   #h'82, r4h
442c: 9f4a                      addx.b  #h'4a, r7l
442e: a7aa                      cmp.b   #h'aa, r7h
4430: c91b                      or.b    #h'1b, r1l
4432: 6965                      mov.w   @er6, r5
4434: 9881                      addx.b  #h'81, r0l
4436: 6e02 e857                 mov.b   @(h'e857, er0), r2h
443a: b4de                      subx.b  #h'de, r4h
443c: a133                      cmp.b   #h'33, r1h
443e: a032                      cmp.b   #h'32, r0h
4440: 1b45                      .word
4442: c66d                      or.b    #h'6d, r6h
4444: 35b9                      mov.b   r5h, @h'ffffb9
4446: aaca                      cmp.b   #h'ca, r2l
4448: 1b02                      subs.l  #1, er2
444a: abd9                      cmp.b   #h'd9, r3l
444c: 6e8e 7af0                 mov.b   r6l, @(h'7af0, er0)
4450: 9b19                      addx.b  #h'19, r3l
4452: d564                      xor.b   #h'64, r5h
4454: 5016                      mulxu.b r1h, r6
4456: a3ca                      cmp.b   #h'ca, r3h
4458: 392a                      mov.b   r1l, @h'ffff2a
445a: cf31                      or.b    #h'31, r7l
445c: 5395                      divxu.w e1, er5
445e: e6ad                      and.b   #h'ad, r6h
4460: e319                      and.b   #h'19, r3h
4462: 5223                      mulxu.w r2, er3
4464: f9c6                      mov.b   #h'c6, r1l
4466: 5fca                      jsr     @h'ca
4468: 6cb8                      mov.b   r0l, @-er3
446a: 1954                      sub.w   r5, r4
446c: 9df7                      addx.b  #h'f7, r5l
446e: ecd0                      and.b   #h'd0, r4l
4470: 984b                      addx.b  #h'4b, r0l
4472: 78d5                      .word
4474: e80c                      and.b   #h'0c, r0l
4476: 59d3                      .word
4478: 59ca                      .word
447a: 35df                      mov.b   r5h, @h'ffffdf
447c: 3bf8                      mov.b   r3l, @h'fffff8
447e: 7bb6                      .word
4480: 7f8b                      .word
4482: d2f3                      xor.b   #h'f3, r2h
4484: 1f7e                      .word
4486: fe13                      mov.b   #h'13, r6l
4488: ca7f                      or.b    #h'7f, r2l
448a: ac9c                      cmp.b   #h'9c, r4l
448c: 3ddf                      mov.b   r5l, @h'ffffdf
448e: cc1d                      or.b    #h'1d, r4l
4490: 627f                      bclr    r7h, r7l
4492: d90b                      xor.b   #h'0b, r1l
4494: 257e                      mov.b   @h'ffff7e, r5h
4496: db78                      xor.b   #h'78, r3l
4498: b1e1                      subx.b  #h'e1, r1h
449a: e7f6                      and.b   #h'f6, r7h
449c: 32fa                      mov.b   r2h, @h'fffffa
449e: aa79                      cmp.b   #h'79, r2l
44a0: 9491                      addx.b  #h'91, r4h
44a2: 7c43                      .word
44a4: 5761                      .word
44a6: b0b0                      subx.b  #h'b0, r0h
44a8: 66d5                      and.w   e5, r5
44aa: 0e26                      addx.b  r2h, r6h
44ac: cfa8                      or.b    #h'a8, r7l
44ae: b16a                      subx.b  #h'6a, r1h
44b0: 3f1b                      mov.b   r7l, @h'ffff1b
44b2: 23e4                      mov.b   @h'ffffe4, r3h
44b4: 8832                      add.b   #h'32, r0l
44b6: b431                      subx.b  #h'31, r4h
44b8: e332                      and.b   #h'32, r3h
44ba: d040                      xor.b   #h'40, r0h
44bc: 8665                      add.b   #h'65, r6h
44be: 6869                      mov.b   @er6, r1l
44c0: 77c4                      bild    #4, r4h
44c2: 1795                      neg.w   r5
44c4: 8f02                      add.b   #h'02, r7l
44c6: a3c6                      cmp.b   #h'c6, r3h
44c8: 93f3                      addx.b  #h'f3, r3h
44ca: 6829                      mov.b   @er2, r1l
44cc: f219                      mov.b   #h'19, r2h
44ce: fee9                      mov.b   #h'e9, r6l
44d0: 037c                      .word
44d2: 0655                      andc    #h'55, ccr
44d4: be73                      subx.b  #h'73, r6l
44d6: 54f1                      .word
44d8: d559                      xor.b   #h'59, r5h
44da: 59a8                      .word
44dc: aa7a                      cmp.b   #h'7a, r2l
44de: c234                      or.b    #h'34, r2h
44e0: 5066                      mulxu.b r6h, r6
44e2: 19bd                      sub.w   e3, e5
44e4: 774e                      bld     #4, r6l
44e6: 8645                      add.b   #h'45, r6h
44e8: 59b1                      .word
44ea: 54b3                      .word
44ec: 1d3a                      cmp.w   r3, e2
44ee: baac                      subx.b  #h'ac, r2l
44f0: 5e0f 97ad                 jsr     h'0f97ad
44f4: c172                      or.b    #h'72, r1h
44f6: 4f39                      ble     h'004531
44f8: 68c2                      mov.b   r2h, @er4
44fa: 9921                      addx.b  #h'21, r1l
44fc: 515b                      divxu.b r5h, e3
44fe: c3ed                      or.b    #h'ed, r3h
4500: d0fc                      xor.b   #h'fc, r0h
4502: 4f38                      ble     h'00453c
4504: 357b                      mov.b   r5h, @h'ffff7b
4506: 0d48                      mov.w   r4, e0
4508: d831                      xor.b   #h'31, r0l
450a: 582d                      .word
450c: fc93                      mov.b   #h'93, r4l
450e: e7f7                      and.b   #h'f7, r7h
4510: dcbe                      xor.b   #h'be, r4l
4512: 56e6                      .word
4514: 1f70                      .word
4516: fba3                      mov.b   #h'a3, r3l
4518: 6536                      xor.w   r3, r6
451a: 2cb5                      mov.b   @h'ffffb5, r4l
451c: e6ca                      and.b   #h'ca, r6h
451e: 749f                      bior    #1, r7l
4520: e0e7                      and.b   #h'e7, r0h
4522: 1fe1                      cmp.l   er6, er1
4524: 5ff2                      jsr     @h'f2
4526: 8dc0                      add.b   #h'c0, r5l
4528: ff81                      mov.b   #h'81, r7l
452a: af73                      cmp.b   #h'73, r7l
452c: 19c5                      sub.w   e4, r5
452e: 44e1                      bcc     h'004511
4530: c362                      or.b    #h'62, r3h
4532: c93f                      or.b    #h'3f, r1l
4534: f28a                      mov.b   #h'8a, r2h
4536: 3047                      mov.b   r0h, @h'ffff47
4538: f007                      mov.b   #h'07, r0h
453a: 02af                      .word
453c: 4a93                      bpl     h'0044d1
453e: 55ff                      bsr     h'00453f
4540: c312                      or.b    #h'12, r3h
4542: 4751                      beq     h'004595
4544: 23bf                      mov.b   @h'ffffbf, r3h
4546: 883d                      add.b   #h'3d, r0l
4548: c30a                      or.b    #h'0a, r3h
454a: 5602                      .word
454c: 1e2a                      subx.b  r2h, r2l
454e: ba03                      subx.b  #h'03, r2l
4550: 8167                      add.b   #h'67, r1h
4552: ad0c                      cmp.b   #h'0c, r5l
4554: 32f2                      mov.b   r2h, @h'fffff2
4556: ab50                      cmp.b   #h'50, r3l
4558: 1be4                      .word
455a: 40f1                      bt      h'00454d
455c: b2b8                      subx.b  #h'b8, r2h
455e: 7fcc                      .word
4560: abb8                      cmp.b   #h'b8, r3l
4562: 980c                      addx.b  #h'0c, r0l
4564: 872d                      add.b   #h'2d, r7h
4566: 0439                      orc     #h'39, ccr
4568: 2b3d                      mov.b   @h'ffff3d, r3l
456a: caf8                      or.b    #h'f8, r2l
456c: 6b7a                      .word
456e: 98b1                      addx.b  #h'b1, r0l
4570: 2c1e                      mov.b   @h'ffff1e, r4l
4572: 96ab                      addx.b  #h'ab, r6h
4574: 5232                      mulxu.w r3, er2
4576: 2ce1                      mov.b   @h'ffffe1, r4l
4578: 1df0                      cmp.w   e7, r0
457a: 7556                      bxor    #5, r6h
457c: 56a5                      .word
457e: 23a6                      mov.b   @h'ffffa6, r3h
4580: 09a8                      add.w   e2, e0
4582: 13ca                      rotr.b  #2, r2l
4584: e219                      and.b   #h'19, r2h
4586: 96c0                      addx.b  #h'c0, r6h
4588: 3b34                      mov.b   r3l, @h'ffff34
458a: d965                      xor.b   #h'65, r1l
458c: d842                      xor.b   #h'42, r0l
458e: 905d                      addx.b  #h'5d, r0h
4590: adbf                      cmp.b   #h'bf, r5l
4592: 28ff                      mov.b   @h'ffffff, r0l
4594: d1d9                      xor.b   #h'd9, r1h
4596: 3741                      mov.b   r7h, @h'ffff41
4598: 5dc7                      .word
459a: 2f45                      mov.b   @h'ffff45, r7l
459c: 7e57                      .word
459e: f027                      mov.b   #h'27, r0h
45a0: f3ff                      mov.b   #h'ff, r3h
45a2: bdfa                      subx.b  #h'fa, r5l
45a4: 1f27                      .word
45a6: c391                      or.b    #h'91, r3h
45a8: 7d12                      .word
45aa: 58f0 7a79                 ble     h'00c027
45ae: dd4b                      xor.b   #h'4b, r5l
45b0: 48bd                      bvc     h'00456f
45b2: 70ef                      .word
45b4: 97db                      addx.b  #h'db, r7h
45b6: 2ac0                      mov.b   @h'ffffc0, r2l
45b8: c29f                      or.b    #h'9f, r2h
45ba: 7bff                      .word
45bc: 3c33                      mov.b   r4l, @h'ffff33
45be: ac0c                      cmp.b   #h'0c, r4l
45c0: d9bf                      xor.b   #h'bf, r1l
45c2: 8879                      add.b   #h'79, r0l
45c4: 90c1                      addx.b  #h'c1, r0h
45c6: a2f6                      cmp.b   #h'f6, r2h
45c8: a1cc                      cmp.b   #h'cc, r1h
45ca: 0828                      add.b   r2h, r0l
45cc: b2c1                      subx.b  #h'c1, r2h
45ce: 1055                      shll.w  #2, r5
45d0: f531                      mov.b   #h'31, r5h
45d2: d712                      xor.b   #h'12, r7h
45d4: 6287                      bclr    r0l, r7h
45d6: 666f                      and.w   r6, e7
45d8: 2073                      mov.b   @h'ffff73, r0h
45da: 472d                      beq     h'004609
45dc: e82e                      and.b   #h'2e, r0l
45de: b8ed                      subx.b  #h'ed, r0l
45e0: 670c                      bst     #0, r4l
45e2: 4774                      beq     h'004658
45e4: 41cd                      bf      h'0045b3
45e6: 23ed                      mov.b   @h'ffffed, r3h
45e8: b916                      subx.b  #h'16, r1l
45ea: 34dd                      mov.b   r4h, @h'ffffdd
45ec: eebb                      and.b   #h'bb, r6l
45ee: 6566                      xor.w   r6, r6
45f0: 9437                      addx.b  #h'37, r4h
45f2: a03d                      cmp.b   #h'3d, r0h
45f4: bf6c                      subx.b  #h'6c, r7l
45f6: 1f96                      cmp.l   er1, er6
45f8: e967                      and.b   #h'67, r1l
45fa: 6f25 ce9a                 mov.w   @(h'ce9a, er2), r5
45fe: 5956                      .word
4600: 189f                      sub.b   r1l, r7l
4602: 91c3                      addx.b  #h'c3, r1h
4604: a2f6                      cmp.b   #h'f6, r2h
4606: 82ef                      add.b   #h'ef, r2h
4608: 6caf                      mov.b   r7l, @-er2
460a: a647                      cmp.b   #h'47, r6h
460c: df7b                      xor.b   #h'7b, r7l
460e: 69b8                      mov.w   e0, @er3
4610: 51f6                      divxu.b r7l, r6
4612: ec57                      and.b   #h'57, r4l
4614: 4b07                      bmi     h'00461d
4616: d5cd                      xor.b   #h'cd, r5h
4618: 90fc                      addx.b  #h'fc, r0h
461a: ef46                      and.b   #h'46, r7l
461c: d593                      xor.b   #h'93, r5h
461e: b076                      subx.b  #h'76, r0h
4620: 7058                      bset    #5, r0l
4622: 71a0                      .word
4624: c17a                      or.b    #h'7a, r1h
4626: fe0a                      mov.b   #h'0a, r6l
4628: 4c7d                      bge     h'0046a7
462a: 055a                      xorc    #h'5a, ccr
462c: fffa                      mov.b   #h'fa, r7l
462e: 15bb                      xor.b   r3l, r3l
4630: fd57                      mov.b   #h'57, r5l
4632: 1520                      xor.b   r2h, r0h
4634: 1fdf                      .word
4636: e67f                      and.b   #h'7f, r6h
4638: 7dbe                      .word
463a: 20fc                      mov.b   @h'fffffc, r0h
463c: bfcd                      subx.b  #h'cd, r7l
463e: a2f0                      cmp.b   #h'f0, r2h
4640: 4f08                      ble     h'00464a
4642: f3b0                      mov.b   #h'b0, r3h
4644: 65f2                      xor.w   e7, r2
4646: 8a40                      add.b   #h'40, r2l
4648: aadc                      cmp.b   #h'dc, r2l
464a: 9171                      addx.b  #h'71, r1h
464c: 54d6                      .word
464e: 0111                      .word
4650: 3898                      mov.b   r0l, @h'ffff98
4652: d2d8                      xor.b   #h'd8, r2h
4654: 808f                      add.b   #h'8f, r0h
4656: 48af                      bvc     h'004607
4658: 6c1a                      mov.b   @er1+, r2l
465a: fa0d                      mov.b   #h'0d, r2l
465c: 070e                      ldc     #h'0e, ccr
465e: d08e                      xor.b   #h'8e, r0h
4660: 8406                      add.b   #h'06, r4h
4662: 94ee                      addx.b  #h'ee, r4h
4664: bc4a                      subx.b  #h'4a, r4l
4666: 674d                      bst     #4, r5l
4668: 0faa                      .word
466a: 1e66                      subx.b  r6h, r6h
466c: db02                      xor.b   #h'02, r3l
466e: 65cc                      xor.w   e4, e4
4670: 6d41                      mov.w   @er4+, r1
4672: 232b                      mov.b   @h'ffff2b, r3h
4674: 9d3b                      addx.b  #h'3b, r5l
4676: ca99                      or.b    #h'99, r2l
4678: c2d8                      or.b    #h'd8, r2h
467a: 1935                      sub.w   r3, r5
467c: e87c                      and.b   #h'7c, r0l
467e: f57a                      mov.b   #h'7a, r5h
4680: 407d                      bt      h'0046ff
4682: 3532                      mov.b   r5h, @h'ffff32
4684: a367                      cmp.b   #h'67, r3h
4686: e628                      and.b   #h'28, r6h
4688: a75f                      cmp.b   #h'5f, r7h
468a: cfc8                      or.b    #h'c8, r7l
468c: 4e3d                      bgt     h'0046cb
468e: 8473                      add.b   #h'73, r4h
4690: 0c87                      mov.b   r0l, r7h
4692: 6d97                      mov.w   r7, @-er1
4694: 8546                      add.b   #h'46, r5h
4696: 1b09                      .word
4698: 6f76 bab2                 mov.w   @(h'bab2, sp), r6
469c: bf0c                      subx.b  #h'0c, r7l
469e: 2baa                      mov.b   @h'ffffaa, r3l
46a0: f9d8                      mov.b   #h'd8, r1l
46a2: b955                      subx.b  #h'55, r1l
46a4: ff3f                      mov.b   #h'3f, r7l
46a6: 5131                      divxu.b r3h, r1
46a8: a632                      cmp.b   #h'32, r6h
46aa: 3ba4                      mov.b   r3l, @h'ffffa4
46ac: 5e65 fc84                 jsr     h'65fc84
46b0: e03b                      and.b   #h'3b, r0h
46b2: f428                      mov.b   #h'28, r4h
46b4: 33c3                      mov.b   r3h, @h'ffffc3
46b6: 7e5a                      .word
46b8: b85d                      subx.b  #h'5d, r0l
46ba: 8831                      add.b   #h'31, r0l
46bc: c59b                      or.b    #h'9b, r5h
46be: 28b1                      mov.b   @h'ffffb1, r0l
46c0: 05db                      xorc    #h'db, ccr
46c2: 221d                      mov.b   @h'ffff1d, r2h
46c4: 3311                      mov.b   r3h, @h'ffff11
46c6: 4a25                      bpl     h'0046ed
46c8: 1d75                      cmp.w   r7, r5
46ca: feb5                      mov.b   #h'b5, r6l
46cc: 36ca                      mov.b   r6h, @h'ffffca
46ce: 1936                      sub.w   r3, r6
46d0: 6ec1 b6f2                 mov.b   r1h, @(h'b6f2, er4)
46d4: 0250                      .word
46d6: a68f                      cmp.b   #h'8f, r6h
46d8: e203                      and.b   #h'03, r2h
46da: c9be                      or.b    #h'be, r1l
46dc: 51c3                      divxu.b r4l, r3
46de: 839a                      add.b   #h'9a, r3h
46e0: 2a8b                      mov.b   @h'ffff8b, r2l
46e2: 166c                      and.b   r6h, r4l
46e4: 077d                      ldc     #h'7d, ccr
46e6: f736                      mov.b   #h'36, r7h
46e8: 9afb                      addx.b  #h'fb, r2l
46ea: b799                      subx.b  #h'99, r7h
46ec: e971                      and.b   #h'71, r1l
46ee: bf6c                      subx.b  #h'6c, r7l
46f0: 3405                      mov.b   r4h, @h'ffff05
46f2: 8184                      add.b   #h'84, r1h
46f4: 1f53                      .word
46f6: c37e                      or.b    #h'7e, r3h
46f8: 0ba5                      .word
46fa: ff51                      mov.b   #h'51, r7l
46fc: 4e78                      bgt     h'004776
46fe: 3bea                      mov.b   r3l, @h'ffffea
4700: 2f1f                      mov.b   @h'ffff1f, r7l
4702: 34dc                      mov.b   r4h, @h'ffffdc
4704: 9670                      addx.b  #h'70, r6h
4706: 1a6e                      .word
4708: 4b54                      bmi     h'00475e
470a: 1df9                      cmp.w   e7, e1
470c: 7dfd                      .word
470e: 1fd8                      .word
4710: df52                      xor.b   #h'52, r7l
4712: cc8f                      or.b    #h'8f, r4l
4714: d3fd                      xor.b   #h'fd, r3h
4716: d8f9                      xor.b   #h'f9, r0l
4718: 9f4a                      addx.b  #h'4a, r7l
471a: caff                      or.b    #h'ff, r2l
471c: af50                      cmp.b   #h'50, r7l
471e: ff8f                      mov.b   #h'8f, r7l
4720: 7200                      bclr    #0, r0h
4722: 3031                      mov.b   r0h, @h'ffff31
4724: 3233                      mov.b   r2h, @h'ffff33
4726: 3435                      mov.b   r4h, @h'ffff35
4728: 3637                      mov.b   r6h, @h'ffff37
472a: 3839                      mov.b   r0l, @h'ffff39
472c: 4142                      bf      h'004770
472e: 4344                      bls     h'004774
4730: 4546                      bcs     h'004778
4732: 0030                      .word
4734: 3132                      mov.b   r1h, @h'ffff32
4736: 3334                      mov.b   r3h, @h'ffff34
4738: 3536                      mov.b   r5h, @h'ffff36
473a: 3738                      mov.b   r7h, @h'ffff38
473c: 3961                      mov.b   r1l, @h'ffff61
473e: 6263                      bclr    r6h, r3h
4740: 6465                      or.w    r6, r5
4742: 6600                      and.w   r0, r0
4744: 6373                      btst    r7h, r3h
4746: 7569                      bxor    #6, r1l
4748: 6478                      or.w    r7, e0
474a: 5800 0000                 bt      h'00474e
474e: 0000                      nop
4750: 0000                      nop
4752: 0000                      nop
4754: 0000                      nop
4756: 0000                      nop
4758: 54c6                      .word
475a: 0a73                      .word
475c: 656e                      xor.w   r6, e6
475e: 6425                      or.w    r2, r5
4760: 640a                      or.w    r0, e2
4762: 0020                      .word
4764: 7772                      bld     #7, r2h
4766: 6f6e 6720                 mov.w   @(h'6720, er6), e6
476a: 6865                      mov.b   @er6, r5h
476c: 6164                      bnot    r6h, r4h
476e: 2000                      mov.b   @h'ffff00, r0h
4770: 6372                      btst    r7h, r2h
4772: 6320                      btst    r2h, r0h
4774: 6572                      xor.w   r7, r2
4776: 7200                      bclr    #0, r0h
4778: 0a72                      .word
477a: 6563                      xor.w   r6, r3
477c: 6569                      xor.w   r6, e1
477e: 7669                      band    #6, r1l
4780: 6e67 2066                 mov.b   @(h'2066, er6), r7h
4784: 696c                      mov.w   @er6, e4
4786: 6520                      xor.w   r2, r0
4788: 2825                      mov.b   @h'ffff25, r0l
478a: 6c64                      mov.b   @er6+, r4h
478c: 292e                      mov.b   @h'ffff2e, r1l
478e: 2e2e                      mov.b   @h'ffff2e, r6l
4790: 000a                      .word
4792: 6361                      btst    r6h, r1h
4794: 6e63 656c                 mov.b   @(h'656c, er6), r3h
4798: 0a00                      inc.b   #1, r0h
479a: 0a64                      .word
479c: 6f6e 650a                 mov.w   @(h'650a, er6), e6
47a0: 000a                      .word
47a2: 2a20                      mov.b   @h'ffff20, r2l
47a4: 6162                      bnot    r6h, r2h
47a6: 6f72 7420                 mov.w   @(h'7420, sp), r2
47aa: 7265                      bclr    #6, r5h
47ac: 6365                      btst    r6h, r5h
47ae: 6976                      mov.w   @sp, r6
47b0: 696e                      mov.w   @er6, e6
47b2: 6700                      bst     #0, r0h
47b4: 0a75                      .word
47b6: 6e73 7570                 mov.b   @(h'7570, sp), r3h
47ba: 706f                      bset    #6, r7l
47bc: 7274                      bclr    #7, r4h
47be: 6564                      xor.w   r6, r4
47c0: 2073                      mov.b   @h'ffff73, r0h
47c2: 7461                      bor     #6, r1h
47c4: 6e64 6172                 mov.b   @(h'6172, er6), r4h
47c8: 6420                      or.w    r2, r0
47ca: 7265                      bclr    #6, r5h
47cc: 7175                      bnot    #7, r5h
47ce: 6573                      xor.w   r7, r3
47d0: 743a                      bor     #3, r2l
47d2: 2025                      mov.b   @h'ffff25, r0h
47d4: 6400                      or.w    r0, r0
47d6: 0000                      nop
47d8: 0000                      nop
47da: 66aa                      and.w   e2, e2
47dc: 0000                      nop
47de: 66ba                      and.w   e3, e2
47e0: 0000                      nop
47e2: 66b2                      and.w   e3, r2
47e4: 0000                      nop
47e6: 66ba                      and.w   e3, e2
47e8: 0000                      nop
47ea: 666e                      and.w   r6, e6
47ec: 0000                      nop
47ee: 6666                      and.w   r6, r6
47f0: 0000                      nop
47f2: 66ba                      and.w   e3, e2
47f4: 0000                      nop
47f6: 66ba                      and.w   e3, e2
47f8: 0000                      nop
47fa: 66a2                      and.w   e2, r2
47fc: 1201                      rotxl.b r1h
47fe: 1001                      shll.b  r1h
4800: ffff                      mov.b   #h'ff, r7l
4802: ff08                      mov.b   #h'08, r7l
4804: 660b                      and.w   r0, e3
4806: 4000                      bt      h'004808
4808: 0100                      .word
480a: 0000                      nop
480c: 0001                      .word
480e: 0902                      add.w   r0, r2
4810: 2000                      mov.b   @h'ffff00, r0h
4812: 0101                      .word
4814: 0080                      .word
4816: 3209                      mov.b   r2h, @h'ffff09
4818: 0400                      orc     #h'00, ccr
481a: 0002                      .word
481c: ffff                      mov.b   #h'ff, r7l
481e: ff00                      mov.b   #h'00, r7l
4820: 0705                      ldc     #h'05, ccr
4822: 8102                      add.b   #h'02, r1h
4824: 4000                      bt      h'004826
4826: 0007                      .word
4828: 0502                      xorc    #h'02, ccr
482a: 0240                      .word
482c: 0000                      nop
482e: 0a46                      .word
4830: 6169                      bnot    r6h, r1l
4832: 6c65                      mov.b   @er6+, r5h
4834: 6420                      or.w    r2, r0
4836: 746f                      bor     #6, r7l
4838: 2073                      mov.b   @h'ffff73, r0h
483a: 656e                      xor.w   r6, e6
483c: 6420                      or.w    r2, r0
483e: 6d65                      mov.w   @er6+, r5
4840: 7373                      btst    #7, r3h
4842: 6167                      bnot    r6h, r7h
4844: 6500                      xor.w   r0, r0
4846: 0a4c                      .word
4848: 6f61 6420                 mov.w   @(h'6420, er6), r1
484c: 6164                      bnot    r6h, r4h
484e: 6472                      or.w    r7, r2
4850: 6573                      xor.w   r7, r3
4852: 7320                      btst    #2, r0h
4854: 6973                      mov.w   @sp, r3
4856: 2030                      mov.b   @h'ffff30, r0h
4858: 7825                      .word
485a: 3038                      mov.b   r0h, @h'ffff38
485c: 6c58                      mov.b   @er5+, r0l
485e: 000a                      .word
4860: 4669                      bne     h'0048cb
4862: 6c65                      mov.b   @er6+, r5h
4864: 2073                      mov.b   @h'ffff73, r0h
4866: 697a                      mov.w   @sp, e2
4868: 6520                      xor.w   r2, r0
486a: 6973                      mov.w   @sp, r3
486c: 2025                      mov.b   @h'ffff25, r0h
486e: 6c64                      mov.b   @er6+, r4h
4870: 2c20                      mov.b   @h'ffff20, r4l
4872: 4352                      bls     h'0048c6
4874: 4333                      bls     h'0048a9
4876: 3220                      mov.b   r2h, @h'ffff20
4878: 3d20                      mov.b   r5l, @h'ffff20
487a: 3078                      mov.b   r0h, @h'ffff78
487c: 2530                      mov.b   @h'ffff30, r5h
487e: 386c                      mov.b   r0l, @h'ffff6c
4880: 5800 0a25                 bt      h'0052a9
4884: 6c64                      mov.b   @er6+, r4h
4886: 2062                      mov.b   @h'ffff62, r0h
4888: 7974                      .word
488a: 6573                      xor.w   r7, r3
488c: 206f                      mov.b   @h'ffff6f, r0h
488e: 7574                      bxor    #7, r4h
4890: 206f                      mov.b   @h'ffff6f, r0h
4892: 6620                      and.w   r2, r0
4894: 256c                      mov.b   @h'ffff6c, r5h
4896: 6420                      or.w    r2, r0
4898: 7265                      bclr    #6, r5h
489a: 6365                      btst    r6h, r5h
489c: 6976                      mov.w   @sp, r6
489e: 6564                      xor.w   r6, r4
48a0: 000a                      .word
48a2: 7772                      bld     #7, r2h
48a4: 6f6e 6720                 mov.w   @(h'6720, er6), e6
48a8: 6372                      btst    r7h, r2h
48aa: 6333                      btst    r3h, r3h
48ac: 323a                      mov.b   r2h, @h'ffff3a
48ae: 2030                      mov.b   @h'ffff30, r0h
48b0: 7825                      .word
48b2: 3038                      mov.b   r0h, @h'ffff38
48b4: 6c58                      mov.b   @er5+, r0l
48b6: 000a                      .word
48b8: 696d                      mov.w   @er6, e5
48ba: 6167                      bnot    r6h, r7h
48bc: 6520                      xor.w   r2, r0
48be: 286c                      mov.b   @h'ffff6c, r0l
48c0: 656e                      xor.w   r6, e6
48c2: 3d25                      mov.b   r5l, @h'ffff25
48c4: 6c64                      mov.b   @er6+, r4h
48c6: 202c                      mov.b   @h'ffff2c, r0h
48c8: 6372                      btst    r7h, r2h
48ca: 6333                      btst    r3h, r3h
48cc: 323d                      mov.b   r2h, @h'ffff3d
48ce: 3078                      mov.b   r0h, @h'ffff78
48d0: 2530                      mov.b   @h'ffff30, r5h
48d2: 386c                      mov.b   r0l, @h'ffff6c
48d4: 5829                      .word
48d6: 2072                      mov.b   @h'ffff72, r0h
48d8: 6563                      xor.w   r6, r3
48da: 6569                      xor.w   r6, e1
48dc: 7665                      band    #6, r5h
48de: 6420                      or.w    r2, r0
48e0: 4f4b                      ble     h'00492d
48e2: 000a                      .word
48e4: 5374                      divxu.w r7, er4
48e6: 6172                      bnot    r7h, r2h
48e8: 7469                      bor     #6, r1l
48ea: 6e67 2030                 mov.b   @(h'2030, er6), r7h
48ee: 7825                      .word
48f0: 3038                      mov.b   r0h, @h'ffff38
48f2: 6c58                      mov.b   @er5+, r0l
48f4: 000a                      .word
48f6: 496e                      bvs     h'004966
48f8: 7661                      band    #6, r1h
48fa: 6c69                      mov.b   @er6+, r1l
48fc: 6420                      or.w    r2, r0
48fe: 626f                      bclr    r6h, r7l
4900: 6f74 2069                 mov.w   @(h'2069, sp), r4
4904: 6d61                      mov.w   @er6+, r1
4906: 6765                      bst     #6, r5h
4908: 000a                      .word
490a: 696d                      mov.w   @er6, e5
490c: 6720                      bst     #2, r0h
490e: 6973                      mov.w   @sp, r3
4910: 2074                      mov.b   @h'ffff74, r0h
4912: 6f6f 206c                 mov.w   @(h'206c, er6), e7
4916: 6f6e 6720                 mov.w   @(h'6720, er6), e6
491a: 2825                      mov.b   @h'ffff25, r0l
491c: 6c64                      mov.b   @er6+, r4h
491e: 2900                      mov.b   @h'ffff00, r1l
4920: 0a77                      .word
4922: 726f                      bclr    #6, r7l
4924: 6e67 2062                 mov.b   @(h'2062, er6), r7h
4928: 6c6f                      mov.b   @er6+, r7l
492a: 636b                      btst    r6h, r3l
492c: 204e                      mov.b   @h'ffff4e, r0h
492e: 6f3a 2025                 mov.w   @(h'2025, er3), e2
4932: 6420                      or.w    r2, r0
4934: 2825                      mov.b   @h'ffff25, r0l
4936: 6420                      or.w    r2, r0
4938: 6578                      xor.w   r7, e0
493a: 7065                      bset    #6, r5h
493c: 6374                      btst    r7h, r4h
493e: 6564                      xor.w   r6, r4
4940: 2900                      mov.b   @h'ffff00, r1l
4942: 0a52                      .word
4944: 6563                      xor.w   r6, r3
4946: 6569                      xor.w   r6, e1
4948: 7665                      band    #6, r5h
494a: 2065                      mov.b   @h'ffff65, r0h
494c: 7272                      bclr    #7, r2h
494e: 6f72 202d                 mov.w   @(h'202d, sp), r2
4952: 2072                      mov.b   @h'ffff72, r0h
4954: 6573                      xor.w   r7, r3
4956: 7461                      bor     #6, r1h
4958: 7274                      bclr    #7, r4h
495a: 2073                      mov.b   @h'ffff73, r0h
495c: 656e                      xor.w   r6, e6
495e: 7400                      bor     #0, r0h
4960: 2d09                      mov.b   @h'ffff09, r5l
4962: 0000                      nop
4964: 0000                      nop
4966: 4800                      bvc     h'004968
4968: 0000                      nop
496a: 1800                      sub.b   r0h, r0h
496c: 7902 1234                 mov.w   #h'1234, r2
4970: 7800 6ba2 001f fffe       mov.w   r2, @(h'1ffffe, er0)
4978: 7902 8765                 mov.w   #h'8765, r2
497c: 7800 6ba2 001f fbfe       mov.w   r2, @(h'1ffbfe, er0)
4984: 7902 cdab                 mov.w   #h'cdab, r2
4988: 7800 6ba2 001f f9fe       mov.w   r2, @(h'1ff9fe, er0)
4990: 7800 6b22 001f fffe       mov.w   @(h'1ffffe, er0), r2
4998: 7922 1234                 cmp.w   #h'1234, r2
499c: 4606                      bne     h'0049a4
499e: 7900 0002                 mov.w   #h'0002, r0
49a2: 402a                      bt      h'0049ce
49a4: 7922 8765                 cmp.w   #h'8765, r2
49a8: 4606                      bne     h'0049b0
49aa: 7900 0001                 mov.w   #h'0001, r0
49ae: 401e                      bt      h'0049ce
49b0: 7922 cdab                 cmp.w   #h'cdab, r2
49b4: 4716                      beq     h'0049cc
49b6: 0100 6df2                 mov.l   er2, @-sp
49ba: 7a02 0000 3e60            mov.l   #h'00003e60, er2
49c0: 0100 6df2                 mov.l   er2, @-sp
49c4: 5e00 5a20                 jsr     h'005a20
49c8: 0b97                      adds.l  #4, sp
49ca: 0b97                      adds.l  #4, sp
49cc: 1900                      sub.w   r0, r0
49ce: 5470                      rts
49d0: 0100 6df4                 mov.l   er4, @-sp
49d4: 0f84                      mov.l   er0, er4
49d6: 7a01 0020 0000            mov.l   #h'00200000, er1
49dc: 0fc2                      mov.l   er4, er2
49de: 0a92                      add.l   er1, er2
49e0: 0fa3                      mov.l   er2, er3
49e2: 1b93                      subs.l  #4, er3
49e4: 0100 69b1                 mov.l   er1, @er3
49e8: 1b92                      subs.l  #4, er2
49ea: 1b92                      subs.l  #4, er2
49ec: 0f93                      mov.l   er1, er3
49ee: 1733                      not.l   er3
49f0: 0100 69a3                 mov.l   er3, @er2
49f4: 1131                      shlr.l  er1
49f6: 7a21 0008 0000            cmp.l   #h'00080000, er1
49fc: 42de                      bhi     h'0049dc
49fe: 0fc2                      mov.l   er4, er2
4a00: 7a12 001f fffc            add.l   #h'001ffffc, er2
4a06: 0100 6920                 mov.l   @er2, er0
4a0a: 0fc2                      mov.l   er4, er2
4a0c: 7a12 001f fff8            add.l   #h'001ffff8, er2
4a12: 0100 6922                 mov.l   @er2, er2
4a16: 1732                      not.l   er2
4a18: 1fa0                      cmp.l   er2, er0
4a1a: 4610                      bne     h'004a2c
4a1c: 7a20 0020 0000            cmp.l   #h'00200000, er0
4a22: 470a                      beq     h'004a2e
4a24: 7a20 0010 0000            cmp.l   #h'00100000, er0
4a2a: 4702                      beq     h'004a2e
4a2c: 1a80                      sub.l   er0, er0
4a2e: 0100 6d74                 mov.l   @sp+, er4
4a32: 5470                      rts
4a34: fad2                      mov.b   #h'd2, r2l
4a36: 3ab8                      mov.b   r2l, @h'ffffb8
4a38: 6a38 00ff ffb2 7250       bclr    #5, @h'ffffb2
4a40: 0100 6b02 ed20            mov.l   @h'ffed20, er2
4a46: 0b02                      adds.l  #1, er2
4a48: 0100 6b82 ed20            mov.l   er2, @h'ffed20
4a4e: 5470                      rts
4a50: 0100 6b00 ed20            mov.l   @h'ffed20, er0
4a56: 1a91                      sub.l   er1, er1
4a58: 8914                      add.b   #h'14, r1l
4a5a: 5e00 76b0                 jsr     h'0076b0
4a5e: 5470                      rts
4a60: 0100 6df4                 mov.l   er4, @-sp
4a64: 7a04 00ff dc00            mov.l   #h'00ffdc00, er4
4a6a: 0d12                      mov.w   r1, r2
4a6c: 17f2                      exts.l  er2
4a6e: 0f81                      mov.l   er0, er1
4a70: 0fc0                      mov.l   er4, er0
4a72: 5e00 3c82                 jsr     h'003c82
4a76: 0fc0                      mov.l   er4, er0
4a78: 5e00 609c                 jsr     h'00609c
4a7c: 0100 6d74                 mov.l   @sp+, er4
4a80: 5470                      rts
4a82: 18aa                      sub.b   r2l, r2l
4a84: 7a20 1234 abcd            cmp.l   #h'1234abcd, er0
4a8a: 4720                      beq     h'004aac
4a8c: 7a20 beeb ab00            cmp.l   #h'beebab00, er0
4a92: 4718                      beq     h'004aac
4a94: 7a20 01c0 ffab            cmp.l   #h'01c0ffab, er0
4a9a: 4710                      beq     h'004aac
4a9c: 7a20 02c0 ffab            cmp.l   #h'02c0ffab, er0
4aa2: 4708                      beq     h'004aac
4aa4: 7a20 ffc0 ffab            cmp.l   #h'ffc0ffab, er0
4aaa: 4602                      bne     h'004aae
4aac: fa01                      mov.b   #h'01, r2l
4aae: 0ca8                      mov.b   r2l, r0l
4ab0: 5470                      rts
4ab2: 18aa                      sub.b   r2l, r2l
4ab4: 7a20 1234 abcd            cmp.l   #h'1234abcd, er0
4aba: 4708                      beq     h'004ac4
4abc: 7a20 beeb ab00            cmp.l   #h'beebab00, er0
4ac2: 4602                      bne     h'004ac6
4ac4: fa01                      mov.b   #h'01, r2l
4ac6: 0ca8                      mov.b   r2l, r0l
4ac8: 5470                      rts
4aca: 0110 6df4                 stm.l   er4-er5, @-sp
4ace: 0f84                      mov.l   er0, er4
4ad0: 684a                      mov.b   @er4, r2l
4ad2: f200                      mov.b   #h'00, r2h
4ad4: 0d20                      mov.w   r2, r0
4ad6: 1770                      extu.l  er0
4ad8: 7901 0001                 mov.w   #h'0001, r1
4adc: 1070                      shll.l  #2, er0
4ade: 1070                      shll.l  #2, er0
4ae0: 1070                      shll.l  #2, er0
4ae2: 1070                      shll.l  #2, er0
4ae4: 0d13                      mov.w   r1, r3
4ae6: 17f3                      exts.l  er3
4ae8: 0fc2                      mov.l   er4, er2
4aea: 0ab2                      add.l   er3, er2
4aec: 682a                      mov.b   @er2, r2l
4aee: f200                      mov.b   #h'00, r2h
4af0: 1772                      extu.l  er2
4af2: 01f0 6420                 or.l    er2, er0
4af6: 0b01                      adds.l  #1, er1
4af8: 7921 0003                 cmp.w   #h'0003, r1
4afc: 4fde                      ble     h'004adc
4afe: 0110 6d75                 ldm.l   @sp+, er4-er5
4b02: 5470                      rts
4b04: 7a37 0000 0010            sub.l   #h'00000010, sp
4b0a: 0120 6df4                 stm.l   er4-er6, @-sp
4b0e: 0100 6ff0 0014            mov.l   er0, @(h'14, sp)
4b14: 0ff6                      mov.l   sp, er6
4b16: 7a16 0000 0018            add.l   #h'00000018, er6
4b1c: 1aa2                      sub.l   er2, er2
4b1e: 1b02                      subs.l  #1, er2
4b20: 0100 69e2                 mov.l   er2, @er6
4b24: 0100 6f75 0014            mov.l   @(h'14, sp), er5
4b2a: 0100 6f55 0004            mov.l   @(h'4, er5), er5
4b30: 0100 6ff5 000c            mov.l   er5, @(h'c, sp)
4b36: 0100 6df5                 mov.l   er5, @-sp
4b3a: 7a02 0000 3e79            mov.l   #h'00003e79, er2
4b40: 0100 6df2                 mov.l   er2, @-sp
4b44: 5e00 5a20                 jsr     h'005a20
4b48: 0fe4                      mov.l   er6, er4
4b4a: 0100 6f70 001c            mov.l   @(h'1c, sp), er0
4b50: 0ad0                      add.l   er5, er0
4b52: 0b97                      adds.l  #4, sp
4b54: 0b97                      adds.l  #4, sp
4b56: 0100 6ff0 0010            mov.l   er0, @(h'10, sp)
4b5c: 1a91                      sub.l   er1, er1
4b5e: 8903                      add.b   #h'03, r1l
4b60: 0100 6f75 0010            mov.l   @(h'10, sp), er5
4b66: 6c5b                      mov.b   @er5+, r3l
4b68: f300                      mov.b   #h'00, r3h
4b6a: 0100 6ff5 0010            mov.l   er5, @(h'10, sp)
4b70: 6f42 0002                 mov.w   @(h'2, er4), r2
4b74: 6532                      xor.w   r3, r2
4b76: 1072                      shll.l  #2, er2
4b78: 7a62 0000 03fc            and.l   #h'000003fc, er2
4b7e: 0100 6943                 mov.l   @er4, er3
4b82: 1173                      shlr.l  #2, er3
4b84: 1173                      shlr.l  #2, er3
4b86: 1173                      shlr.l  #2, er3
4b88: 1173                      shlr.l  #2, er3
4b8a: 0100 7820 6b22 0000 04e0  mov.l   @(h'4e0, er2), er2
4b94: 01f0 6532                 xor.l   er3, er2
4b98: 0100 69c2                 mov.l   er2, @er4
4b9c: 0f92                      mov.l   er1, er2
4b9e: 1b01                      subs.l  #1, er1
4ba0: 46be                      bne     h'004b60
4ba2: 0fe4                      mov.l   er6, er4
4ba4: 0100 6f76 0014            mov.l   @(h'14, sp), er6
4baa: 0b96                      adds.l  #4, er6
4bac: 0b96                      adds.l  #4, er6
4bae: 0100 6f71 000c            mov.l   @(h'c, sp), er1
4bb4: 7a11 ffff fff7            add.l   #h'fffffff7, er1
4bba: 0100 6f75 000c            mov.l   @(h'c, sp), er5
4bc0: 1b95                      subs.l  #4, er5
4bc2: 1b95                      subs.l  #4, er5
4bc4: 0fd5                      mov.l   er5, er5
4bc6: 4736                      beq     h'004bfe
4bc8: 6c6b                      mov.b   @er6+, r3l
4bca: f300                      mov.b   #h'00, r3h
4bcc: 6f42 0002                 mov.w   @(h'2, er4), r2
4bd0: 6532                      xor.w   r3, r2
4bd2: 1072                      shll.l  #2, er2
4bd4: 7a62 0000 03fc            and.l   #h'000003fc, er2
4bda: 0100 6943                 mov.l   @er4, er3
4bde: 1173                      shlr.l  #2, er3
4be0: 1173                      shlr.l  #2, er3
4be2: 1173                      shlr.l  #2, er3
4be4: 1173                      shlr.l  #2, er3
4be6: 0100 7820 6b22 0000 04e0  mov.l   @(h'4e0, er2), er2
4bf0: 01f0 6532                 xor.l   er3, er2
4bf4: 0100 69c2                 mov.l   er2, @er4
4bf8: 0f92                      mov.l   er1, er2
4bfa: 1b01                      subs.l  #1, er1
4bfc: 46ca                      bne     h'004bc8
4bfe: 0100 6f74 0018            mov.l   @(h'18, sp), er4
4c04: 1734                      not.l   er4
4c06: 0b90                      adds.l  #4, er0
4c08: 5e00 4aca                 jsr     h'004aca
4c0c: 0100 6f72 0018            mov.l   @(h'18, sp), er2
4c12: 1f84                      cmp.l   er0, er4
4c14: 4618                      bne     h'004c2e
4c16: 1732                      not.l   er2
4c18: 0100 6df2                 mov.l   er2, @-sp
4c1c: 7a02 0000 3ea1            mov.l   #h'00003ea1, er2
4c22: 0100 6df2                 mov.l   er2, @-sp
4c26: 5e00 5a20                 jsr     h'005a20
4c2a: f801                      mov.b   #h'01, r0l
4c2c: 4016                      bt      h'004c44
4c2e: 1732                      not.l   er2
4c30: 0100 6df2                 mov.l   er2, @-sp
4c34: 7a02 0000 3eae            mov.l   #h'00003eae, er2
4c3a: 0100 6df2                 mov.l   er2, @-sp
4c3e: 5e00 5a20                 jsr     h'005a20
4c42: 1888                      sub.b   r0l, r0l
4c44: 0b97                      adds.l  #4, sp
4c46: 0b97                      adds.l  #4, sp
4c48: 0120 6d76                 ldm.l   @sp+, er4-er6
4c4c: 7a17 0000 0010            add.l   #h'00000010, sp
4c52: 5470                      rts
4c54: 1b97                      subs.l  #4, sp
4c56: 1b97                      subs.l  #4, sp
4c58: 0120 6df4                 stm.l   er4-er6, @-sp
4c5c: 0f85                      mov.l   er0, er5
4c5e: 6ef9 0013                 mov.b   r1l, @(h'13, sp)
4c62: 0100 6ff5 000c            mov.l   er5, @(h'c, sp)
4c68: 0100 6952                 mov.l   @er5, er2
4c6c: 0100 6df2                 mov.l   er2, @-sp
4c70: 7a02 0000 3ef7            mov.l   #h'00003ef7, er2
4c76: 0100 6df2                 mov.l   er2, @-sp
4c7a: 5e00 5a20                 jsr     h'005a20
4c7e: 0100 6950                 mov.l   @er5, er0
4c82: 5e00 4a82                 jsr     h'004a82
4c86: 0b97                      adds.l  #4, sp
4c88: 0b97                      adds.l  #4, sp
4c8a: 0c88                      mov.b   r0l, r0l
4c8c: 4614                      bne     h'004ca2
4c8e: 7a02 0000 3f11            mov.l   #h'00003f11, er2
4c94: 0100 6df2                 mov.l   er2, @-sp
4c98: 5e00 5a20                 jsr     h'005a20
4c9c: 0b97                      adds.l  #4, sp
4c9e: 5800 018e                 bt      h'004e30
4ca2: 0100 6951                 mov.l   @er5, er1
4ca6: 1888                      sub.b   r0l, r0l
4ca8: 0f92                      mov.l   er1, er2
4caa: 7a62 00ff ffff            and.l   #h'00ffffff, er2
4cb0: 7a22 00c0 ffab            cmp.l   #h'00c0ffab, er2
4cb6: 4602                      bne     h'004cba
4cb8: f801                      mov.b   #h'01, r0l
4cba: 0c88                      mov.b   r0l, r0l
4cbc: 5870 00d8                 beq     h'004d98
4cc0: 0100 6f56 0008            mov.l   @(h'8, er5), er6
4cc6: 0fd4                      mov.l   er5, er4
4cc8: 0ae4                      add.l   er6, er4
4cca: 7a14 0000 0020            add.l   #h'00000020, er4
4cd0: 0100 6f52 0004            mov.l   @(h'4, er5), er2
4cd6: 0fd1                      mov.l   er5, er1
4cd8: 7a11 0000 000c            add.l   #h'0000000c, er1
4cde: 0fc0                      mov.l   er4, er0
4ce0: 5e00 120c                 jsr     h'00120c
4ce4: 0100 6952                 mov.l   @er5, er2
4ce8: 7a22 ffc0 ffab            cmp.l   #h'ffc0ffab, er2
4cee: 4628                      bne     h'004d18
4cf0: 7a02 0000 3f1a            mov.l   #h'00003f1a, er2
4cf6: 0100 6df2                 mov.l   er2, @-sp
4cfa: 7a02 0000 3ed2            mov.l   #h'00003ed2, er2
4d00: 0100 6df2                 mov.l   er2, @-sp
4d04: 5e00 5a20                 jsr     h'005a20
4d08: 0100 6f52 0004            mov.l   @(h'4, er5), er2
4d0e: 0fc1                      mov.l   er4, er1
4d10: 0fd0                      mov.l   er5, er0
4d12: 5e00 764c                 jsr     h'00764c
4d16: 4050                      bt      h'004d68
4d18: 7a00 0000 3ed2            mov.l   #h'00003ed2, er0
4d1e: 7a22 01c0 ffab            cmp.l   #h'01c0ffab, er2
4d24: 4622                      bne     h'004d48
4d26: 7a02 0000 3f1b            mov.l   #h'00003f1b, er2
4d2c: 0100 6df2                 mov.l   er2, @-sp
4d30: 0100 6df0                 mov.l   er0, @-sp
4d34: 5e00 5a20                 jsr     h'005a20
4d38: 0100 6f52 0004            mov.l   @(h'4, er5), er2
4d3e: 0fc1                      mov.l   er4, er1
4d40: 0fd0                      mov.l   er5, er0
4d42: 5e00 5de6                 jsr     h'005de6
4d46: 4020                      bt      h'004d68
4d48: 7a02 0000 3f20            mov.l   #h'00003f20, er2
4d4e: 0100 6df2                 mov.l   er2, @-sp
4d52: 0100 6df0                 mov.l   er0, @-sp
4d56: 5e00 5a20                 jsr     h'005a20
4d5a: 0100 6f52 0004            mov.l   @(h'4, er5), er2
4d60: 0fc1                      mov.l   er4, er1
4d62: 0fd0                      mov.l   er5, er0
4d64: 5e00 3c82                 jsr     h'003c82
4d68: 0b97                      adds.l  #4, sp
4d6a: 0b97                      adds.l  #4, sp
4d6c: 1fe0                      cmp.l   er6, er0
4d6e: 5870 fef0                 beq     h'004c62
4d72: 0100 6df0                 mov.l   er0, @-sp
4d76: 7a02 0000 3f24            mov.l   #h'00003f24, er2
4d7c: 0100 6df2                 mov.l   er2, @-sp
4d80: 5e00 5a20                 jsr     h'005a20
4d84: 1aa2                      sub.l   er2, er2
4d86: 0100 6f73 0014            mov.l   @(h'14, sp), er3
4d8c: 0100 69b2                 mov.l   er2, @er3
4d90: 0b97                      adds.l  #4, sp
4d92: 0b97                      adds.l  #4, sp
4d94: 5800 0098                 bt      h'004e30
4d98: 7a21 1234 abcd            cmp.l   #h'1234abcd, er1
4d9e: 463e                      bne     h'004dde
4da0: 7a02 0000 3f50            mov.l   #h'00003f50, er2
4da6: 0100 6df2                 mov.l   er2, @-sp
4daa: 5e00 5a20                 jsr     h'005a20
4dae: 0100 6f54 0004            mov.l   @(h'4, er5), er4
4db4: 0100 6df4                 mov.l   er4, @-sp
4db8: 7a02 0000 3ebe            mov.l   #h'00003ebe, er2
4dbe: 0100 6df2                 mov.l   er2, @-sp
4dc2: 5e00 5a20                 jsr     h'005a20
4dc6: 0100 6b00 02e9            mov.l   @h'0002e9, er0
4dcc: 0100 6b01 f306            mov.l   @h'fff306, er1
4dd2: 5d40                      jsr     er4
4dd4: 7a17 0000 000c            add.l   #h'0000000c, sp
4dda: 5800 fe84                 bt      h'004c62
4dde: 7a21 beeb ab00            cmp.l   #h'beebab00, er1
4de4: 5860 fe7a                 bne     h'004c62
4de8: 6e7b 0013                 mov.b   @(h'13, sp), r3l
4dec: 470a                      beq     h'004df8
4dee: 0fd0                      mov.l   er5, er0
4df0: 5e00 4b04                 jsr     h'004b04
4df4: a801                      cmp.b   #h'01, r0l
4df6: 4638                      bne     h'004e30
4df8: 0100 6f52 0004            mov.l   @(h'4, er5), er2
4dfe: 0fd0                      mov.l   er5, er0
4e00: 0aa0                      add.l   er2, er0
4e02: 5e00 4aca                 jsr     h'004aca
4e06: 0f84                      mov.l   er0, er4
4e08: 0100 6df4                 mov.l   er4, @-sp
4e0c: 7a02 0000 3ebe            mov.l   #h'00003ebe, er2
4e12: 0100 6df2                 mov.l   er2, @-sp
4e16: 5e00 5a20                 jsr     h'005a20
4e1a: 0100 6b00 02e9            mov.l   @h'0002e9, er0
4e20: 0100 6b01 f306            mov.l   @h'fff306, er1
4e26: 5d40                      jsr     er4
4e28: 0b97                      adds.l  #4, sp
4e2a: 0b97                      adds.l  #4, sp
4e2c: 5800 fe32                 bt      h'004c62
4e30: 0120 6d76                 ldm.l   @sp+, er4-er6
4e34: 0b97                      adds.l  #4, sp
4e36: 0b97                      adds.l  #4, sp
4e38: 5470                      rts
4e3a: 0100 6df4                 mov.l   er4, @-sp
4e3e: 0f84                      mov.l   er0, er4
4e40: 7a00 0000 3f5c            mov.l   #h'00003f5c, er0
4e46: 1a91                      sub.l   er1, er1
4e48: 5e00 59e0                 jsr     h'0059e0
4e4c: 0100 6942                 mov.l   @er4, er2
4e50: 7a22 1234 abcd            cmp.l   #h'1234abcd, er2
4e56: 4614                      bne     h'004e6c
4e58: 7a02 0000 3f6e            mov.l   #h'00003f6e, er2
4e5e: 0100 6df2                 mov.l   er2, @-sp
4e62: 5e00 5a20                 jsr     h'005a20
4e66: f801                      mov.b   #h'01, r0l
4e68: 0b97                      adds.l  #4, sp
4e6a: 4028                      bt      h'004e94
4e6c: 7a22 beeb ab00            cmp.l   #h'beebab00, er2
4e72: 471a                      beq     h'004e8e
4e74: 0100 6df2                 mov.l   er2, @-sp
4e78: 7a02 0000 3f80            mov.l   #h'00003f80, er2
4e7e: 0100 6df2                 mov.l   er2, @-sp
4e82: 5e00 5a20                 jsr     h'005a20
4e86: 1888                      sub.b   r0l, r0l
4e88: 0b97                      adds.l  #4, sp
4e8a: 0b97                      adds.l  #4, sp
4e8c: 4006                      bt      h'004e94
4e8e: 0fc0                      mov.l   er4, er0
4e90: 5e00 4b04                 jsr     h'004b04
4e94: 0100 6d74                 mov.l   @sp+, er4
4e98: 5470                      rts
4e9a: 0120 6df4                 stm.l   er4-er6, @-sp
4e9e: 7a00 0000 3fa7            mov.l   #h'00003fa7, er0
4ea4: 1a91                      sub.l   er1, er1
4ea6: 5e00 59e0                 jsr     h'0059e0
4eaa: 7a05 00ff f30e            mov.l   #h'00fff30e, er5
4eb0: 7a02 0000 03e8            mov.l   #h'000003e8, er2
4eb6: 1a91                      sub.l   er1, er1
4eb8: 8950                      add.b   #h'50, r1l
4eba: 0fd0                      mov.l   er5, er0
4ebc: 5e00 597a                 jsr     h'00597a
4ec0: 0d00                      mov.w   r0, r0
4ec2: 58f0 00be                 ble     h'004f84
4ec6: 7a01 0000 3fc0            mov.l   #h'00003fc0, er1
4ecc: 0fd0                      mov.l   er5, er0
4ece: 5e00 13ba                 jsr     h'0013ba
4ed2: 0c88                      mov.b   r0l, r0l
4ed4: 5870 00ac                 beq     h'004f84
4ed8: 7a04 0000 3fc4            mov.l   #h'00003fc4, er4
4ede: 7a06 00ff f311            mov.l   #h'00fff311, er6
4ee4: 0fe0                      mov.l   er6, er0
4ee6: 5e00 1416                 jsr     h'001416
4eea: 1aa2                      sub.l   er2, er2
4eec: 8a0a                      add.b   #h'0a, r2l
4eee: 0fc1                      mov.l   er4, er1
4ef0: 5e00 12bc                 jsr     h'0012bc
4ef4: 0d00                      mov.w   r0, r0
4ef6: 4724                      beq     h'004f1c
4ef8: 0100 6b02 f306            mov.l   @h'fff306, er2
4efe: 4614                      bne     h'004f14
4f00: 7a02 0000 3fcf            mov.l   #h'00003fcf, er2
4f06: 0100 6df2                 mov.l   er2, @-sp
4f0a: 5e00 5a20                 jsr     h'005a20
4f0e: 0480                      orc     #h'80, ccr
4f10: 0180                      sleep
4f12: 40fc                      bt      h'004f10
4f14: 7a02 0048 0000            mov.l   #h'00480000, er2
4f1a: 4006                      bt      h'004f22
4f1c: 7a02 00ff dc00            mov.l   #h'00ffdc00, er2
4f22: 0100 6b82 f30a            mov.l   er2, @h'fff30a
4f28: 6b02 f362                 mov.w   @h'fff362, r2
4f2c: 461a                      bne     h'004f48
4f2e: 7902 0001                 mov.w   #h'0001, r2
4f32: 6b82 f362                 mov.w   r2, @h'fff362
4f36: 0100 6b01 f30a            mov.l   @h'fff30a, er1
4f3c: 0fe0                      mov.l   er6, er0
4f3e: 5e00 5d38                 jsr     h'005d38
4f42: 0100 6b80 f35e            mov.l   er0, @h'fff35e
4f48: 0100 6b02 f35e            mov.l   @h'fff35e, er2
4f4e: 4728                      beq     h'004f78
4f50: 0100 6df2                 mov.l   er2, @-sp
4f54: 7a02 0000 4002            mov.l   #h'00004002, er2
4f5a: 0100 6df2                 mov.l   er2, @-sp
4f5e: 5e00 5a20                 jsr     h'005a20
4f62: 0100 6b00 f30a            mov.l   @h'fff30a, er0
4f68: f901                      mov.b   #h'01, r1l
4f6a: 5e00 4c54                 jsr     h'004c54
4f6e: 18aa                      sub.b   r2l, r2l
4f70: 68da                      mov.b   r2l, @er5
4f72: 0b97                      adds.l  #4, sp
4f74: 0b97                      adds.l  #4, sp
4f76: 400c                      bt      h'004f84
4f78: 7a00 0000 401d            mov.l   #h'0000401d, er0
4f7e: 1a91                      sub.l   er1, er1
4f80: 5e00 59e0                 jsr     h'0059e0
4f84: 0120 6d76                 ldm.l   @sp+, er4-er6
4f88: 5470                      rts
4f8a: 7a00 00ff f39e            mov.l   #h'00fff39e, er0
4f90: 5e00 68ae                 jsr     h'0068ae
4f94: 5470                      rts
4f96: 7a07 00ff fadc            mov.l   #h'00fffadc, sp
4f9c: 1aa2                      sub.l   er2, er2
4f9e: 0100 6b82 edf2            mov.l   er2, @h'ffedf2
4fa4: 0100 6b82 edf6            mov.l   er2, @h'ffedf6
4faa: 7a04 0000 7792            mov.l   #h'00007792, er4
4fb0: 0fc1                      mov.l   er4, er1
4fb2: 7a03 00ff ec00            mov.l   #h'00ffec00, er3
4fb8: 7a00 00ff edf2            mov.l   #h'00ffedf2, er0
4fbe: 1f83                      cmp.l   er0, er3
4fc0: 440a                      bcc     h'004fcc
4fc2: 6c1a                      mov.b   @er1+, r2l
4fc4: 68ba                      mov.b   r2l, @er3
4fc6: 0b03                      adds.l  #1, er3
4fc8: 1f83                      cmp.l   er0, er3
4fca: 45f6                      bcs     h'004fc2
4fcc: 7a00 00ff edf2            mov.l   #h'00ffedf2, er0
4fd2: 7a02 00ff f670            mov.l   #h'00fff670, er2
4fd8: 1a82                      sub.l   er0, er2
4fda: 1911                      sub.w   r1, r1
4fdc: 5e00 11fc                 jsr     h'0011fc
4fe0: 7a06 0000 778a            mov.l   #h'0000778a, er6
4fe6: 1fe4                      cmp.l   er6, er4
4fe8: 430c                      bls     h'004ff6
4fea: 1b94                      subs.l  #4, er4
4fec: 0100 6942                 mov.l   @er4, er2
4ff0: 5d20                      jsr     er2
4ff2: 1fe4                      cmp.l   er6, er4
4ff4: 42f4                      bhi     h'004fea
4ff6: fa80                      mov.b   #h'80, r2l
4ff8: 3a60                      mov.b   r2l, @h'ffff60
4ffa: 6a8a feb0                 mov.b   r2l, @h'fffeb0
4ffe: fab0                      mov.b   #h'b0, r2l
5000: 3a61                      mov.b   r2l, @h'ffff61
5002: 6a8a feb1                 mov.b   r2l, @h'fffeb1
5006: 6b02 ff3c                 mov.w   @h'ffff3c, r2
500a: e2fb                      and.b   #h'fb, r2h
500c: 6b82 ff3c                 mov.w   r2, @h'ffff3c
5010: fbff                      mov.b   #h'ff, r3l
5012: 3ba4                      mov.b   r3l, @h'ffffa4
5014: 2aa6                      mov.b   @h'ffffa6, r2l
5016: ca40                      or.b    #h'40, r2l
5018: 3aa6                      mov.b   r2l, @h'ffffa6
501a: fa01                      mov.b   #h'01, r2l
501c: 3a45                      mov.b   r2l, @h'ffff45
501e: fa40                      mov.b   #h'40, r2l
5020: 3a69                      mov.b   r2l, @h'ffff69
5022: fa5f                      mov.b   #h'5f, r2l
5024: 6a8a feb9                 mov.b   r2l, @h'fffeb9
5028: 6a8b feba                 mov.b   r3l, @h'fffeba
502c: 6a8b febb                 mov.b   r3l, @h'fffebb
5030: 6a38 00ff ff39 7020       bset    #2, @h'ffff39
5038: fa38                      mov.b   #h'38, r2l
503a: 3aac                      mov.b   r2l, @h'ffffac
503c: f808                      mov.b   #h'08, r0l
503e: 386e                      mov.b   r0l, @h'ffff6e
5040: fa88                      mov.b   #h'88, r2l
5042: 6a8a febe                 mov.b   r2l, @h'fffebe
5046: fa1e                      mov.b   #h'1e, r2l
5048: 6a8a febf                 mov.b   r2l, @h'fffebf
504c: fa73                      mov.b   #h'73, r2l
504e: 6a8a fed0                 mov.b   r2l, @h'fffed0
5052: faf1                      mov.b   #h'f1, r2l
5054: 6a8a fed1                 mov.b   r2l, @h'fffed1
5058: 6a8b fed2                 mov.b   r3l, @h'fffed2
505c: 6a8b fed3                 mov.b   r3l, @h'fffed3
5060: fad1                      mov.b   #h'd1, r2l
5062: 6a8a fed4                 mov.b   r2l, @h'fffed4
5066: fa1c                      mov.b   #h'1c, r2l
5068: 6a8a fed5                 mov.b   r2l, @h'fffed5
506c: 6a88 fed6                 mov.b   r0l, @h'fffed6
5070: fa78                      mov.b   #h'78, r2l
5072: 6a8a fed9                 mov.b   r2l, @h'fffed9
5076: fab1                      mov.b   #h'b1, r2l
5078: 6a8a fed7                 mov.b   r2l, @h'fffed7
507c: 5e00 5fd6                 jsr     h'005fd6
5080: 0c8c                      mov.b   r0l, r4l
5082: 471e                      beq     h'0050a2
5084: 6b02 ff3c                 mov.w   @h'ffff3c, r2
5088: eabf                      and.b   #h'bf, r2l
508a: 6b82 ff3c                 mov.w   r2, @h'ffff3c
508e: 18aa                      sub.b   r2l, r2l
5090: 3a80                      mov.b   r2l, @h'ffff80
5092: fb09                      mov.b   #h'09, r3l
5094: 3a80                      mov.b   r2l, @h'ffff80
5096: 3b81                      mov.b   r3l, @h'ffff81
5098: fa30                      mov.b   #h'30, r2l
509a: 3a82                      mov.b   r2l, @h'ffff82
509c: f801                      mov.b   #h'01, r0l
509e: 5e00 58e2                 jsr     h'0058e2
50a2: 0100 6b02 0b38            mov.l   @h'000b38, er2
50a8: 0100 6df2                 mov.l   er2, @-sp
50ac: 7a02 0000 403a            mov.l   #h'0000403a, er2
50b2: 0100 6df2                 mov.l   er2, @-sp
50b6: 5e00 5a20                 jsr     h'005a20
50ba: 7a02 0000 405b            mov.l   #h'0000405b, er2
50c0: 0100 6df2                 mov.l   er2, @-sp
50c4: 5e00 5a20                 jsr     h'005a20
50c8: 7a00 0040 0000            mov.l   #h'00400000, er0
50ce: 5e00 496c                 jsr     h'00496c
50d2: 0d02                      mov.w   r0, r2
50d4: 17f2                      exts.l  er2
50d6: 7820 6a2a 0000 40c0       mov.b   @(h'40c0, er2), r2l
50de: ca40                      or.b    #h'40, r2l
50e0: 6a8a fed6                 mov.b   r2l, @h'fffed6
50e4: 0b90                      adds.l  #4, er0
50e6: 0b90                      adds.l  #4, er0
50e8: 0100 6df0                 mov.l   er0, @-sp
50ec: 7a02 0000 4082            mov.l   #h'00004082, er2
50f2: 0100 6df2                 mov.l   er2, @-sp
50f6: 5e00 5a20                 jsr     h'005a20
50fa: 7a02 0000 408f            mov.l   #h'0000408f, er2
5100: 0100 6df2                 mov.l   er2, @-sp
5104: 5e00 5a20                 jsr     h'005a20
5108: 7a00 0040 0000            mov.l   #h'00400000, er0
510e: 5e00 49d0                 jsr     h'0049d0
5112: 0100 6b80 f306            mov.l   er0, @h'fff306
5118: 1170                      shlr.l  #2, er0
511a: 1170                      shlr.l  #2, er0
511c: 1170                      shlr.l  #2, er0
511e: 1170                      shlr.l  #2, er0
5120: 1170                      shlr.l  #2, er0
5122: 0100 6df0                 mov.l   er0, @-sp
5126: 7a02 0000 40a8            mov.l   #h'000040a8, er2
512c: 0100 6df2                 mov.l   er2, @-sp
5130: 5e00 5a20                 jsr     h'005a20
5134: 7a17 0000 0020            add.l   #h'00000020, sp
513a: 0100 6b02 f306            mov.l   @h'fff306, er2
5140: 470a                      beq     h'00514c
5142: 6a38 00ff ff69 7260       bclr    #6, @h'ffff69
514a: 4016                      bt      h'005162
514c: 0ccc                      mov.b   r4l, r4l
514e: 4612                      bne     h'005162
5150: 7a02 0000 3fcf            mov.l   #h'00003fcf, er2
5156: 0100 6df2                 mov.l   er2, @-sp
515a: 5e00 5a20                 jsr     h'005a20
515e: 0180                      sleep
5160: 40fc                      bt      h'00515e
5162: 7a02 0000 4a34            mov.l   #h'00004a34, er2
5168: 0100 6b82 eca8            mov.l   er2, @h'ffeca8
516e: 6b02 ff3c                 mov.w   @h'ffff3c, r2
5172: e2ef                      and.b   #h'ef, r2h
5174: 6b82 ff3c                 mov.w   r2, @h'ffff3c
5178: fa23                      mov.b   #h'23, r2l
517a: 3ab0                      mov.b   r2l, @h'ffffb0
517c: fad2                      mov.b   #h'd2, r2l
517e: 3ab8                      mov.b   r2l, @h'ffffb8
5180: 067f                      andc    #h'7f, ccr
5182: 7a06 00ff f39e            mov.l   #h'00fff39e, er6
5188: 0fe0                      mov.l   er6, er0
518a: 5e00 6224                 jsr     h'006224
518e: 6a38 00ff ff2e 7210       bclr    #1, @h'ffff2e
5196: 2a2d                      mov.b   @h'ffff2d, r2l
5198: eaf3                      and.b   #h'f3, r2l
519a: 3a2d                      mov.b   r2l, @h'ffff2d
519c: 7a02 0000 4f8a            mov.l   #h'00004f8a, er2
51a2: 0100 6b82 ec0c            mov.l   er2, @h'ffec0c
51a8: 6a38 00ff ff2e 7010       bset    #1, @h'ffff2e
51b0: 0100 6b02 f306            mov.l   @h'fff306, er2
51b6: 4706                      beq     h'0051be
51b8: 0fe0                      mov.l   er6, er0
51ba: 5e00 62e4                 jsr     h'0062e4
51be: 5e00 4a50                 jsr     h'004a50
51c2: 0100 6ff0 000c            mov.l   er0, @(h'c, sp)
51c8: 5e00 5fba                 jsr     h'005fba
51cc: 0c88                      mov.b   r0l, r0l
51ce: 471e                      beq     h'0051ee
51d0: 5e00 5f8e                 jsr     h'005f8e
51d4: 5e00 602c                 jsr     h'00602c
51d8: f912                      mov.b   #h'12, r1l
51da: f80c                      mov.b   #h'0c, r0l
51dc: 5e00 607a                 jsr     h'00607a
51e0: 7a00 0000 40c3            mov.l   #h'000040c3, er0
51e6: 7901 026b                 mov.w   #h'026b, r1
51ea: 5e00 4a60                 jsr     h'004a60
51ee: 7a00 0060 0000            mov.l   #h'00600000, er0
51f4: 5e00 4e3a                 jsr     h'004e3a
51f8: 0c8c                      mov.b   r0l, r4l
51fa: 461e                      bne     h'00521a
51fc: 5e00 5fba                 jsr     h'005fba
5200: 0c88                      mov.b   r0l, r0l
5202: 4716                      beq     h'00521a
5204: f912                      mov.b   #h'12, r1l
5206: f80c                      mov.b   #h'0c, r0l
5208: 5e00 607a                 jsr     h'00607a
520c: 7a00 0000 432e            mov.l   #h'0000432e, er0
5212: 7901 03f4                 mov.w   #h'03f4, r1
5216: 5e00 4a60                 jsr     h'004a60
521a: 5e00 4e9a                 jsr     h'004e9a
521e: 5e00 4a50                 jsr     h'004a50
5222: 0100 6f75 000c            mov.l   @(h'c, sp), er5
5228: 1ad0                      sub.l   er5, er0
522a: 7a20 0000 03e7            cmp.l   #h'000003e7, er0
5230: 43ec                      bls     h'00521e
5232: 0fe0                      mov.l   er6, er0
5234: 5e00 62d2                 jsr     h'0062d2
5238: 0c8e                      mov.b   r0l, r6l
523a: 401c                      bt      h'005258
523c: 0100 6f72 0010            mov.l   @(h'10, sp), er2
5242: 0100 6df2                 mov.l   er2, @-sp
5246: 7a02 0000 40ae            mov.l   #h'000040ae, er2
524c: 0100 6df2                 mov.l   er2, @-sp
5250: 5e00 5a20                 jsr     h'005a20
5254: 0b97                      adds.l  #4, sp
5256: 0b97                      adds.l  #4, sp
5258: 0ff1                      mov.l   sp, er1
525a: 7a11 0000 0010            add.l   #h'00000010, er1
5260: 7a00 00ff f46c            mov.l   #h'00fff46c, er0
5266: 5e00 7134                 jsr     h'007134
526a: 0c88                      mov.b   r0l, r0l
526c: 46ce                      bne     h'00523c
526e: 0100 6b02 f306            mov.l   @h'fff306, er2
5274: 4710                      beq     h'005286
5276: 7a01 00ff f39e            mov.l   #h'00fff39e, er1
527c: 7a00 00ff f366            mov.l   #h'00fff366, er0
5282: 5e00 71d8                 jsr     h'0071d8
5286: ac01                      cmp.b   #h'01, r4l
5288: 46ce                      bne     h'005258
528a: 7a00 00ff f366            mov.l   #h'00fff366, er0
5290: 5e00 71cc                 jsr     h'0071cc
5294: 0c88                      mov.b   r0l, r0l
5296: 46c0                      bne     h'005258
5298: 0cee                      mov.b   r6l, r6l
529a: 4714                      beq     h'0052b0
529c: 5e00 4a50                 jsr     h'004a50
52a0: 0100 6f75 000c            mov.l   @(h'c, sp), er5
52a6: 1ad0                      sub.l   er5, er0
52a8: 7a20 0000 1387            cmp.l   #h'00001387, er0
52ae: 43a8                      bls     h'005258
52b0: 7a00 00ff f39e            mov.l   #h'00fff39e, er0
52b6: 5e00 6302                 jsr     h'006302
52ba: 1899                      sub.b   r1l, r1l
52bc: 7a00 0060 0000            mov.l   #h'00600000, er0
52c2: 5e00 4c54                 jsr     h'004c54
52c6: 4090                      bt      h'005258
52c8: 5470                      rts
52ca: 7a00 00ff f366            mov.l   #h'00fff366, er0
52d0: 5e00 7184                 jsr     h'007184
52d4: 5470                      rts
52d6: 7a37 0000 0010            sub.l   #h'00000010, sp
52dc: 0120 6df4                 stm.l   er4-er6, @-sp
52e0: 0100 6ff0 0018            mov.l   er0, @(h'18, sp)
52e6: 0100 6ff1 0014            mov.l   er1, @(h'14, sp)
52ec: 0fa6                      mov.l   er2, er6
52ee: 6e0a 0002                 mov.b   @(h'2, er0), r2l
52f2: aa58                      cmp.b   #h'58, r2l
52f4: 4608                      bne     h'0052fe
52f6: 7a04 0000 4722            mov.l   #h'00004722, er4
52fc: 4006                      bt      h'005304
52fe: 7a04 0000 4733            mov.l   #h'00004733, er4
5304: 0100 6ff4 0010            mov.l   er4, @(h'10, sp)
530a: 0100 6f74 0018            mov.l   @(h'18, sp), er4
5310: 6e4a 0003                 mov.b   @(h'3, er4), r2l
5314: 4706                      beq     h'00531c
5316: 7905 0007                 mov.w   #h'0007, r5
531a: 4004                      bt      h'005320
531c: 7905 0003                 mov.w   #h'0003, r5
5320: 1911                      sub.w   r1, r1
5322: 6ff5 000e                 mov.w   r5, @(h'e, sp)
5326: 0d54                      mov.w   r5, r4
5328: 0b04                      adds.l  #1, er4
532a: 6ff4 000e                 mov.w   r4, @(h'e, sp)
532e: 1d41                      cmp.w   r4, r1
5330: 4c44                      bge     h'005376
5332: 0d52                      mov.w   r5, r2
5334: 1912                      sub.w   r1, r2
5336: 17f2                      exts.l  er2
5338: 0100 6f70 0014            mov.l   @(h'14, sp), er0
533e: 0aa0                      add.l   er2, er0
5340: 0fe3                      mov.l   er6, er3
5342: 7a63 0000 000f            and.l   #h'0000000f, er3
5348: 0100 6f72 0010            mov.l   @(h'10, sp), er2
534e: 0ab2                      add.l   er3, er2
5350: 682a                      mov.b   @er2, r2l
5352: 688a                      mov.b   r2l, @er0
5354: 0fe3                      mov.l   er6, er3
5356: 1173                      shlr.l  #2, er3
5358: 1173                      shlr.l  #2, er3
535a: 0fb6                      mov.l   er3, er6
535c: 0100 6f74 0018            mov.l   @(h'18, sp), er4
5362: 6e4a 0005                 mov.b   @(h'5, er4), r2l
5366: 4604                      bne     h'00536c
5368: 0fb3                      mov.l   er3, er3
536a: 470a                      beq     h'005376
536c: 0b01                      adds.l  #1, er1
536e: 6f74 000e                 mov.w   @(h'e, sp), r4
5372: 1d41                      cmp.w   r4, r1
5374: 4dbc                      blt     h'005332
5376: 0100 6df5                 mov.l   er5, @-sp
537a: 0d12                      mov.w   r1, r2
537c: 0100 6f71 0018            mov.l   @(h'18, sp), er1
5382: 0100 6f70 001c            mov.l   @(h'1c, sp), er0
5388: 5e00 546c                 jsr     h'00546c
538c: 0b97                      adds.l  #4, sp
538e: 0120 6d76                 ldm.l   @sp+, er4-er6
5392: 7a17 0000 0010            add.l   #h'00000010, sp
5398: 5470                      rts
539a: 7a37 0000 000c            sub.l   #h'0000000c, sp
53a0: 0120 6df4                 stm.l   er4-er6, @-sp
53a4: 0100 6ff0 0014            mov.l   er0, @(h'14, sp)
53aa: 0100 6ff1 0010            mov.l   er1, @(h'10, sp)
53b0: 0fa6                      mov.l   er2, er6
53b2: 6e0a 0003                 mov.b   @(h'3, er0), r2l
53b6: 4706                      beq     h'0053be
53b8: 7903 0009                 mov.w   #h'0009, r3
53bc: 4004                      bt      h'0053c2
53be: 7903 0004                 mov.w   #h'0004, r3
53c2: 6ff3 000e                 mov.w   r3, @(h'e, sp)
53c6: 1955                      sub.w   r5, r5
53c8: 6f73 000e                 mov.w   @(h'e, sp), r3
53cc: 6ff3 000c                 mov.w   r3, @(h'c, sp)
53d0: 0b03                      adds.l  #1, er3
53d2: 6ff3 000c                 mov.w   r3, @(h'c, sp)
53d6: 1d35                      cmp.w   r3, r5
53d8: 4c46                      bge     h'005420
53da: 6f72 000e                 mov.w   @(h'e, sp), r2
53de: 1952                      sub.w   r5, r2
53e0: 17f2                      exts.l  er2
53e2: 0100 6f74 0010            mov.l   @(h'10, sp), er4
53e8: 0aa4                      add.l   er2, er4
53ea: 1a91                      sub.l   er1, er1
53ec: 890a                      add.b   #h'0a, r1l
53ee: 0fe0                      mov.l   er6, er0
53f0: 5e00 7712                 jsr     h'007712
53f4: 0c8a                      mov.b   r0l, r2l
53f6: 8a30                      add.b   #h'30, r2l
53f8: 68ca                      mov.b   r2l, @er4
53fa: 1a91                      sub.l   er1, er1
53fc: 890a                      add.b   #h'0a, r1l
53fe: 0fe0                      mov.l   er6, er0
5400: 5e00 7700                 jsr     h'007700
5404: 0f86                      mov.l   er0, er6
5406: 0100 6f73 0014            mov.l   @(h'14, sp), er3
540c: 6e3a 0005                 mov.b   @(h'5, er3), r2l
5410: 4604                      bne     h'005416
5412: 0fe6                      mov.l   er6, er6
5414: 470a                      beq     h'005420
5416: 0b05                      adds.l  #1, er5
5418: 6f73 000c                 mov.w   @(h'c, sp), r3
541c: 1d35                      cmp.w   r3, r5
541e: 4dba                      blt     h'0053da
5420: 6f73 000e                 mov.w   @(h'e, sp), r3
5424: 0100 6df3                 mov.l   er3, @-sp
5428: 0d52                      mov.w   r5, r2
542a: 0100 6f71 0014            mov.l   @(h'14, sp), er1
5430: 0100 6f70 0018            mov.l   @(h'18, sp), er0
5436: 5534                      bsr     h'00546c
5438: 0b97                      adds.l  #4, sp
543a: 0120 6d76                 ldm.l   @sp+, er4-er6
543e: 7a17 0000 000c            add.l   #h'0000000c, sp
5444: 5470                      rts
5446: 0100 6df4                 mov.l   er4, @-sp
544a: 0f94                      mov.l   er1, er4
544c: 0fa2                      mov.l   er2, er2
544e: 4c10                      bge     h'005460
5450: 0b04                      adds.l  #1, er4
5452: 17b2                      neg.l   er2
5454: 0fc1                      mov.l   er4, er1
5456: 5e00 539a                 jsr     h'00539a
545a: fa2d                      mov.b   #h'2d, r2l
545c: 6cca                      mov.b   r2l, @-er4
545e: 4006                      bt      h'005466
5460: 0fc1                      mov.l   er4, er1
5462: 5e00 539a                 jsr     h'00539a
5466: 0100 6d74                 mov.l   @sp+, er4
546a: 5470                      rts
546c: 0120 6df4                 stm.l   er4-er6, @-sp
5470: 0f95                      mov.l   er1, er5
5472: 0d24                      mov.w   r2, r4
5474: 6f76 0012                 mov.w   @(h'12, sp), r6
5478: 6e0a 0005                 mov.b   @(h'5, er0), r2l
547c: 4636                      bne     h'0054b4
547e: 1d64                      cmp.w   r6, r4
5480: 4c32                      bge     h'0054b4
5482: 1911                      sub.w   r1, r1
5484: 1d41                      cmp.w   r4, r1
5486: 4e20                      bgt     h'0054a8
5488: 0d12                      mov.w   r1, r2
548a: 17f2                      exts.l  er2
548c: 0fd0                      mov.l   er5, er0
548e: 0aa0                      add.l   er2, er0
5490: 0d62                      mov.w   r6, r2
5492: 1942                      sub.w   r4, r2
5494: 0912                      add.w   r1, r2
5496: 0d23                      mov.w   r2, r3
5498: 17f3                      exts.l  er3
549a: 0fd2                      mov.l   er5, er2
549c: 0ab2                      add.l   er3, er2
549e: 682a                      mov.b   @er2, r2l
54a0: 688a                      mov.b   r2l, @er0
54a2: 0b01                      adds.l  #1, er1
54a4: 1d41                      cmp.w   r4, r1
54a6: 4fe0                      ble     h'005488
54a8: 0d12                      mov.w   r1, r2
54aa: 17f2                      exts.l  er2
54ac: 0fd3                      mov.l   er5, er3
54ae: 0aa3                      add.l   er2, er3
54b0: 18aa                      sub.b   r2l, r2l
54b2: 68ba                      mov.b   r2l, @er3
54b4: 0d62                      mov.w   r6, r2
54b6: 17f2                      exts.l  er2
54b8: 0ad2                      add.l   er5, er2
54ba: 18bb                      sub.b   r3l, r3l
54bc: 6eab 0001                 mov.b   r3l, @(h'1, er2)
54c0: 0120 6d76                 ldm.l   @sp+, er4-er6
54c4: 5470                      rts
54c6: 7a00 0000 4744            mov.l   #h'00004744, er0
54cc: 5e00 1388                 jsr     h'001388
54d0: 18aa                      sub.b   r2l, r2l
54d2: 0f80                      mov.l   er0, er0
54d4: 4702                      beq     h'0054d8
54d6: fa01                      mov.b   #h'01, r2l
54d8: 0ca8                      mov.b   r2l, r0l
54da: 5470                      rts
54dc: 1b97                      subs.l  #4, sp
54de: 0120 6df4                 stm.l   er4-er6, @-sp
54e2: 0f85                      mov.l   er0, er5
54e4: 0f96                      mov.l   er1, er6
54e6: 1922                      sub.w   r2, r2
54e8: 69d2                      mov.w   r2, @er5
54ea: 6eda 0003                 mov.b   r2l, @(h'3, er5)
54ee: 6eda 0004                 mov.b   r2l, @(h'4, er5)
54f2: 6eda 0005                 mov.b   r2l, @(h'5, er5)
54f6: 0100 6962                 mov.l   @er6, er2
54fa: 0100 6ff2 000c            mov.l   er2, @(h'c, sp)
5500: 5800 0082                 bt      h'005586
5504: ac6c                      cmp.b   #h'6c, r4l
5506: 4608                      bne     h'005510
5508: fa01                      mov.b   #h'01, r2l
550a: 6eda 0003                 mov.b   r2l, @(h'3, er5)
550e: 4070                      bt      h'005580
5510: ac2d                      cmp.b   #h'2d, r4l
5512: 4608                      bne     h'00551c
5514: fa01                      mov.b   #h'01, r2l
5516: 6eda 0004                 mov.b   r2l, @(h'4, er5)
551a: 4064                      bt      h'005580
551c: ac30                      cmp.b   #h'30, r4l
551e: 4608                      bne     h'005528
5520: fa01                      mov.b   #h'01, r2l
5522: 6eda 0005                 mov.b   r2l, @(h'5, er5)
5526: 4058                      bt      h'005580
5528: 0100 6f52 0008            mov.l   @(h'8, er5), er2
552e: 0100 6f22 0008            mov.l   @(h'8, er2), er2
5534: 0cc9                      mov.b   r4l, r1l
5536: 0fd0                      mov.l   er5, er0
5538: 5d20                      jsr     er2
553a: 0c88                      mov.b   r0l, r0l
553c: 4706                      beq     h'005544
553e: 6edc 0002                 mov.b   r4l, @(h'2, er5)
5542: 4014                      bt      h'005558
5544: 18aa                      sub.b   r2l, r2l
5546: 8cd0                      add.b   #h'd0, r4l
5548: ac09                      cmp.b   #h'09, r4l
554a: 4202                      bhi     h'00554e
554c: fa01                      mov.b   #h'01, r2l
554e: 0caa                      mov.b   r2l, r2l
5550: 4612                      bne     h'005564
5552: 7902 ffff                 mov.w   #h'ffff, r2
5556: 69d2                      mov.w   r2, @er5
5558: 0100 6f72 000c            mov.l   @(h'c, sp), er2
555e: 0100 69e2                 mov.l   er2, @er6
5562: 4040                      bt      h'0055a4
5564: 0100 6f72 000c            mov.l   @(h'c, sp), er2
556a: 1b02                      subs.l  #1, er2
556c: 0100 6ff2 000c            mov.l   er2, @(h'c, sp)
5572: 0ff0                      mov.l   sp, er0
5574: 7a10 0000 000c            add.l   #h'0000000c, er0
557a: 5e00 1426                 jsr     h'001426
557e: 69d0                      mov.w   r0, @er5
5580: 0100 6f72 000c            mov.l   @(h'c, sp), er2
5586: 6c2c                      mov.b   @er2+, r4l
5588: 0100 6ff2 000c            mov.l   er2, @(h'c, sp)
558e: 0ccc                      mov.b   r4l, r4l
5590: 5860 ff70                 bne     h'005504
5594: 0100 6f72 000c            mov.l   @(h'c, sp), er2
559a: 0100 69e2                 mov.l   er2, @er6
559e: 7902 ffff                 mov.w   #h'ffff, r2
55a2: 69d2                      mov.w   r2, @er5
55a4: 0120 6d76                 ldm.l   @sp+, er4-er6
55a8: 0b97                      adds.l  #4, sp
55aa: 5470                      rts
55ac: 1b97                      subs.l  #4, sp
55ae: 0110 6df4                 stm.l   er4-er5, @-sp
55b2: 0f84                      mov.l   er0, er4
55b4: 0f95                      mov.l   er1, er5
55b6: 0fa1                      mov.l   er2, er1
55b8: 0100 6953                 mov.l   @er5, er3
55bc: 0100 6ff3 0008            mov.l   er3, @(h'8, sp)
55c2: 6942                      mov.w   @er4, r2
55c4: 4c16                      bge     h'0055dc
55c6: fa21                      mov.b   #h'21, r2l
55c8: 68ba                      mov.b   r2l, @er3
55ca: 0100 6f72 0008            mov.l   @(h'8, sp), er2
55d0: 0b02                      adds.l  #1, er2
55d2: 0100 6ff2 0008            mov.l   er2, @(h'8, sp)
55d8: 5800 015e                 bt      h'00573a
55dc: 0d22                      mov.w   r2, r2
55de: 471e                      beq     h'0055fe
55e0: 1900                      sub.w   r0, r0
55e2: 1d20                      cmp.w   r2, r0
55e4: 4c18                      bge     h'0055fe
55e6: 0d03                      mov.w   r0, r3
55e8: 17f3                      exts.l  er3
55ea: 0100 6f72 0008            mov.l   @(h'8, sp), er2
55f0: 0ab2                      add.l   er3, er2
55f2: fb20                      mov.b   #h'20, r3l
55f4: 68ab                      mov.b   r3l, @er2
55f6: 0b00                      adds.l  #1, er0
55f8: 6942                      mov.w   @er4, r2
55fa: 1d20                      cmp.w   r2, r0
55fc: 4de8                      blt     h'0055e6
55fe: 6e4a 0002                 mov.b   @(h'2, er4), r2l
5602: aa63                      cmp.b   #h'63, r2l
5604: 461e                      bne     h'005624
5606: 0100 6912                 mov.l   @er1, er2
560a: 0b92                      adds.l  #4, er2
560c: 0100 6992                 mov.l   er2, @er1
5610: 6e29 ffff                 mov.b   @(h'ffff, er2), r1l
5614: 0ff2                      mov.l   sp, er2
5616: 0b92                      adds.l  #4, er2
5618: 0b92                      adds.l  #4, er2
561a: 0fc0                      mov.l   er4, er0
561c: 5e00 582e                 jsr     h'00582e
5620: 5800 0116                 bt      h'00573a
5624: aa73                      cmp.b   #h'73, r2l
5626: 4614                      bne     h'00563c
5628: 0100 6912                 mov.l   @er1, er2
562c: 0b92                      adds.l  #4, er2
562e: 0100 6992                 mov.l   er2, @er1
5632: 1b92                      subs.l  #4, er2
5634: 0100 6921                 mov.l   @er2, er1
5638: 5800 00f2                 bt      h'00572e
563c: aa64                      cmp.b   #h'64, r2l
563e: 4712                      beq     h'005652
5640: aa69                      cmp.b   #h'69, r2l
5642: 470e                      beq     h'005652
5644: aa78                      cmp.b   #h'78, r2l
5646: 470a                      beq     h'005652
5648: aa58                      cmp.b   #h'58, r2l
564a: 4706                      beq     h'005652
564c: aa75                      cmp.b   #h'75, r2l
564e: 5860 00e8                 bne     h'00573a
5652: 6943                      mov.w   @er4, r3
5654: 4f2a                      ble     h'005680
5656: 6e4a 0005                 mov.b   @(h'5, er4), r2l
565a: 4724                      beq     h'005680
565c: 6e4a 0004                 mov.b   @(h'4, er4), r2l
5660: 461e                      bne     h'005680
5662: 1900                      sub.w   r0, r0
5664: 1d30                      cmp.w   r3, r0
5666: 4c18                      bge     h'005680
5668: 0d03                      mov.w   r0, r3
566a: 17f3                      exts.l  er3
566c: 0100 6f72 0008            mov.l   @(h'8, sp), er2
5672: 0ab2                      add.l   er3, er2
5674: fb30                      mov.b   #h'30, r3l
5676: 68ab                      mov.b   r3l, @er2
5678: 0b00                      adds.l  #1, er0
567a: 6942                      mov.w   @er4, r2
567c: 1d20                      cmp.w   r2, r0
567e: 4de8                      blt     h'005668
5680: 6e4a 0003                 mov.b   @(h'3, er4), r2l
5684: 0100 6913                 mov.l   @er1, er3
5688: 0caa                      mov.b   r2l, r2l
568a: 470e                      beq     h'00569a
568c: 0b93                      adds.l  #4, er3
568e: 0100 6993                 mov.l   er3, @er1
5692: 1b93                      subs.l  #4, er3
5694: 0100 6933                 mov.l   @er3, er3
5698: 400e                      bt      h'0056a8
569a: 0fb2                      mov.l   er3, er2
569c: 0b92                      adds.l  #4, er2
569e: 0100 6992                 mov.l   er2, @er1
56a2: 6f23 fffe                 mov.w   @(h'fffe, er2), r3
56a6: 17f3                      exts.l  er3
56a8: 6e4a 0002                 mov.b   @(h'2, er4), r2l
56ac: aa75                      cmp.b   #h'75, r2l
56ae: 461c                      bne     h'0056cc
56b0: 6e4a 0003                 mov.b   @(h'3, er4), r2l
56b4: 4606                      bne     h'0056bc
56b6: 7a63 0000 ffff            and.l   #h'0000ffff, er3
56bc: 7a01 00ff ed24            mov.l   #h'00ffed24, er1
56c2: 0fb2                      mov.l   er3, er2
56c4: 0fc0                      mov.l   er4, er0
56c6: 5e00 539a                 jsr     h'00539a
56ca: 405c                      bt      h'005728
56cc: aa69                      cmp.b   #h'69, r2l
56ce: 4704                      beq     h'0056d4
56d0: aa64                      cmp.b   #h'64, r2l
56d2: 4646                      bne     h'00571a
56d4: 0fb3                      mov.l   er3, er3
56d6: 4c32                      bge     h'00570a
56d8: 6e4a 0004                 mov.b   @(h'4, er4), r2l
56dc: 462c                      bne     h'00570a
56de: 6e4a 0005                 mov.b   @(h'5, er4), r2l
56e2: 4726                      beq     h'00570a
56e4: 0d32                      mov.w   r3, r2
56e6: 1792                      neg.w   r2
56e8: 7a01 00ff ed24            mov.l   #h'00ffed24, er1
56ee: 1772                      extu.l  er2
56f0: 0fc0                      mov.l   er4, er0
56f2: 5e00 539a                 jsr     h'00539a
56f6: 0100 6f72 0008            mov.l   @(h'8, sp), er2
56fc: fb2d                      mov.b   #h'2d, r3l
56fe: 68ab                      mov.b   r3l, @er2
5700: 0b02                      adds.l  #1, er2
5702: 0100 6ff2 0008            mov.l   er2, @(h'8, sp)
5708: 401e                      bt      h'005728
570a: 7a01 00ff ed24            mov.l   #h'00ffed24, er1
5710: 0fb2                      mov.l   er3, er2
5712: 0fc0                      mov.l   er4, er0
5714: 5e00 5446                 jsr     h'005446
5718: 400e                      bt      h'005728
571a: 7a01 00ff ed24            mov.l   #h'00ffed24, er1
5720: 0fb2                      mov.l   er3, er2
5722: 0fc0                      mov.l   er4, er0
5724: 5e00 52d6                 jsr     h'0052d6
5728: 7a01 00ff ed24            mov.l   #h'00ffed24, er1
572e: 0ff2                      mov.l   sp, er2
5730: 0b92                      adds.l  #4, er2
5732: 0b92                      adds.l  #4, er2
5734: 0fc0                      mov.l   er4, er0
5736: 5e00 5872                 jsr     h'005872
573a: 0100 6f72 0008            mov.l   @(h'8, sp), er2
5740: 0100 69d2                 mov.l   er2, @er5
5744: 0110 6d75                 ldm.l   @sp+, er4-er5
5748: 0b97                      adds.l  #4, sp
574a: 5470                      rts
574c: 7a37 0000 000c            sub.l   #h'0000000c, sp
5752: 0120 6df4                 stm.l   er4-er6, @-sp
5756: 0100 6ff0 000c            mov.l   er0, @(h'c, sp)
575c: 0100 6ff1 0014            mov.l   er1, @(h'14, sp)
5762: 0100 6ff2 0010            mov.l   er2, @(h'10, sp)
5768: 6b02 f42a                 mov.w   @h'fff42a, r2
576c: 4612                      bne     h'005780
576e: 7902 0001                 mov.w   #h'0001, r2
5772: 6b82 f42a                 mov.w   r2, @h'fff42a
5776: 7a00 00ff f41e            mov.l   #h'00fff41e, er0
577c: 5e00 58d4                 jsr     h'0058d4
5780: 0100 6f76 000c            mov.l   @(h'c, sp), er6
5786: 406e                      bt      h'0057f6
5788: 0100 6f72 0014            mov.l   @(h'14, sp), er2
578e: 6c28                      mov.b   @er2+, r0l
5790: 0fa3                      mov.l   er2, er3
5792: 0100 6ff3 0014            mov.l   er3, @(h'14, sp)
5798: a825                      cmp.b   #h'25, r0l
579a: 464a                      bne     h'0057e6
579c: 683a                      mov.b   @er3, r2l
579e: 0ff1                      mov.l   sp, er1
57a0: 7a11 0000 0014            add.l   #h'00000014, er1
57a6: 0ff5                      mov.l   sp, er5
57a8: 7a15 0000 000c            add.l   #h'0000000c, er5
57ae: aa25                      cmp.b   #h'25, r2l
57b0: 471e                      beq     h'0057d0
57b2: 7a04 00ff f41e            mov.l   #h'00fff41e, er4
57b8: 0fc0                      mov.l   er4, er0
57ba: 5e00 54dc                 jsr     h'0054dc
57be: 0ff2                      mov.l   sp, er2
57c0: 7a12 0000 0010            add.l   #h'00000010, er2
57c6: 0fd1                      mov.l   er5, er1
57c8: 0fc0                      mov.l   er4, er0
57ca: 5e00 55ac                 jsr     h'0055ac
57ce: 4026                      bt      h'0057f6
57d0: 0100 6f72 000c            mov.l   @(h'c, sp), er2
57d6: 68a8                      mov.b   r0l, @er2
57d8: 0b03                      adds.l  #1, er3
57da: 0100 6993                 mov.l   er3, @er1
57de: 0b02                      adds.l  #1, er2
57e0: 0100 69d2                 mov.l   er2, @er5
57e4: 4010                      bt      h'0057f6
57e6: 0100 6f72 000c            mov.l   @(h'c, sp), er2
57ec: 68a8                      mov.b   r0l, @er2
57ee: 0b02                      adds.l  #1, er2
57f0: 0100 6ff2 000c            mov.l   er2, @(h'c, sp)
57f6: 0100 6f72 0014            mov.l   @(h'14, sp), er2
57fc: 682a                      mov.b   @er2, r2l
57fe: 4688                      bne     h'005788
5800: 0100 6f72 000c            mov.l   @(h'c, sp), er2
5806: 18bb                      sub.b   r3l, r3l
5808: 68ab                      mov.b   r3l, @er2
580a: 6f70 000e                 mov.w   @(h'e, sp), r0
580e: 1960                      sub.w   r6, r0
5810: 0120 6d76                 ldm.l   @sp+, er4-er6
5814: 7a17 0000 000c            add.l   #h'0000000c, sp
581a: 5470                      rts
581c: 0100 6f71 0004            mov.l   @(h'4, sp), er1
5822: 0ff2                      mov.l   sp, er2
5824: 0b92                      adds.l  #4, er2
5826: 0b92                      adds.l  #4, er2
5828: 5e00 574c                 jsr     h'00574c
582c: 5470                      rts
582e: 0100 6df4                 mov.l   er4, @-sp
5832: 0c9c                      mov.b   r1l, r4l
5834: 0fa1                      mov.l   er2, er1
5836: 6e0a 0004                 mov.b   @(h'4, er0), r2l
583a: 4604                      bne     h'005840
583c: 6902                      mov.w   @er0, r2
583e: 4608                      bne     h'005848
5840: 0100 6912                 mov.l   @er1, er2
5844: 68ac                      mov.b   r4l, @er2
5846: 400e                      bt      h'005856
5848: 6902                      mov.w   @er0, r2
584a: 17f2                      exts.l  er2
584c: 0100 6913                 mov.l   @er1, er3
5850: 0ab2                      add.l   er3, er2
5852: 6eac ffff                 mov.b   r4l, @(h'ffff, er2)
5856: 0100 6913                 mov.l   @er1, er3
585a: 6902                      mov.w   @er0, r2
585c: 4706                      beq     h'005864
585e: 17f2                      exts.l  er2
5860: 0ab2                      add.l   er3, er2
5862: 4004                      bt      h'005868
5864: 0fb2                      mov.l   er3, er2
5866: 0b02                      adds.l  #1, er2
5868: 0100 6992                 mov.l   er2, @er1
586c: 0100 6d74                 mov.l   @sp+, er4
5870: 5470                      rts
5872: 0120 6df4                 stm.l   er4-er6, @-sp
5876: 0f85                      mov.l   er0, er5
5878: 0f94                      mov.l   er1, er4
587a: 0fa6                      mov.l   er2, er6
587c: 0fc0                      mov.l   er4, er0
587e: 5e00 12f8                 jsr     h'0012f8
5882: 0d03                      mov.w   r0, r3
5884: 6952                      mov.w   @er5, r2
5886: 4602                      bne     h'00588a
5888: 69d0                      mov.w   r0, @er5
588a: 6e5a 0004                 mov.b   @(h'4, er5), r2l
588e: 470a                      beq     h'00589a
5890: 0100 6960                 mov.l   @er6, er0
5894: 0d32                      mov.w   r3, r2
5896: 17f2                      exts.l  er2
5898: 4020                      bt      h'0058ba
589a: 6952                      mov.w   @er5, r2
589c: 0100 6960                 mov.l   @er6, er0
58a0: 0d31                      mov.w   r3, r1
58a2: 17f1                      exts.l  er1
58a4: 1d32                      cmp.w   r3, r2
58a6: 4d0a                      blt     h'0058b2
58a8: 1932                      sub.w   r3, r2
58aa: 17f2                      exts.l  er2
58ac: 0aa0                      add.l   er2, er0
58ae: 0f92                      mov.l   er1, er2
58b0: 4008                      bt      h'0058ba
58b2: 0a94                      add.l   er1, er4
58b4: 6952                      mov.w   @er5, r2
58b6: 17f2                      exts.l  er2
58b8: 1aa4                      sub.l   er2, er4
58ba: 0fc1                      mov.l   er4, er1
58bc: 5e00 120c                 jsr     h'00120c
58c0: 6953                      mov.w   @er5, r3
58c2: 17f3                      exts.l  er3
58c4: 0100 6962                 mov.l   @er6, er2
58c8: 0ab2                      add.l   er3, er2
58ca: 0100 69e2                 mov.l   er2, @er6
58ce: 0120 6d76                 ldm.l   @sp+, er4-er6
58d2: 5470                      rts
58d4: 7a02 0000 474e            mov.l   #h'0000474e, er2
58da: 0100 6f82 0008            mov.l   er2, @(h'8, er0)
58e0: 5470                      rts
58e2: 6a88 ed38                 mov.b   r0l, @h'ffed38
58e6: 5470                      rts
58e8: 6a08 ed38                 mov.b   @h'ffed38, r0l
58ec: 5470                      rts
58ee: 0110 6df4                 stm.l   er4-er5, @-sp
58f2: 0f85                      mov.l   er0, er5
58f4: 6a0a ed38                 mov.b   @h'ffed38, r2l
58f8: 4606                      bne     h'005900
58fa: 7900 ffff                 mov.w   #h'ffff, r0
58fe: 403a                      bt      h'00593a
5900: 0fd5                      mov.l   er5, er5
5902: 470a                      beq     h'00590e
5904: 5e00 4a50                 jsr     h'004a50
5908: 0f84                      mov.l   er0, er4
590a: 0ad4                      add.l   er5, er4
590c: 4006                      bt      h'005914
590e: 7a04 ffff fff0            mov.l   #h'fffffff0, er4
5914: 7905 ffff                 mov.w   #h'ffff, r5
5918: 5e00 4a50                 jsr     h'004a50
591c: 1fc0                      cmp.l   er4, er0
591e: 4206                      bhi     h'005926
5920: 2a84                      mov.b   @h'ffff84, r2l
5922: 736a                      btst    #6, r2l
5924: 47f2                      beq     h'005918
5926: 2a84                      mov.b   @h'ffff84, r2l
5928: 736a                      btst    #6, r2l
592a: 470c                      beq     h'005938
592c: 2a85                      mov.b   @h'ffff85, r2l
592e: 0cad                      mov.b   r2l, r5l
5930: f500                      mov.b   #h'00, r5h
5932: 2a84                      mov.b   @h'ffff84, r2l
5934: ea87                      and.b   #h'87, r2l
5936: 3a84                      mov.b   r2l, @h'ffff84
5938: 0d50                      mov.w   r5, r0
593a: 0110 6d75                 ldm.l   @sp+, er4-er5
593e: 5470                      rts
5940: 1b97                      subs.l  #4, sp
5942: 0120 6df4                 stm.l   er4-er6, @-sp
5946: 0f94                      mov.l   er1, er4
5948: 0100 6ff2 000c            mov.l   er2, @(h'c, sp)
594e: 0fc6                      mov.l   er4, er6
5950: 0f85                      mov.l   er0, er5
5952: 1b04                      subs.l  #1, er4
5954: 0fe6                      mov.l   er6, er6
5956: 4716                      beq     h'00596e
5958: 0100 6f70 000c            mov.l   @(h'c, sp), er0
595e: 558e                      bsr     h'0058ee
5960: 0d00                      mov.w   r0, r0
5962: 4d0a                      blt     h'00596e
5964: 68d8                      mov.b   r0l, @er5
5966: 0b05                      adds.l  #1, er5
5968: 0fc2                      mov.l   er4, er2
596a: 1b04                      subs.l  #1, er4
596c: 46ea                      bne     h'005958
596e: 1ac6                      sub.l   er4, er6
5970: 0fe0                      mov.l   er6, er0
5972: 0120 6d76                 ldm.l   @sp+, er4-er6
5976: 0b97                      adds.l  #4, sp
5978: 5470                      rts
597a: 1b97                      subs.l  #4, sp
597c: 0120 6df4                 stm.l   er4-er6, @-sp
5980: 0f86                      mov.l   er0, er6
5982: 0f94                      mov.l   er1, er4
5984: 0100 6ff2 000c            mov.l   er2, @(h'c, sp)
598a: 1955                      sub.w   r5, r5
598c: 402c                      bt      h'0059ba
598e: 0100 6f70 000c            mov.l   @(h'c, sp), er0
5994: 5e00 58ee                 jsr     h'0058ee
5998: 0d00                      mov.w   r0, r0
599a: 4c06                      bge     h'0059a2
599c: 7905 ffff                 mov.w   #h'ffff, r5
59a0: 400e                      bt      h'0059b0
59a2: 0b05                      adds.l  #1, er5
59a4: 7920 000a                 cmp.w   #h'000a, r0
59a8: 4706                      beq     h'0059b0
59aa: 7920 000d                 cmp.w   #h'000d, r0
59ae: 4602                      bne     h'0059b2
59b0: 1900                      sub.w   r0, r0
59b2: 68e8                      mov.b   r0l, @er6
59b4: 0b06                      adds.l  #1, er6
59b6: 0d00                      mov.w   r0, r0
59b8: 4706                      beq     h'0059c0
59ba: 0fc2                      mov.l   er4, er2
59bc: 1b04                      subs.l  #1, er4
59be: 46ce                      bne     h'00598e
59c0: 0d50                      mov.w   r5, r0
59c2: 0120 6d76                 ldm.l   @sp+, er4-er6
59c6: 0b97                      adds.l  #4, sp
59c8: 5470                      rts
59ca: 6a0a ed38                 mov.b   @h'ffed38, r2l
59ce: 470e                      beq     h'0059de
59d0: 2a84                      mov.b   @h'ffff84, r2l
59d2: 4cfc                      bge     h'0059d0
59d4: 3883                      mov.b   r0l, @h'ffff83
59d6: 6a38 00ff ff84 7270       bclr    #7, @h'ffff84
59de: 5470                      rts
59e0: 0100 6df4                 mov.l   er4, @-sp
59e4: 0f84                      mov.l   er0, er4
59e6: 4012                      bt      h'0059fa
59e8: 684a                      mov.b   @er4, r2l
59ea: aa0a                      cmp.b   #h'0a, r2l
59ec: 4606                      bne     h'0059f4
59ee: 1a91                      sub.l   er1, er1
59f0: f80d                      mov.b   #h'0d, r0l
59f2: 55d6                      bsr     h'0059ca
59f4: 6c48                      mov.b   @er4+, r0l
59f6: 1a91                      sub.l   er1, er1
59f8: 55d0                      bsr     h'0059ca
59fa: 684a                      mov.b   @er4, r2l
59fc: 46ea                      bne     h'0059e8
59fe: 0100 6d74                 mov.l   @sp+, er4
5a02: 5470                      rts
5a04: 0110 6df4                 stm.l   er4-er5, @-sp
5a08: 0f94                      mov.l   er1, er4
5a0a: 0f85                      mov.l   er0, er5
5a0c: 4006                      bt      h'005a14
5a0e: 6c58                      mov.b   @er5+, r0l
5a10: 1a91                      sub.l   er1, er1
5a12: 55b6                      bsr     h'0059ca
5a14: 0fc2                      mov.l   er4, er2
5a16: 1b04                      subs.l  #1, er4
5a18: 46f4                      bne     h'005a0e
5a1a: 0110 6d75                 ldm.l   @sp+, er4-er5
5a1e: 5470                      rts
5a20: 0110 6df4                 stm.l   er4-er5, @-sp
5a24: 0100 6f71 000c            mov.l   @(h'c, sp), er1
5a2a: 7a05 00ff ed39            mov.l   #h'00ffed39, er5
5a30: 0ff2                      mov.l   sp, er2
5a32: 7a12 0000 0010            add.l   #h'00000010, er2
5a38: 0fd0                      mov.l   er5, er0
5a3a: 5e00 574c                 jsr     h'00574c
5a3e: 0d04                      mov.w   r0, r4
5a40: 1a91                      sub.l   er1, er1
5a42: 0fd0                      mov.l   er5, er0
5a44: 559a                      bsr     h'0059e0
5a46: 0d40                      mov.w   r4, r0
5a48: 0110 6d75                 ldm.l   @sp+, er4-er5
5a4c: 5470                      rts
5a4e: 8100                      add.b   #h'00, r1h
5a50: 7a37 0000 0010            sub.l   #h'00000010, sp
5a56: 0120 6df4                 stm.l   er4-er6, @-sp
5a5a: 0100 6ff0 0014            mov.l   er0, @(h'14, sp)
5a60: 6ff1 0012                 mov.w   r1, @(h'12, sp)
5a64: 0100 6df1                 mov.l   er1, @-sp
5a68: 7a05 0000 475a            mov.l   #h'0000475a, er5
5a6e: 0100 6df5                 mov.l   er5, @-sp
5a72: 5e00 5a20                 jsr     h'005a20
5a76: 7905 000a                 mov.w   #h'000a, r5
5a7a: 6ff5 0018                 mov.w   r5, @(h'18, sp)
5a7e: 0b97                      adds.l  #4, sp
5a80: 0b97                      adds.l  #4, sp
5a82: 7a00 0000 03e8            mov.l   #h'000003e8, er0
5a88: 5e00 58ee                 jsr     h'0058ee
5a8c: 0d00                      mov.w   r0, r0
5a8e: 4c34                      bge     h'005ac4
5a90: 7a00 0000 01f4            mov.l   #h'000001f4, er0
5a96: 5e00 58ee                 jsr     h'0058ee
5a9a: 0d00                      mov.w   r0, r0
5a9c: 4cf2                      bge     h'005a90
5a9e: 6f75 0010                 mov.w   @(h'10, sp), r5
5aa2: 1b05                      subs.l  #1, er5
5aa4: 6ff5 0010                 mov.w   r5, @(h'10, sp)
5aa8: 0d55                      mov.w   r5, r5
5aaa: 4724                      beq     h'005ad0
5aac: 6f75 0012                 mov.w   @(h'12, sp), r5
5ab0: 0100 6df5                 mov.l   er5, @-sp
5ab4: 7a05 0000 475a            mov.l   #h'0000475a, er5
5aba: 0100 6df5                 mov.l   er5, @-sp
5abe: 5e00 5a20                 jsr     h'005a20
5ac2: 40ba                      bt      h'005a7e
5ac4: 7920 0043                 cmp.w   #h'0043, r0
5ac8: 471c                      beq     h'005ae6
5aca: 7920 0063                 cmp.w   #h'0063, r0
5ace: 4608                      bne     h'005ad8
5ad0: 7900 ffff                 mov.w   #h'ffff, r0
5ad4: 5800 0254                 bt      h'005d2c
5ad8: 1a91                      sub.l   er1, er1
5ada: 7a00 0000 4763            mov.l   #h'00004763, er0
5ae0: 5e00 59e0                 jsr     h'0059e0
5ae4: 40aa                      bt      h'005a90
5ae6: 0ff6                      mov.l   sp, er6
5ae8: 7a16 0000 0018            add.l   #h'00000018, er6
5aee: 1aa2                      sub.l   er2, er2
5af0: 1b02                      subs.l  #1, er2
5af2: 0100 69e2                 mov.l   er2, @er6
5af6: 7a00 0000 03e8            mov.l   #h'000003e8, er0
5afc: 5e00 58ee                 jsr     h'0058ee
5b00: 0d00                      mov.w   r0, r0
5b02: 4d9a                      blt     h'005a9e
5b04: 0c8a                      mov.b   r0l, r2l
5b06: 6f63 0002                 mov.w   @(h'2, er6), r3
5b0a: 15ba                      xor.b   r3l, r2l
5b0c: 1072                      shll.l  #2, er2
5b0e: 7a62 0000 03fc            and.l   #h'000003fc, er2
5b14: 0100 6f73 0018            mov.l   @(h'18, sp), er3
5b1a: 1173                      shlr.l  #2, er3
5b1c: 1173                      shlr.l  #2, er3
5b1e: 1173                      shlr.l  #2, er3
5b20: 1173                      shlr.l  #2, er3
5b22: 0100 7820 6b22 0000 04e0  mov.l   @(h'4e0, er2), er2
5b2c: 01f0 6532                 xor.l   er3, er2
5b30: 0100 69e2                 mov.l   er2, @er6
5b34: 0d04                      mov.w   r0, r4
5b36: 7a00 0000 03e8            mov.l   #h'000003e8, er0
5b3c: 5e00 58ee                 jsr     h'0058ee
5b40: 0d00                      mov.w   r0, r0
5b42: 58d0 ff58                 blt     h'005a9e
5b46: 0d02                      mov.w   r0, r2
5b48: 0ca2                      mov.b   r2l, r2h
5b4a: 18aa                      sub.b   r2l, r2l
5b4c: 6424                      or.w    r2, r4
5b4e: 6f75 0012                 mov.w   @(h'12, sp), r5
5b52: 1d54                      cmp.w   r5, r4
5b54: 5860 ff38                 bne     h'005a90
5b58: 0c8a                      mov.b   r0l, r2l
5b5a: 6f63 0002                 mov.w   @(h'2, er6), r3
5b5e: 15ba                      xor.b   r3l, r2l
5b60: 1072                      shll.l  #2, er2
5b62: 7a62 0000 03fc            and.l   #h'000003fc, er2
5b68: 0100 6f73 0018            mov.l   @(h'18, sp), er3
5b6e: 1173                      shlr.l  #2, er3
5b70: 1173                      shlr.l  #2, er3
5b72: 1173                      shlr.l  #2, er3
5b74: 1173                      shlr.l  #2, er3
5b76: 0100 7820 6b22 0000 04e0  mov.l   @(h'4e0, er2), er2
5b80: 01f0 6532                 xor.l   er3, er2
5b84: 0100 69e2                 mov.l   er2, @er6
5b88: 7a00 0000 03e8            mov.l   #h'000003e8, er0
5b8e: 5e00 58ee                 jsr     h'0058ee
5b92: 0d00                      mov.w   r0, r0
5b94: 58d0 ff06                 blt     h'005a9e
5b98: 0c8a                      mov.b   r0l, r2l
5b9a: 6f63 0002                 mov.w   @(h'2, er6), r3
5b9e: 15ba                      xor.b   r3l, r2l
5ba0: 1072                      shll.l  #2, er2
5ba2: 7a62 0000 03fc            and.l   #h'000003fc, er2
5ba8: 0100 6f73 0018            mov.l   @(h'18, sp), er3
5bae: 1173                      shlr.l  #2, er3
5bb0: 1173                      shlr.l  #2, er3
5bb2: 1173                      shlr.l  #2, er3
5bb4: 1173                      shlr.l  #2, er3
5bb6: 0100 7820 6b22 0000 04e0  mov.l   @(h'4e0, er2), er2
5bc0: 01f0 6532                 xor.l   er3, er2
5bc4: 0100 69e2                 mov.l   er2, @er6
5bc8: 6ff0 000e                 mov.w   r0, @(h'e, sp)
5bcc: 7a00 0000 03e8            mov.l   #h'000003e8, er0
5bd2: 5e00 58ee                 jsr     h'0058ee
5bd6: 0d00                      mov.w   r0, r0
5bd8: 58d0 fec2                 blt     h'005a9e
5bdc: 0d02                      mov.w   r0, r2
5bde: 0ca2                      mov.b   r2l, r2h
5be0: 18aa                      sub.b   r2l, r2l
5be2: 6f75 000e                 mov.w   @(h'e, sp), r5
5be6: 6425                      or.w    r2, r5
5be8: 6ff5 000e                 mov.w   r5, @(h'e, sp)
5bec: 0c8a                      mov.b   r0l, r2l
5bee: 6f63 0002                 mov.w   @(h'2, er6), r3
5bf2: 15ba                      xor.b   r3l, r2l
5bf4: 1072                      shll.l  #2, er2
5bf6: 7a62 0000 03fc            and.l   #h'000003fc, er2
5bfc: 0100 6f73 0018            mov.l   @(h'18, sp), er3
5c02: 1173                      shlr.l  #2, er3
5c04: 1173                      shlr.l  #2, er3
5c06: 1173                      shlr.l  #2, er3
5c08: 1173                      shlr.l  #2, er3
5c0a: 0100 7820 6b22 0000 04e0  mov.l   @(h'4e0, er2), er2
5c14: 01f0 6532                 xor.l   er3, er2
5c18: 0100 69e2                 mov.l   er2, @er6
5c1c: 6f75 000e                 mov.w   @(h'e, sp), r5
5c20: 7925 0200                 cmp.w   #h'0200, r5
5c24: 5820 fe68                 bhi     h'005a90
5c28: 1944                      sub.w   r4, r4
5c2a: 1d54                      cmp.w   r5, r4
5c2c: 4428                      bcc     h'005c56
5c2e: 7a00 0000 03e8            mov.l   #h'000003e8, er0
5c34: 5e00 58ee                 jsr     h'0058ee
5c38: 0d00                      mov.w   r0, r0
5c3a: 58d0 fe60                 blt     h'005a9e
5c3e: 0d43                      mov.w   r4, r3
5c40: 1773                      extu.l  er3
5c42: 0100 6f72 0014            mov.l   @(h'14, sp), er2
5c48: 0ab2                      add.l   er3, er2
5c4a: 68a8                      mov.b   r0l, @er2
5c4c: 0b04                      adds.l  #1, er4
5c4e: 6f75 000e                 mov.w   @(h'e, sp), r5
5c52: 1d54                      cmp.w   r5, r4
5c54: 45d8                      bcs     h'005c2e
5c56: 7a00 0000 03e8            mov.l   #h'000003e8, er0
5c5c: 5e00 58ee                 jsr     h'0058ee
5c60: 0d00                      mov.w   r0, r0
5c62: 58d0 fe38                 blt     h'005a9e
5c66: 0d04                      mov.w   r0, r4
5c68: 17f4                      exts.l  er4
5c6a: 7a00 0000 03e8            mov.l   #h'000003e8, er0
5c70: 5e00 58ee                 jsr     h'0058ee
5c74: 0d00                      mov.w   r0, r0
5c76: 58d0 fe24                 blt     h'005a9e
5c7a: 0d02                      mov.w   r0, r2
5c7c: 17f2                      exts.l  er2
5c7e: 1072                      shll.l  #2, er2
5c80: 1072                      shll.l  #2, er2
5c82: 1072                      shll.l  #2, er2
5c84: 1072                      shll.l  #2, er2
5c86: 01f0 6424                 or.l    er2, er4
5c8a: 7a00 0000 03e8            mov.l   #h'000003e8, er0
5c90: 5e00 58ee                 jsr     h'0058ee
5c94: 0d00                      mov.w   r0, r0
5c96: 58d0 fe04                 blt     h'005a9e
5c9a: 0f82                      mov.l   er0, er2
5c9c: 0d2a                      mov.w   r2, e2
5c9e: 1922                      sub.w   r2, r2
5ca0: 01f0 6424                 or.l    er2, er4
5ca4: 7a00 0000 03e8            mov.l   #h'000003e8, er0
5caa: 5e00 58ee                 jsr     h'0058ee
5cae: 0d00                      mov.w   r0, r0
5cb0: 58d0 fdea                 blt     h'005a9e
5cb4: 0f82                      mov.l   er0, er2
5cb6: 0ca2                      mov.b   r2l, r2h
5cb8: 18aa                      sub.b   r2l, r2l
5cba: 0d2a                      mov.w   r2, e2
5cbc: 1922                      sub.w   r2, r2
5cbe: 01f0 6424                 or.l    er2, er4
5cc2: 6f72 000e                 mov.w   @(h'e, sp), r2
5cc6: 1772                      extu.l  er2
5cc8: 0fe1                      mov.l   er6, er1
5cca: 0100 6f76 0014            mov.l   @(h'14, sp), er6
5cd0: 0fa0                      mov.l   er2, er0
5cd2: 4032                      bt      h'005d06
5cd4: 6c6b                      mov.b   @er6+, r3l
5cd6: f300                      mov.b   #h'00, r3h
5cd8: 6f12 0002                 mov.w   @(h'2, er1), r2
5cdc: 6532                      xor.w   r3, r2
5cde: 1072                      shll.l  #2, er2
5ce0: 7a62 0000 03fc            and.l   #h'000003fc, er2
5ce6: 0100 6913                 mov.l   @er1, er3
5cea: 1173                      shlr.l  #2, er3
5cec: 1173                      shlr.l  #2, er3
5cee: 1173                      shlr.l  #2, er3
5cf0: 1173                      shlr.l  #2, er3
5cf2: 0100 7820 6b22 0000 04e0  mov.l   @(h'4e0, er2), er2
5cfc: 01f0 6532                 xor.l   er3, er2
5d00: 0100 6992                 mov.l   er2, @er1
5d04: 0f82                      mov.l   er0, er2
5d06: 1b00                      subs.l  #1, er0
5d08: 0fa2                      mov.l   er2, er2
5d0a: 46c8                      bne     h'005cd4
5d0c: 0100 6f72 0018            mov.l   @(h'18, sp), er2
5d12: 1732                      not.l   er2
5d14: 1fa4                      cmp.l   er2, er4
5d16: 4710                      beq     h'005d28
5d18: 1a91                      sub.l   er1, er1
5d1a: 7a00 0000 4770            mov.l   #h'00004770, er0
5d20: 5e00 59e0                 jsr     h'0059e0
5d24: 5800 fd68                 bt      h'005a90
5d28: 6f70 000e                 mov.w   @(h'e, sp), r0
5d2c: 0120 6d76                 ldm.l   @sp+, er4-er6
5d30: 7a17 0000 0010            add.l   #h'00000010, sp
5d36: 5470                      rts
5d38: 1b97                      subs.l  #4, sp
5d3a: 1b97                      subs.l  #4, sp
5d3c: 0120 6df4                 stm.l   er4-er6, @-sp
5d40: 0f96                      mov.l   er1, er6
5d42: 5e00 1416                 jsr     h'001416
5d46: f920                      mov.b   #h'20, r1l
5d48: 5e00 1388                 jsr     h'001388
5d4c: 5e00 14fc                 jsr     h'0014fc
5d50: 0100 6ff0 0010            mov.l   er0, @(h'10, sp)
5d56: 1955                      sub.w   r5, r5
5d58: 0100 6df0                 mov.l   er0, @-sp
5d5c: 7a02 0000 4778            mov.l   #h'00004778, er2
5d62: 0100 6df2                 mov.l   er2, @-sp
5d66: 5e00 5a20                 jsr     h'005a20
5d6a: 1a80                      sub.l   er0, er0
5d6c: 5e00 58ee                 jsr     h'0058ee
5d70: fb01                      mov.b   #h'01, r3l
5d72: 6efb 0017                 mov.b   r3l, @(h'17, sp)
5d76: 1ac4                      sub.l   er4, er4
5d78: 0b97                      adds.l  #4, sp
5d7a: 0b97                      adds.l  #4, sp
5d7c: 4016                      bt      h'005d94
5d7e: 0d51                      mov.w   r5, r1
5d80: 0b05                      adds.l  #1, er5
5d82: 0fe0                      mov.l   er6, er0
5d84: 5e00 5a50                 jsr     h'005a50
5d88: 0d00                      mov.w   r0, r0
5d8a: 4d20                      blt     h'005dac
5d8c: 0d02                      mov.w   r0, r2
5d8e: 17f2                      exts.l  er2
5d90: 0aa6                      add.l   er2, er6
5d92: 0aa4                      add.l   er2, er4
5d94: 0100 6f73 0010            mov.l   @(h'10, sp), er3
5d9a: 1fb4                      cmp.l   er3, er4
5d9c: 45e0                      bcs     h'005d7e
5d9e: 6e7b 000f                 mov.b   @(h'f, sp), r3l
5da2: 4724                      beq     h'005dc8
5da4: 7a00 0000 479a            mov.l   #h'0000479a, er0
5daa: 4022                      bt      h'005dce
5dac: 7a00 0000 4791            mov.l   #h'00004791, er0
5db2: 1a91                      sub.l   er1, er1
5db4: 5e00 59e0                 jsr     h'0059e0
5db8: 18bb                      sub.b   r3l, r3l
5dba: 6efb 000f                 mov.b   r3l, @(h'f, sp)
5dbe: 1ab3                      sub.l   er3, er3
5dc0: 0100 6ff3 0010            mov.l   er3, @(h'10, sp)
5dc6: 40d6                      bt      h'005d9e
5dc8: 7a00 0000 47a1            mov.l   #h'000047a1, er0
5dce: 1a91                      sub.l   er1, er1
5dd0: 5e00 59e0                 jsr     h'0059e0
5dd4: 0100 6f70 0010            mov.l   @(h'10, sp), er0
5dda: 0120 6d76                 ldm.l   @sp+, er4-er6
5dde: 0b97                      adds.l  #4, sp
5de0: 0b97                      adds.l  #4, sp
5de2: 5470                      rts
5de4: 40fe                      bt      h'005de4
5de6: 7a37 0000 0010            sub.l   #h'00000010, sp
5dec: 0120 6df4                 stm.l   er4-er6, @-sp
5df0: 0100 6ff0 0018            mov.l   er0, @(h'18, sp)
5df6: 0100 6ff1 0014            mov.l   er1, @(h'14, sp)
5dfc: 0fa4                      mov.l   er2, er4
5dfe: 1ad5                      sub.l   er5, er5
5e00: 0100 6ff5 000c            mov.l   er5, @(h'c, sp)
5e06: 1966                      sub.w   r6, r6
5e08: 0100 6ff0 0010            mov.l   er0, @(h'10, sp)
5e0e: 1116                      shlr.w  r6
5e10: 7306                      btst    #0, r6h
5e12: 461a                      bne     h'005e2e
5e14: 0fc2                      mov.l   er4, er2
5e16: 1b04                      subs.l  #1, er4
5e18: 5870 00da                 beq     h'005ef6
5e1c: 0100 6f75 0014            mov.l   @(h'14, sp), er5
5e22: 6c5e                      mov.b   @er5+, r6l
5e24: f600                      mov.b   #h'00, r6h
5e26: 0100 6ff5 0014            mov.l   er5, @(h'14, sp)
5e2c: c6ff                      or.b    #h'ff, r6h
5e2e: 0fc3                      mov.l   er4, er3
5e30: 1b03                      subs.l  #1, er3
5e32: 730e                      btst    #0, r6l
5e34: 4738                      beq     h'005e6e
5e36: 0fc2                      mov.l   er4, er2
5e38: 0fb4                      mov.l   er3, er4
5e3a: 0fa2                      mov.l   er2, er2
5e3c: 5870 00b6                 beq     h'005ef6
5e40: 0100 6f75 0014            mov.l   @(h'14, sp), er5
5e46: 6c5a                      mov.b   @er5+, r2l
5e48: 0100 6ff5 0014            mov.l   er5, @(h'14, sp)
5e4e: 0100 6f75 0010            mov.l   @(h'10, sp), er5
5e54: 68da                      mov.b   r2l, @er5
5e56: 0b05                      adds.l  #1, er5
5e58: 0100 6ff5 0010            mov.l   er5, @(h'10, sp)
5e5e: 0100 6f75 000c            mov.l   @(h'c, sp), er5
5e64: 0b05                      adds.l  #1, er5
5e66: 0100 6ff5 000c            mov.l   er5, @(h'c, sp)
5e6c: 40a0                      bt      h'005e0e
5e6e: 0fc4                      mov.l   er4, er4
5e70: 5870 0082                 beq     h'005ef6
5e74: 0100 6f75 0014            mov.l   @(h'14, sp), er5
5e7a: 6c5a                      mov.b   @er5+, r2l
5e7c: f200                      mov.b   #h'00, r2h
5e7e: 0100 6ff5 0014            mov.l   er5, @(h'14, sp)
5e84: 0d20                      mov.w   r2, r0
5e86: 1770                      extu.l  er0
5e88: 0fb4                      mov.l   er3, er4
5e8a: 1b04                      subs.l  #1, er4
5e8c: 0fb3                      mov.l   er3, er3
5e8e: 4766                      beq     h'005ef6
5e90: 6c5b                      mov.b   @er5+, r3l
5e92: f300                      mov.b   #h'00, r3h
5e94: 0100 6ff5 0014            mov.l   er5, @(h'14, sp)
5e9a: 0fb2                      mov.l   er3, er2
5e9c: 1072                      shll.l  #2, er2
5e9e: 1072                      shll.l  #2, er2
5ea0: 7a62 0000 0f00            and.l   #h'00000f00, er2
5ea6: 01f0 6420                 or.l    er2, er0
5eaa: 0100 6f71 000c            mov.l   @(h'c, sp), er1
5eb0: 1a81                      sub.l   er0, er1
5eb2: eb0f                      and.b   #h'0f, r3l
5eb4: e300                      and.b   #h'00, r3h
5eb6: 0b83                      adds.l  #2, er3
5eb8: 0b03                      adds.l  #1, er3
5eba: 0100 6f70 000c            mov.l   @(h'c, sp), er0
5ec0: 0100 6f75 0018            mov.l   @(h'18, sp), er5
5ec6: 0ad0                      add.l   er5, er0
5ec8: 0ad1                      add.l   er5, er1
5eca: 6c1a                      mov.b   @er1+, r2l
5ecc: 688a                      mov.b   r2l, @er0
5ece: 0b00                      adds.l  #1, er0
5ed0: 0100 6f75 0010            mov.l   @(h'10, sp), er5
5ed6: 0b05                      adds.l  #1, er5
5ed8: 0100 6ff5 0010            mov.l   er5, @(h'10, sp)
5ede: 0100 6f75 000c            mov.l   @(h'c, sp), er5
5ee4: 0b05                      adds.l  #1, er5
5ee6: 0100 6ff5 000c            mov.l   er5, @(h'c, sp)
5eec: 1b03                      subs.l  #1, er3
5eee: 0d33                      mov.w   r3, r3
5ef0: 46d8                      bne     h'005eca
5ef2: 5800 ff18                 bt      h'005e0e
5ef6: 0100 6f70 000c            mov.l   @(h'c, sp), er0
5efc: 0120 6d76                 ldm.l   @sp+, er4-er6
5f00: 7a17 0000 0010            add.l   #h'00000010, sp
5f06: 5470                      rts
5f08: 1b97                      subs.l  #4, sp
5f0a: 0120 6df4                 stm.l   er4-er6, @-sp
5f0e: 0ff3                      mov.l   sp, er3
5f10: 7a13 0000 000c            add.l   #h'0000000c, er3
5f16: 1aa2                      sub.l   er2, er2
5f18: 1b02                      subs.l  #1, er2
5f1a: 0100 69b2                 mov.l   er2, @er3
5f1e: 18dd                      sub.b   r5l, r5l
5f20: 7a01 007f f800            mov.l   #h'007ff800, er1
5f26: 0100 6912                 mov.l   @er1, er2
5f2a: 7a22 ba0b ab15            cmp.l   #h'ba0bab15, er2
5f30: 4652                      bne     h'005f84
5f32: 0fb0                      mov.l   er3, er0
5f34: 0f96                      mov.l   er1, er6
5f36: 7a01 0000 07fb            mov.l   #h'000007fb, er1
5f3c: 6c6b                      mov.b   @er6+, r3l
5f3e: f300                      mov.b   #h'00, r3h
5f40: 6f02 0002                 mov.w   @(h'2, er0), r2
5f44: 6532                      xor.w   r3, r2
5f46: 0fa3                      mov.l   er2, er3
5f48: 1073                      shll.l  #2, er3
5f4a: 7a63 0000 03fc            and.l   #h'000003fc, er3
5f50: 0100 6902                 mov.l   @er0, er2
5f54: 1172                      shlr.l  #2, er2
5f56: 1172                      shlr.l  #2, er2
5f58: 1172                      shlr.l  #2, er2
5f5a: 1172                      shlr.l  #2, er2
5f5c: 0100 7830 6b23 0000 04e0  mov.l   @(h'4e0, er3), er3
5f66: 01f0 6523                 xor.l   er2, er3
5f6a: 0100 6983                 mov.l   er3, @er0
5f6e: 0f92                      mov.l   er1, er2
5f70: 1b01                      subs.l  #1, er1
5f72: 46c8                      bne     h'005f3c
5f74: 1733                      not.l   er3
5f76: 0100 6b22 007f fffc       mov.l   @h'7ffffc, er2
5f7e: 1fa3                      cmp.l   er2, er3
5f80: 4602                      bne     h'005f84
5f82: fd01                      mov.b   #h'01, r5l
5f84: 0cd8                      mov.b   r5l, r0l
5f86: 0120 6d76                 ldm.l   @sp+, er4-er6
5f8a: 0b97                      adds.l  #4, sp
5f8c: 5470                      rts
5f8e: 5e00 5f08                 jsr     h'005f08
5f92: 0c88                      mov.b   r0l, r0l
5f94: 471e                      beq     h'005fb4
5f96: 7a00 007f f804            mov.l   #h'007ff804, er0
5f9c: 6a2a 007f f805            mov.b   @h'7ff805, r2l
5fa2: 170a                      not.b   r2l
5fa4: 680b                      mov.b   @er0, r3l
5fa6: 15ba                      xor.b   r3l, r2l
5fa8: 460a                      bne     h'005fb4
5faa: ab1f                      cmp.b   #h'1f, r3l
5fac: 4206                      bhi     h'005fb4
5fae: 0cb8                      mov.b   r3l, r0l
5fb0: f000                      mov.b   #h'00, r0h
5fb2: 4004                      bt      h'005fb8
5fb4: 7900 0007                 mov.w   #h'0007, r0
5fb8: 5470                      rts
5fba: 5e00 5f08                 jsr     h'005f08
5fbe: 0c88                      mov.b   r0l, r0l
5fc0: 4710                      beq     h'005fd2
5fc2: 6b22 007f f806            mov.w   @h'7ff806, r2
5fc8: 7922 2b57                 cmp.w   #h'2b57, r2
5fcc: 4604                      bne     h'005fd2
5fce: 1888                      sub.b   r0l, r0l
5fd0: 4002                      bt      h'005fd4
5fd2: f801                      mov.b   #h'01, r0l
5fd4: 5470                      rts
5fd6: 5e00 5f08                 jsr     h'005f08
5fda: 0c88                      mov.b   r0l, r0l
5fdc: 4710                      beq     h'005fee
5fde: 6b22 007f f808            mov.w   @h'7ff808, r2
5fe4: 7922 deba                 cmp.w   #h'deba, r2
5fe8: 4604                      bne     h'005fee
5fea: f801                      mov.b   #h'01, r0l
5fec: 4002                      bt      h'005ff0
5fee: 1888                      sub.b   r0l, r0l
5ff0: 5470                      rts
5ff2: 5e00 5f08                 jsr     h'005f08
5ff6: 0c88                      mov.b   r0l, r0l
5ff8: 4606                      bne     h'006000
5ffa: 1a80                      sub.l   er0, er0
5ffc: 1b80                      subs.l  #2, er0
5ffe: 4008                      bt      h'006008
6000: 0100 6b20 007f f80a       mov.l   @h'7ff80a, er0
6008: 5470                      rts
600a: 0000                      nop
600c: 0000                      nop
600e: 0000                      nop
6010: 0000                      nop
6012: 7a02 0010 0000            mov.l   #h'00100000, er2
6018: 68a8                      mov.b   r0l, @er2
601a: 0000                      nop
601c: 0000                      nop
601e: 0000                      nop
6020: 0000                      nop
6022: 7a02 0010 0001            mov.l   #h'00100001, er2
6028: 68a9                      mov.b   r1l, @er2
602a: 5470                      rts
602c: 0100 6df4                 mov.l   er4, @-sp
6030: 0c8c                      mov.b   r0l, r4l
6032: 7901 0019                 mov.w   #h'0019, r1
6036: 1900                      sub.w   r0, r0
6038: 55d0                      bsr     h'00600a
603a: 7901 0002                 mov.w   #h'0002, r1
603e: 7900 0001                 mov.w   #h'0001, r0
6042: 55c6                      bsr     h'00600a
6044: 0cc9                      mov.b   r4l, r1l
6046: f100                      mov.b   #h'00, r1h
6048: 7900 0010                 mov.w   #h'0010, r0
604c: 55bc                      bsr     h'00600a
604e: 1911                      sub.w   r1, r1
6050: 7900 000c                 mov.w   #h'000c, r0
6054: 55b4                      bsr     h'00600a
6056: 7901 000c                 mov.w   #h'000c, r1
605a: 7900 000d                 mov.w   #h'000d, r0
605e: 55aa                      bsr     h'00600a
6060: 7901 0012                 mov.w   #h'0012, r1
6064: 7900 000e                 mov.w   #h'000e, r0
6068: 55a0                      bsr     h'00600a
606a: 7901 001f                 mov.w   #h'001f, r1
606e: 7900 000f                 mov.w   #h'000f, r0
6072: 5596                      bsr     h'00600a
6074: 0100 6d74                 mov.l   @sp+, er4
6078: 5470                      rts
607a: 0100 6df4                 mov.l   er4, @-sp
607e: 0c9c                      mov.b   r1l, r4l
6080: 0c89                      mov.b   r0l, r1l
6082: f100                      mov.b   #h'00, r1h
6084: 7900 000d                 mov.w   #h'000d, r0
6088: 5580                      bsr     h'00600a
608a: 0cc9                      mov.b   r4l, r1l
608c: f100                      mov.b   #h'00, r1h
608e: 7900 000e                 mov.w   #h'000e, r0
6092: 5e00 600a                 jsr     h'00600a
6096: 0100 6d74                 mov.l   @sp+, er4
609a: 5470                      rts
609c: 0110 6df4                 stm.l   er4-er5, @-sp
60a0: 0f85                      mov.l   er0, er5
60a2: 1944                      sub.w   r4, r4
60a4: 1911                      sub.w   r1, r1
60a6: 7900 0002                 mov.w   #h'0002, r0
60aa: 5e00 600a                 jsr     h'00600a
60ae: 7901 0063                 mov.w   #h'0063, r1
60b2: 1941                      sub.w   r4, r1
60b4: 7900 0003                 mov.w   #h'0003, r0
60b8: 5e00 600a                 jsr     h'00600a
60bc: 0000                      nop
60be: 0000                      nop
60c0: 0000                      nop
60c2: 0000                      nop
60c4: 7a03 0010 0000            mov.l   #h'00100000, er3
60ca: fa04                      mov.b   #h'04, r2l
60cc: 68ba                      mov.b   r2l, @er3
60ce: 1900                      sub.w   r0, r0
60d0: 0000                      nop
60d2: 0000                      nop
60d4: 0000                      nop
60d6: 0000                      nop
60d8: 7a03 0010 0001            mov.l   #h'00100001, er3
60de: 6c5a                      mov.b   @er5+, r2l
60e0: 68ba                      mov.b   r2l, @er3
60e2: 0b00                      adds.l  #1, er0
60e4: 7920 0027                 cmp.w   #h'0027, r0
60e8: 43e6                      bls     h'0060d0
60ea: 0b04                      adds.l  #1, er4
60ec: 7924 0063                 cmp.w   #h'0063, r4
60f0: 43b2                      bls     h'0060a4
60f2: 7901 0059                 mov.w   #h'0059, r1
60f6: 1900                      sub.w   r0, r0
60f8: 5e00 600a                 jsr     h'00600a
60fc: 0110 6d75                 ldm.l   @sp+, er4-er5
6100: 5470                      rts
6102: 1b97                      subs.l  #4, sp
6104: 1aa2                      sub.l   er2, er2
6106: 4006                      bt      h'00610e
6108: 0100 6972                 mov.l   @sp, er2
610c: 0b02                      adds.l  #1, er2
610e: 0100 69f2                 mov.l   er2, @sp
6112: 0100 6972                 mov.l   @sp, er2
6116: 7a22 0000 1387            cmp.l   #h'00001387, er2
611c: 4fea                      ble     h'006108
611e: 0b97                      adds.l  #4, sp
6120: 5470                      rts
6122: 6e18 0001                 mov.b   @(h'1, er1), r0l
6126: 0c80                      mov.b   r0l, r0h
6128: 1888                      sub.b   r0l, r0l
612a: 681a                      mov.b   @er1, r2l
612c: f200                      mov.b   #h'00, r2h
612e: 6420                      or.w    r2, r0
6130: 5470                      rts
6132: 0110 6df4                 stm.l   er4-er5, @-sp
6136: 0f94                      mov.l   er1, er4
6138: 6e4a 0003                 mov.b   @(h'3, er4), r2l
613c: f200                      mov.b   #h'00, r2h
613e: 0d21                      mov.w   r2, r1
6140: 1771                      extu.l  er1
6142: 7900 0002                 mov.w   #h'0002, r0
6146: 1071                      shll.l  #2, er1
6148: 1071                      shll.l  #2, er1
614a: 1071                      shll.l  #2, er1
614c: 1071                      shll.l  #2, er1
614e: 0d03                      mov.w   r0, r3
6150: 17f3                      exts.l  er3
6152: 0fc2                      mov.l   er4, er2
6154: 0ab2                      add.l   er3, er2
6156: 682a                      mov.b   @er2, r2l
6158: f200                      mov.b   #h'00, r2h
615a: 1772                      extu.l  er2
615c: 01f0 6421                 or.l    er2, er1
6160: 1b00                      subs.l  #1, er0
6162: 0d00                      mov.w   r0, r0
6164: 4ce0                      bge     h'006146
6166: 0f90                      mov.l   er1, er0
6168: 0110 6d75                 ldm.l   @sp+, er4-er5
616c: 5470                      rts
616e: 1b97                      subs.l  #4, sp
6170: 1b97                      subs.l  #4, sp
6172: 0120 6df4                 stm.l   er4-er6, @-sp
6176: 0100 6ff0 000c            mov.l   er0, @(h'c, sp)
617c: 18aa                      sub.b   r2l, r2l
617e: 6e8a 000c                 mov.b   r2l, @(h'c, er0)
6182: 0100 6f71 000c            mov.l   @(h'c, sp), er1
6188: 6e9a 000d                 mov.b   r2l, @(h'd, er1)
618c: 1933                      sub.w   r3, r3
618e: 6f93 0002                 mov.w   r3, @(h'2, er1)
6192: 7a05 0020 0003            mov.l   #h'00200003, er5
6198: f905                      mov.b   #h'05, r1l
619a: 68d9                      mov.b   r1l, @er5
619c: 0000                      nop
619e: 0000                      nop
61a0: 0000                      nop
61a2: 0000                      nop
61a4: 7a04 0020 0000            mov.l   #h'00200000, er4
61aa: 68cb                      mov.b   r3l, @er4
61ac: fe04                      mov.b   #h'04, r6l
61ae: 68de                      mov.b   r6l, @er5
61b0: 0000                      nop
61b2: 0000                      nop
61b4: 0000                      nop
61b6: 0000                      nop
61b8: 68cb                      mov.b   r3l, @er4
61ba: fa20                      mov.b   #h'20, r2l
61bc: 68da                      mov.b   r2l, @er5
61be: 0000                      nop
61c0: 0000                      nop
61c2: 0000                      nop
61c4: 0000                      nop
61c6: 68cb                      mov.b   r3l, @er4
61c8: fa23                      mov.b   #h'23, r2l
61ca: fb08                      mov.b   #h'08, r3l
61cc: 68da                      mov.b   r2l, @er5
61ce: 0000                      nop
61d0: 0000                      nop
61d2: 0000                      nop
61d4: 0000                      nop
61d6: 68cb                      mov.b   r3l, @er4
61d8: fa27                      mov.b   #h'27, r2l
61da: fb01                      mov.b   #h'01, r3l
61dc: 68da                      mov.b   r2l, @er5
61de: 0000                      nop
61e0: 0000                      nop
61e2: 0000                      nop
61e4: 0000                      nop
61e6: 68cb                      mov.b   r3l, @er4
61e8: 0100 6f70 000c            mov.l   @(h'c, sp), er0
61ee: 5e00 6d98                 jsr     h'006d98
61f2: 0100 6f70 000c            mov.l   @(h'c, sp), er0
61f8: 5e00 6fe6                 jsr     h'006fe6
61fc: fa80                      mov.b   #h'80, r2l
61fe: 68de                      mov.b   r6l, @er5
6200: 0000                      nop
6202: 0000                      nop
6204: 0000                      nop
6206: 0000                      nop
6208: 68ca                      mov.b   r2l, @er4
620a: fa02                      mov.b   #h'02, r2l
620c: f905                      mov.b   #h'05, r1l
620e: 68d9                      mov.b   r1l, @er5
6210: 0000                      nop
6212: 0000                      nop
6214: 0000                      nop
6216: 0000                      nop
6218: 68ca                      mov.b   r2l, @er4
621a: 0120 6d76                 ldm.l   @sp+, er4-er6
621e: 0b97                      adds.l  #4, sp
6220: 0b97                      adds.l  #4, sp
6222: 5470                      rts
6224: 1b97                      subs.l  #4, sp
6226: 0110 6df4                 stm.l   er4-er5, @-sp
622a: 1899                      sub.b   r1l, r1l
622c: 6889                      mov.b   r1l, @er0
622e: 6a38 00ff ff2e 7210       bclr    #1, @h'ffff2e
6236: fa01                      mov.b   #h'01, r2l
6238: 7a05 0020 0003            mov.l   #h'00200003, er5
623e: 68d9                      mov.b   r1l, @er5
6240: 0000                      nop
6242: 0000                      nop
6244: 0000                      nop
6246: 0000                      nop
6248: 7a04 0020 0000            mov.l   #h'00200000, er4
624e: 68ca                      mov.b   r2l, @er4
6250: fac0                      mov.b   #h'c0, r2l
6252: 68d9                      mov.b   r1l, @er5
6254: 0000                      nop
6256: 0000                      nop
6258: 0000                      nop
625a: 0000                      nop
625c: 68ca                      mov.b   r2l, @er4
625e: fa0f                      mov.b   #h'0f, r2l
6260: fb32                      mov.b   #h'32, r3l
6262: 68da                      mov.b   r2l, @er5
6264: 0000                      nop
6266: 0000                      nop
6268: 0000                      nop
626a: 0000                      nop
626c: 68cb                      mov.b   r3l, @er4
626e: fa0d                      mov.b   #h'0d, r2l
6270: fb03                      mov.b   #h'03, r3l
6272: 68da                      mov.b   r2l, @er5
6274: 0000                      nop
6276: 0000                      nop
6278: 0000                      nop
627a: 0000                      nop
627c: 68cb                      mov.b   r3l, @er4
627e: fa0b                      mov.b   #h'0b, r2l
6280: 68da                      mov.b   r2l, @er5
6282: 0000                      nop
6284: 0000                      nop
6286: 0000                      nop
6288: 0000                      nop
628a: 68cb                      mov.b   r3l, @er4
628c: fa09                      mov.b   #h'09, r2l
628e: fb50                      mov.b   #h'50, r3l
6290: 68da                      mov.b   r2l, @er5
6292: 0000                      nop
6294: 0000                      nop
6296: 0000                      nop
6298: 0000                      nop
629a: 68cb                      mov.b   r3l, @er4
629c: fa07                      mov.b   #h'07, r2l
629e: fbd6                      mov.b   #h'd6, r3l
62a0: 68da                      mov.b   r2l, @er5
62a2: 0000                      nop
62a4: 0000                      nop
62a6: 0000                      nop
62a8: 0000                      nop
62aa: 68cb                      mov.b   r3l, @er4
62ac: 0100 6ff1 0008            mov.l   er1, @(h'8, sp)
62b2: 5e00 616e                 jsr     h'00616e
62b6: fac8                      mov.b   #h'c8, r2l
62b8: 0100 6f71 0008            mov.l   @(h'8, sp), er1
62be: 68d9                      mov.b   r1l, @er5
62c0: 0000                      nop
62c2: 0000                      nop
62c4: 0000                      nop
62c6: 0000                      nop
62c8: 68ca                      mov.b   r2l, @er4
62ca: 0110 6d75                 ldm.l   @sp+, er4-er5
62ce: 0b97                      adds.l  #4, sp
62d0: 5470                      rts
62d2: 6808                      mov.b   @er0, r0l
62d4: 5470                      rts
62d6: 18bb                      sub.b   r3l, r3l
62d8: 6f02 0002                 mov.w   @(h'2, er0), r2
62dc: 4702                      beq     h'0062e0
62de: fb01                      mov.b   #h'01, r3l
62e0: 0cb8                      mov.b   r3l, r0l
62e2: 5470                      rts
62e4: 18bb                      sub.b   r3l, r3l
62e6: 688b                      mov.b   r3l, @er0
62e8: f8c8                      mov.b   #h'c8, r0l
62ea: 7a02 0020 0003            mov.l   #h'00200003, er2
62f0: 68ab                      mov.b   r3l, @er2
62f2: 0000                      nop
62f4: 0000                      nop
62f6: 0000                      nop
62f8: 0000                      nop
62fa: 6aa8 0020 0000            mov.b   r0l, @h'200000
6300: 5470                      rts
6302: 18aa                      sub.b   r2l, r2l
6304: f8c0                      mov.b   #h'c0, r0l
6306: 7a03 0020 0003            mov.l   #h'00200003, er3
630c: 68ba                      mov.b   r2l, @er3
630e: 0000                      nop
6310: 0000                      nop
6312: 0000                      nop
6314: 0000                      nop
6316: 6aa8 0020 0000            mov.b   r0l, @h'200000
631c: 5470                      rts
631e: fa08                      mov.b   #h'08, r2l
6320: 7a01 0020 0003            mov.l   #h'00200003, er1
6326: 689a                      mov.b   r2l, @er1
6328: 0000                      nop
632a: 0000                      nop
632c: 0000                      nop
632e: 0000                      nop
6330: 6a2a 0020 0000            mov.b   @h'200000, r2l
6336: 736a                      btst    #6, r2l
6338: 4736                      beq     h'006370
633a: fa01                      mov.b   #h'01, r2l
633c: 688a                      mov.b   r2l, @er0
633e: 5e00 616e                 jsr     h'00616e
6342: 7a00 00ff f46c            mov.l   #h'00fff46c, er0
6348: 7a01 0100 0000            mov.l   #h'01000000, er1
634e: 5e00 7116                 jsr     h'007116
6352: 5e00 6102                 jsr     h'006102
6356: fa09                      mov.b   #h'09, r2l
6358: fbd0                      mov.b   #h'd0, r3l
635a: 6aaa 0020 0003            mov.b   r2l, @h'200003
6360: 0000                      nop
6362: 0000                      nop
6364: 0000                      nop
6366: 0000                      nop
6368: 6aab 0020 0000            mov.b   r3l, @h'200000
636e: 4072                      bt      h'0063e2
6370: 734a                      btst    #4, r2l
6372: 4734                      beq     h'0063a8
6374: fa09                      mov.b   #h'09, r2l
6376: f8c0                      mov.b   #h'c0, r0l
6378: 689a                      mov.b   r2l, @er1
637a: 0000                      nop
637c: 0000                      nop
637e: 0000                      nop
6380: 0000                      nop
6382: 7a03 0020 0000            mov.l   #h'00200000, er3
6388: 68b8                      mov.b   r0l, @er3
638a: fa05                      mov.b   #h'05, r2l
638c: f803                      mov.b   #h'03, r0l
638e: 689a                      mov.b   r2l, @er1
6390: 0000                      nop
6392: 0000                      nop
6394: 0000                      nop
6396: 0000                      nop
6398: 68b8                      mov.b   r0l, @er3
639a: 7a00 00ff f46c            mov.l   #h'00fff46c, er0
63a0: 7a01 0101 0000            mov.l   #h'01010000, er1
63a6: 4036                      bt      h'0063de
63a8: 0caa                      mov.b   r2l, r2l
63aa: 4c36                      bge     h'0063e2
63ac: fa09                      mov.b   #h'09, r2l
63ae: f850                      mov.b   #h'50, r0l
63b0: 689a                      mov.b   r2l, @er1
63b2: 0000                      nop
63b4: 0000                      nop
63b6: 0000                      nop
63b8: 0000                      nop
63ba: 7a03 0020 0000            mov.l   #h'00200000, er3
63c0: 68b8                      mov.b   r0l, @er3
63c2: fa05                      mov.b   #h'05, r2l
63c4: f802                      mov.b   #h'02, r0l
63c6: 689a                      mov.b   r2l, @er1
63c8: 0000                      nop
63ca: 0000                      nop
63cc: 0000                      nop
63ce: 0000                      nop
63d0: 68b8                      mov.b   r0l, @er3
63d2: 7a00 00ff f46c            mov.l   #h'00fff46c, er0
63d8: 7a01 0102 0000            mov.l   #h'01020000, er1
63de: 5e00 7116                 jsr     h'007116
63e2: 5470                      rts
63e4: 0120 6df4                 stm.l   er4-er6, @-sp
63e8: 0f84                      mov.l   er0, er4
63ea: 7a06 00ff f46c            mov.l   #h'00fff46c, er6
63f0: 7a01 0200 0000            mov.l   #h'02000000, er1
63f6: 0fe0                      mov.l   er6, er0
63f8: 5e00 7116                 jsr     h'007116
63fc: 6e4d 0007                 mov.b   @(h'7, er4), r5l
6400: f500                      mov.b   #h'00, r5h
6402: 7925 0002                 cmp.w   #h'0002, r5
6406: 472c                      beq     h'006434
6408: 58e0 00a4                 bgt     h'0064b0
640c: 7925 0001                 cmp.w   #h'0001, r5
6410: 5860 009c                 bne     h'0064b0
6414: 7a01 0201 0000            mov.l   #h'02010000, er1
641a: 0fe0                      mov.l   er6, er0
641c: 5e00 7116                 jsr     h'007116
6420: 6ecd 000d                 mov.b   r5l, @(h'd, er4)
6424: 7902 0012                 mov.w   #h'0012, r2
6428: 6fc2 0016                 mov.w   r2, @(h'16, er4)
642c: 7a02 0000 47fc            mov.l   #h'000047fc, er2
6432: 4020                      bt      h'006454
6434: 7a01 0202 0000            mov.l   #h'02020000, er1
643a: 0fe0                      mov.l   er6, er0
643c: 5e00 7116                 jsr     h'007116
6440: fa01                      mov.b   #h'01, r2l
6442: 6eca 000d                 mov.b   r2l, @(h'd, er4)
6446: 7902 0020                 mov.w   #h'0020, r2
644a: 6fc2 0016                 mov.w   r2, @(h'16, er4)
644e: 7a02 0000 480e            mov.l   #h'0000480e, er2
6454: 0100 6fc2 0010            mov.l   er2, @(h'10, er4)
645a: 6e4b 000a                 mov.b   @(h'a, er4), r3l
645e: f300                      mov.b   #h'00, r3h
6460: 6f42 0016                 mov.w   @(h'16, er4), r2
6464: 1d32                      cmp.w   r3, r2
6466: 4f04                      ble     h'00646c
6468: 6fc3 0016                 mov.w   r3, @(h'16, er4)
646c: 1922                      sub.w   r2, r2
646e: 6fc2 0014                 mov.w   r2, @(h'14, er4)
6472: 6f43 0014                 mov.w   @(h'14, er4), r3
6476: 6f42 0016                 mov.w   @(h'16, er4), r2
647a: 1d23                      cmp.w   r2, r3
647c: 4c32                      bge     h'0064b0
647e: 17f3                      exts.l  er3
6480: 0100 6f42 0010            mov.l   @(h'10, er4), er2
6486: 0ab2                      add.l   er3, er2
6488: fb21                      mov.b   #h'21, r3l
648a: 682a                      mov.b   @er2, r2l
648c: 6aab 0020 0003            mov.b   r3l, @h'200003
6492: 0000                      nop
6494: 0000                      nop
6496: 0000                      nop
6498: 0000                      nop
649a: 6aaa 0020 0000            mov.b   r2l, @h'200000
64a0: 6f42 0014                 mov.w   @(h'14, er4), r2
64a4: 0b02                      adds.l  #1, er2
64a6: 6fc2 0014                 mov.w   r2, @(h'14, er4)
64aa: 7922 0007                 cmp.w   #h'0007, r2
64ae: 4fc2                      ble     h'006472
64b0: 0120 6d76                 ldm.l   @sp+, er4-er6
64b4: 5470                      rts
64b6: 0100 6df4                 mov.l   er4, @-sp
64ba: 0f84                      mov.l   er0, er4
64bc: 6e4a 0006                 mov.b   @(h'6, er4), r2l
64c0: f200                      mov.b   #h'00, r2h
64c2: 6fc2 0002                 mov.w   r2, @(h'2, er4)
64c6: 0d21                      mov.w   r2, r1
64c8: 17f1                      exts.l  er1
64ca: 7a00 00ff f46c            mov.l   #h'00fff46c, er0
64d0: 7a11 0208 0000            add.l   #h'02080000, er1
64d6: 5e00 7116                 jsr     h'007116
64da: 6f42 0002                 mov.w   @(h'2, er4), r2
64de: 4714                      beq     h'0064f4
64e0: 18aa                      sub.b   r2l, r2l
64e2: 6eca 000c                 mov.b   r2l, @(h'c, er4)
64e6: 0fc0                      mov.l   er4, er0
64e8: 5e00 701e                 jsr     h'00701e
64ec: 0fc0                      mov.l   er4, er0
64ee: 5e00 6dd8                 jsr     h'006dd8
64f2: 400c                      bt      h'006500
64f4: 0fc0                      mov.l   er4, er0
64f6: 5e00 6fe6                 jsr     h'006fe6
64fa: 0fc0                      mov.l   er4, er0
64fc: 5e00 6d98                 jsr     h'006d98
6500: 0100 6d74                 mov.l   @sp+, er4
6504: 5470                      rts
6506: 0100 6df4                 mov.l   er4, @-sp
650a: 0f84                      mov.l   er0, er4
650c: 6e49 0004                 mov.b   @(h'4, er4), r1l
6510: 7a61 0209 00ff            and.l   #h'020900ff, er1
6516: 7a00 00ff f46c            mov.l   #h'00fff46c, er0
651c: 7a41 0209 0000            or.l    #h'02090000, er1
6522: 5e00 7116                 jsr     h'007116
6526: 0100 6f42 0004            mov.l   @(h'4, er4), er2
652c: 7a62 1f00 ff00            and.l   #h'1f00ff00, er2
6532: 7a22 0200 0000            cmp.l   #h'02000000, er2
6538: 4622                      bne     h'00655c
653a: 6e4a 0008                 mov.b   @(h'8, er4), r2l
653e: ea8f                      and.b   #h'8f, r2l
6540: e200                      and.b   #h'00, r2h
6542: 7922 0002                 cmp.w   #h'0002, r2
6546: 470e                      beq     h'006556
6548: 7922 0081                 cmp.w   #h'0081, r2
654c: 460e                      bne     h'00655c
654e: 0fc0                      mov.l   er4, er0
6550: 5e00 701e                 jsr     h'00701e
6554: 4006                      bt      h'00655c
6556: 0fc0                      mov.l   er4, er0
6558: 5e00 6dd8                 jsr     h'006dd8
655c: 0100 6d74                 mov.l   @sp+, er4
6560: 5470                      rts
6562: 0100 6df4                 mov.l   er4, @-sp
6566: 0f84                      mov.l   er0, er4
6568: 6e49 0004                 mov.b   @(h'4, er4), r1l
656c: 7a61 020a 00ff            and.l   #h'020a00ff, er1
6572: 7a00 00ff f46c            mov.l   #h'00fff46c, er0
6578: 7a41 020a 0000            or.l    #h'020a0000, er1
657e: 5e00 7116                 jsr     h'007116
6582: 0100 6f42 0004            mov.l   @(h'4, er4), er2
6588: 7a62 1f00 ff00            and.l   #h'1f00ff00, er2
658e: 7a22 0200 0000            cmp.l   #h'02000000, er2
6594: 4626                      bne     h'0065bc
6596: 6e4a 0008                 mov.b   @(h'8, er4), r2l
659a: ea8f                      and.b   #h'8f, r2l
659c: e200                      and.b   #h'00, r2h
659e: 7922 0002                 cmp.w   #h'0002, r2
65a2: 4710                      beq     h'0065b4
65a4: 7922 0081                 cmp.w   #h'0081, r2
65a8: 4612                      bne     h'0065bc
65aa: f901                      mov.b   #h'01, r1l
65ac: 0fc0                      mov.l   er4, er0
65ae: 5e00 7088                 jsr     h'007088
65b2: 4008                      bt      h'0065bc
65b4: f901                      mov.b   #h'01, r1l
65b6: 0fc0                      mov.l   er4, er0
65b8: 5e00 6e60                 jsr     h'006e60
65bc: 0100 6d74                 mov.l   @sp+, er4
65c0: 5470                      rts
65c2: 0120 6df4                 stm.l   er4-er6, @-sp
65c6: 0f85                      mov.l   er0, er5
65c8: fa26                      mov.b   #h'26, r2l
65ca: 6aaa 0020 0003            mov.b   r2l, @h'200003
65d0: 0000                      nop
65d2: 0000                      nop
65d4: 0000                      nop
65d6: 0000                      nop
65d8: 6a2b 0020 0000            mov.b   @h'200000, r3l
65de: 736b                      btst    #6, r3l
65e0: 5870 010c                 beq     h'0066f0
65e4: 1911                      sub.w   r1, r1
65e6: fa25                      mov.b   #h'25, r2l
65e8: 7a06 0020 0003            mov.l   #h'00200003, er6
65ee: 68ea                      mov.b   r2l, @er6
65f0: 0000                      nop
65f2: 0000                      nop
65f4: 0000                      nop
65f6: 0000                      nop
65f8: 6a28 0020 0000            mov.b   @h'200000, r0l
65fe: f000                      mov.b   #h'00, r0h
6600: 0d13                      mov.w   r1, r3
6602: 17f3                      exts.l  er3
6604: 0fd4                      mov.l   er5, er4
6606: 0b94                      adds.l  #4, er4
6608: 0fc2                      mov.l   er4, er2
660a: 0ab2                      add.l   er3, er2
660c: 68a8                      mov.b   r0l, @er2
660e: 0b01                      adds.l  #1, er1
6610: 7921 0007                 cmp.w   #h'0007, r1
6614: 4fd0                      ble     h'0065e6
6616: fa23                      mov.b   #h'23, r2l
6618: f808                      mov.b   #h'08, r0l
661a: 68ea                      mov.b   r2l, @er6
661c: 0000                      nop
661e: 0000                      nop
6620: 0000                      nop
6622: 0000                      nop
6624: 7a03 0020 0000            mov.l   #h'00200000, er3
662a: 68b8                      mov.b   r0l, @er3
662c: fa27                      mov.b   #h'27, r2l
662e: 1888                      sub.b   r0l, r0l
6630: 68ea                      mov.b   r2l, @er6
6632: 0000                      nop
6634: 0000                      nop
6636: 0000                      nop
6638: 0000                      nop
663a: 68b8                      mov.b   r0l, @er3
663c: 684a                      mov.b   @er4, r2l
663e: ea60                      and.b   #h'60, r2l
6640: 5860 008c                 bne     h'0066d0
6644: 6e5b 0005                 mov.b   @(h'5, er5), r3l
6648: f300                      mov.b   #h'00, r3h
664a: 0d32                      mov.w   r3, r2
664c: 1b02                      subs.l  #1, er2
664e: 7922 0008                 cmp.w   #h'0008, r2
6652: 4266                      bhi     h'0066ba
6654: 1772                      extu.l  er2
6656: 1072                      shll.l  #2, er2
6658: 0100 7820 6b22 0000 47d8  mov.l   @(h'47d8, er2), er2
6662: 5920                      jmp     er2
6664: 4054                      bt      h'0066ba
6666: 0fd0                      mov.l   er5, er0
6668: 5e00 63e4                 jsr     h'0063e4
666c: 4062                      bt      h'0066d0
666e: fa20                      mov.b   #h'20, r2l
6670: f840                      mov.b   #h'40, r0l
6672: 7a03 0020 0003            mov.l   #h'00200003, er3
6678: 68ba                      mov.b   r2l, @er3
667a: 0000                      nop
667c: 0000                      nop
667e: 0000                      nop
6680: 0000                      nop
6682: 6aa8 0020 0000            mov.b   r0l, @h'200000
6688: 6e58 0006                 mov.b   @(h'6, er5), r0l
668c: c880                      or.b    #h'80, r0l
668e: fa04                      mov.b   #h'04, r2l
6690: 68ba                      mov.b   r2l, @er3
6692: 0000                      nop
6694: 0000                      nop
6696: 0000                      nop
6698: 0000                      nop
669a: 6aa8 0020 0000            mov.b   r0l, @h'200000
66a0: 402e                      bt      h'0066d0
66a2: 0fd0                      mov.l   er5, er0
66a4: 5e00 64b6                 jsr     h'0064b6
66a8: 4026                      bt      h'0066d0
66aa: 0fd0                      mov.l   er5, er0
66ac: 5e00 6506                 jsr     h'006506
66b0: 401e                      bt      h'0066d0
66b2: 0fd0                      mov.l   er5, er0
66b4: 5e00 6562                 jsr     h'006562
66b8: 4016                      bt      h'0066d0
66ba: 0100 6df3                 mov.l   er3, @-sp
66be: 7a02 0000 47b4            mov.l   #h'000047b4, er2
66c4: 0100 6df2                 mov.l   er2, @-sp
66c8: 5e00 5a20                 jsr     h'005a20
66cc: 0b97                      adds.l  #4, sp
66ce: 0b97                      adds.l  #4, sp
66d0: fa23                      mov.b   #h'23, r2l
66d2: fb05                      mov.b   #h'05, r3l
66d4: 6aaa 0020 0003            mov.b   r2l, @h'200003
66da: 0000                      nop
66dc: 0000                      nop
66de: 0000                      nop
66e0: 0000                      nop
66e2: 6aab 0020 0000            mov.b   r3l, @h'200000
66e8: 18aa                      sub.b   r2l, r2l
66ea: 6eda 000c                 mov.b   r2l, @(h'c, er5)
66ee: 405a                      bt      h'00674a
66f0: 6e5a 000d                 mov.b   @(h'd, er5), r2l
66f4: 473c                      beq     h'006732
66f6: eb1f                      and.b   #h'1f, r3l
66f8: 7a00 00ff f46c            mov.l   #h'00fff46c, er0
66fe: ab10                      cmp.b   #h'10, r3l
6700: 4708                      beq     h'00670a
6702: 7a01 0203 ffff            mov.l   #h'0203ffff, er1
6708: 4006                      bt      h'006710
670a: 7a01 0204 0000            mov.l   #h'02040000, er1
6710: 5e00 7116                 jsr     h'007116
6714: 18aa                      sub.b   r2l, r2l
6716: 6eda 000d                 mov.b   r2l, @(h'd, er5)
671a: fa23                      mov.b   #h'23, r2l
671c: fb08                      mov.b   #h'08, r3l
671e: 6aaa 0020 0003            mov.b   r2l, @h'200003
6724: 0000                      nop
6726: 0000                      nop
6728: 0000                      nop
672a: 0000                      nop
672c: 6aab 0020 0000            mov.b   r3l, @h'200000
6732: fa27                      mov.b   #h'27, r2l
6734: fb01                      mov.b   #h'01, r3l
6736: 6aaa 0020 0003            mov.b   r2l, @h'200003
673c: 0000                      nop
673e: 0000                      nop
6740: 0000                      nop
6742: 0000                      nop
6744: 6aab 0020 0000            mov.b   r3l, @h'200000
674a: 0120 6d76                 ldm.l   @sp+, er4-er6
674e: 5470                      rts
6750: 0100 6df4                 mov.l   er4, @-sp
6754: 0f84                      mov.l   er0, er4
6756: 7a00 00ff f46c            mov.l   #h'00fff46c, er0
675c: 7a01 0205 0000            mov.l   #h'02050000, er1
6762: 5e00 7116                 jsr     h'007116
6766: 6e4a 000d                 mov.b   @(h'd, er4), r2l
676a: 4732                      beq     h'00679e
676c: 18aa                      sub.b   r2l, r2l
676e: 6eca 000d                 mov.b   r2l, @(h'd, er4)
6772: fa23                      mov.b   #h'23, r2l
6774: f808                      mov.b   #h'08, r0l
6776: 7a01 0020 0003            mov.l   #h'00200003, er1
677c: 689a                      mov.b   r2l, @er1
677e: 0000                      nop
6780: 0000                      nop
6782: 0000                      nop
6784: 0000                      nop
6786: 7a03 0020 0000            mov.l   #h'00200000, er3
678c: 68b8                      mov.b   r0l, @er3
678e: fa27                      mov.b   #h'27, r2l
6790: f801                      mov.b   #h'01, r0l
6792: 689a                      mov.b   r2l, @er1
6794: 0000                      nop
6796: 0000                      nop
6798: 0000                      nop
679a: 0000                      nop
679c: 68b8                      mov.b   r0l, @er3
679e: 0100 6d74                 mov.l   @sp+, er4
67a2: 5470                      rts
67a4: fa22                      mov.b   #h'22, r2l
67a6: 7a01 0020 0003            mov.l   #h'00200003, er1
67ac: 689a                      mov.b   r2l, @er1
67ae: 0000                      nop
67b0: 0000                      nop
67b2: 0000                      nop
67b4: 0000                      nop
67b6: 6a2a 0020 0000            mov.b   @h'200000, r2l
67bc: ea60                      and.b   #h'60, r2l
67be: aa60                      cmp.b   #h'60, r2l
67c0: 5860 00d8                 bne     h'00689c
67c4: fa23                      mov.b   #h'23, r2l
67c6: fb08                      mov.b   #h'08, r3l
67c8: 6aaa 0020 0003            mov.b   r2l, @h'200003
67ce: 0000                      nop
67d0: 0000                      nop
67d2: 0000                      nop
67d4: 0000                      nop
67d6: 6aab 0020 0000            mov.b   r3l, @h'200000
67dc: 6e0a 000d                 mov.b   @(h'd, er0), r2l
67e0: 5870 00a2                 beq     h'006886
67e4: 6f03 0014                 mov.w   @(h'14, er0), r3
67e8: 0d31                      mov.w   r3, r1
67ea: 0b91                      adds.l  #4, er1
67ec: 0b91                      adds.l  #4, er1
67ee: 1d13                      cmp.w   r1, r3
67f0: 4c3e                      bge     h'006830
67f2: 6f02 0016                 mov.w   @(h'16, er0), r2
67f6: 1d23                      cmp.w   r2, r3
67f8: 4c36                      bge     h'006830
67fa: 6f03 0014                 mov.w   @(h'14, er0), r3
67fe: 17f3                      exts.l  er3
6800: 0100 6f02 0010            mov.l   @(h'10, er0), er2
6806: 0ab2                      add.l   er3, er2
6808: fb21                      mov.b   #h'21, r3l
680a: 682a                      mov.b   @er2, r2l
680c: 6aab 0020 0003            mov.b   r3l, @h'200003
6812: 0000                      nop
6814: 0000                      nop
6816: 0000                      nop
6818: 0000                      nop
681a: 6aaa 0020 0000            mov.b   r2l, @h'200000
6820: 6f02 0014                 mov.w   @(h'14, er0), r2
6824: 0b02                      adds.l  #1, er2
6826: 6f82 0014                 mov.w   r2, @(h'14, er0)
682a: 0d23                      mov.w   r2, r3
682c: 1d13                      cmp.w   r1, r3
682e: 4dc2                      blt     h'0067f2
6830: 6e0a 000c                 mov.b   @(h'c, er0), r2l
6834: 4720                      beq     h'006856
6836: fa23                      mov.b   #h'23, r2l
6838: fb05                      mov.b   #h'05, r3l
683a: 6aaa 0020 0003            mov.b   r2l, @h'200003
6840: 0000                      nop
6842: 0000                      nop
6844: 0000                      nop
6846: 0000                      nop
6848: 6aab 0020 0000            mov.b   r3l, @h'200000
684e: 18aa                      sub.b   r2l, r2l
6850: 6e8a 000c                 mov.b   r2l, @(h'c, er0)
6854: 401c                      bt      h'006872
6856: fa23                      mov.b   #h'23, r2l
6858: fb01                      mov.b   #h'01, r3l
685a: 6aaa 0020 0003            mov.b   r2l, @h'200003
6860: 0000                      nop
6862: 0000                      nop
6864: 0000                      nop
6866: 0000                      nop
6868: 6aab 0020 0000            mov.b   r3l, @h'200000
686e: 6e8b 000c                 mov.b   r3l, @(h'c, er0)
6872: 6f01 0014                 mov.w   @(h'14, er0), r1
6876: 17f1                      exts.l  er1
6878: 7a00 00ff f46c            mov.l   #h'00fff46c, er0
687e: 7a11 0206 0000            add.l   #h'02060000, er1
6884: 4022                      bt      h'0068a8
6886: fa27                      mov.b   #h'27, r2l
6888: fb01                      mov.b   #h'01, r3l
688a: 689a                      mov.b   r2l, @er1
688c: 0000                      nop
688e: 0000                      nop
6890: 0000                      nop
6892: 0000                      nop
6894: 6aab 0020 0000            mov.b   r3l, @h'200000
689a: 4010                      bt      h'0068ac
689c: 7a00 00ff f46c            mov.l   #h'00fff46c, er0
68a2: 7a01 0207 ffff            mov.l   #h'0207ffff, er1
68a8: 5e00 7116                 jsr     h'007116
68ac: 5470                      rts
68ae: 0110 6df4                 stm.l   er4-er5, @-sp
68b2: 0f84                      mov.l   er0, er4
68b4: fa06                      mov.b   #h'06, r2l
68b6: 7a03 0020 0003            mov.l   #h'00200003, er3
68bc: 68ba                      mov.b   r2l, @er3
68be: 0000                      nop
68c0: 0000                      nop
68c2: 0000                      nop
68c4: 0000                      nop
68c6: 6a2d 0020 0000            mov.b   @h'200000, r5l
68cc: 0cda                      mov.b   r5l, r2l
68ce: ea56                      and.b   #h'56, r2l
68d0: 5870 00b2                 beq     h'006986
68d4: 734d                      btst    #4, r5l
68d6: 4740                      beq     h'006918
68d8: fa0e                      mov.b   #h'0e, r2l
68da: 68ba                      mov.b   r2l, @er3
68dc: 0000                      nop
68de: 0000                      nop
68e0: 0000                      nop
68e2: 0000                      nop
68e4: 6a29 0020 0000            mov.b   @h'200000, r1l
68ea: 7349                      btst    #4, r1l
68ec: 4708                      beq     h'0068f6
68ee: 0fc0                      mov.l   er4, er0
68f0: 5e00 6750                 jsr     h'006750
68f4: 4022                      bt      h'006918
68f6: 7319                      btst    #1, r1l
68f8: 4708                      beq     h'006902
68fa: 0fc0                      mov.l   er4, er0
68fc: 5e00 6f08                 jsr     h'006f08
6900: 4016                      bt      h'006918
6902: 7a61 0800 00ff            and.l   #h'080000ff, er1
6908: 7a41 0800 0000            or.l    #h'08000000, er1
690e: 7a00 00ff f46c            mov.l   #h'00fff46c, er0
6914: 5e00 7116                 jsr     h'007116
6918: 736d                      btst    #6, r5l
691a: 472a                      beq     h'006946
691c: fa0c                      mov.b   #h'0c, r2l
691e: 6aaa 0020 0003            mov.b   r2l, @h'200003
6924: 0000                      nop
6926: 0000                      nop
6928: 0000                      nop
692a: 0000                      nop
692c: 6a2a 0020 0000            mov.b   @h'200000, r2l
6932: 730a                      btst    #0, r2l
6934: 4708                      beq     h'00693e
6936: 0fc0                      mov.l   er4, er0
6938: 5e00 65c2                 jsr     h'0065c2
693c: 4008                      bt      h'006946
693e: 731a                      btst    #1, r2l
6940: 4704                      beq     h'006946
6942: 0fc0                      mov.l   er4, er0
6944: 5546                      bsr     h'00698c
6946: 732d                      btst    #2, r5l
6948: 472c                      beq     h'006976
694a: fa0a                      mov.b   #h'0a, r2l
694c: 6aaa 0020 0003            mov.b   r2l, @h'200003
6952: 0000                      nop
6954: 0000                      nop
6956: 0000                      nop
6958: 0000                      nop
695a: 6a2a 0020 0000            mov.b   @h'200000, r2l
6960: 730a                      btst    #0, r2l
6962: 4708                      beq     h'00696c
6964: 0fc0                      mov.l   er4, er0
6966: 5e00 67a4                 jsr     h'0067a4
696a: 400a                      bt      h'006976
696c: 731a                      btst    #1, r2l
696e: 4706                      beq     h'006976
6970: 0fc0                      mov.l   er4, er0
6972: 5e00 6f10                 jsr     h'006f10
6976: 731d                      btst    #1, r5l
6978: 5870 ff38                 beq     h'0068b4
697c: 0fc0                      mov.l   er4, er0
697e: 5e00 631e                 jsr     h'00631e
6982: 5800 ff2e                 bt      h'0068b4
6986: 0110 6d75                 ldm.l   @sp+, er4-er5
698a: 5470                      rts
698c: 7a37 0000 0018            sub.l   #h'00000018, sp
6992: 0120 6df4                 stm.l   er4-er6, @-sp
6996: 0f85                      mov.l   er0, er5
6998: fa2e                      mov.b   #h'2e, r2l
699a: 6aaa 0020 0003            mov.b   r2l, @h'200003
69a0: 0000                      nop
69a2: 0000                      nop
69a4: 0000                      nop
69a6: 0000                      nop
69a8: 6a2a 0020 0000            mov.b   @h'200000, r2l
69ae: 736a                      btst    #6, r2l
69b0: 4714                      beq     h'0069c6
69b2: 7a00 00ff f46c            mov.l   #h'00fff46c, er0
69b8: 7a01 0380 0000            mov.l   #h'03800000, er1
69be: 5e00 7116                 jsr     h'007116
69c2: 5800 039c                 bt      h'006d62
69c6: 0caa                      mov.b   r2l, r2l
69c8: 4c14                      bge     h'0069de
69ca: 7a00 00ff f46c            mov.l   #h'00fff46c, er0
69d0: 7a01 0381 0000            mov.l   #h'03810000, er1
69d6: 5e00 7116                 jsr     h'007116
69da: 5800 0384                 bt      h'006d62
69de: 1966                      sub.w   r6, r6
69e0: 0d20                      mov.w   r2, r0
69e2: 4042                      bt      h'006a26
69e4: fa2d                      mov.b   #h'2d, r2l
69e6: 6aaa 0020 0003            mov.b   r2l, @h'200003
69ec: 0000                      nop
69ee: 0000                      nop
69f0: 0000                      nop
69f2: 0000                      nop
69f4: 6a2b 0020 0000            mov.b   @h'200000, r3l
69fa: f300                      mov.b   #h'00, r3h
69fc: 0d62                      mov.w   r6, r2
69fe: 17f2                      exts.l  er2
6a00: 7820 6aab 00ff f42c       mov.b   r3l, @(h'fff42c, er2)
6a08: 0b06                      adds.l  #1, er6
6a0a: 1b00                      subs.l  #1, er0
6a0c: 0d00                      mov.w   r0, r0
6a0e: 461a                      bne     h'006a2a
6a10: fa2e                      mov.b   #h'2e, r2l
6a12: 6aaa 0020 0003            mov.b   r2l, @h'200003
6a18: 0000                      nop
6a1a: 0000                      nop
6a1c: 0000                      nop
6a1e: 0000                      nop
6a20: 6a28 0020 0000            mov.b   @h'200000, r0l
6a26: e80f                      and.b   #h'0f, r0l
6a28: e000                      and.b   #h'00, r0h
6a2a: 0d00                      mov.w   r0, r0
6a2c: 4eb6                      bgt     h'0069e4
6a2e: 0d63                      mov.w   r6, r3
6a30: 17f3                      exts.l  er3
6a32: 0100 6ff3 0014            mov.l   er3, @(h'14, sp)
6a38: 0fb1                      mov.l   er3, er1
6a3a: 7a11 0300 0000            add.l   #h'03000000, er1
6a40: 7a00 00ff f46c            mov.l   #h'00fff46c, er0
6a46: 5e00 7116                 jsr     h'007116
6a4a: 6f52 001c                 mov.w   @(h'1c, er5), r2
6a4e: 5860 01a0                 bne     h'006bf2
6a52: 6a0a f42c                 mov.b   @h'fff42c, r2l
6a56: 6eda 001e                 mov.b   r2l, @(h'1e, er5)
6a5a: f200                      mov.b   #h'00, r2h
6a5c: 7922 003c                 cmp.w   #h'003c, r2
6a60: 4726                      beq     h'006a88
6a62: 4e0a                      bgt     h'006a6e
6a64: 7922 001e                 cmp.w   #h'001e, r2
6a68: 470e                      beq     h'006a78
6a6a: 5800 02f4                 bt      h'006d62
6a6e: 7922 005a                 cmp.w   #h'005a, r2
6a72: 475a                      beq     h'006ace
6a74: 5800 02ea                 bt      h'006d62
6a78: 7926 0001                 cmp.w   #h'0001, r6
6a7c: 5860 02da                 bne     h'006d5a
6a80: 7902 0002                 mov.w   #h'0002, r2
6a84: 5800 02d6                 bt      h'006d5e
6a88: 7926 000d                 cmp.w   #h'000d, r6
6a8c: 5860 02ca                 bne     h'006d5a
6a90: 7a01 00ff f42d            mov.l   #h'00fff42d, er1
6a96: 0fd0                      mov.l   er5, er0
6a98: 5e00 6132                 jsr     h'006132
6a9c: 0100 6fd0 0020            mov.l   er0, @(h'20, er5)
6aa2: 7a01 00ff f431            mov.l   #h'00fff431, er1
6aa8: 0fd0                      mov.l   er5, er0
6aaa: 5e00 6132                 jsr     h'006132
6aae: 0100 6fd0 0024            mov.l   er0, @(h'24, er5)
6ab4: 7a01 00ff f435            mov.l   #h'00fff435, er1
6aba: 0fd0                      mov.l   er5, er0
6abc: 5e00 6132                 jsr     h'006132
6ac0: 0100 6fd0 0028            mov.l   er0, @(h'28, er5)
6ac6: 7902 0002                 mov.w   #h'0002, r2
6aca: 5800 0290                 bt      h'006d5e
6ace: 7926 0007                 cmp.w   #h'0007, r6
6ad2: 58f0 0284                 ble     h'006d5a
6ad6: 7a01 00ff f42d            mov.l   #h'00fff42d, er1
6adc: 0fd0                      mov.l   er5, er0
6ade: 5e00 6122                 jsr     h'006122
6ae2: 6fd0 002c                 mov.w   r0, @(h'2c, er5)
6ae6: 7a01 00ff f42f            mov.l   #h'00fff42f, er1
6aec: 0fd0                      mov.l   er5, er0
6aee: 5e00 6122                 jsr     h'006122
6af2: 6fd0 002e                 mov.w   r0, @(h'2e, er5)
6af6: 0d01                      mov.w   r0, r1
6af8: 17f1                      exts.l  er1
6afa: 7a11 0301 0000            add.l   #h'03010000, er1
6b00: 7a00 00ff f46c            mov.l   #h'00fff46c, er0
6b06: 5e00 7116                 jsr     h'007116
6b0a: 6ff6 000e                 mov.w   r6, @(h'e, sp)
6b0e: 0d64                      mov.w   r6, r4
6b10: 1b94                      subs.l  #4, er4
6b12: 1b04                      subs.l  #1, er4
6b14: 6ff4 000e                 mov.w   r4, @(h'e, sp)
6b18: 6f52 002e                 mov.w   @(h'2e, er5), r2
6b1c: 1d24                      cmp.w   r2, r4
6b1e: 58e0 0238                 bgt     h'006d5a
6b22: 0100 6f50 0034            mov.l   @(h'34, er5), er0
6b28: 7a01 00ff f431            mov.l   #h'00fff431, er1
6b2e: 6f72 000e                 mov.w   @(h'e, sp), r2
6b32: 17f2                      exts.l  er2
6b34: 5e00 120c                 jsr     h'00120c
6b38: 6f73 000e                 mov.w   @(h'e, sp), r3
6b3c: 6fd3 0030                 mov.w   r3, @(h'30, er5)
6b40: 6f52 002e                 mov.w   @(h'2e, er5), r2
6b44: 1d23                      cmp.w   r2, r3
6b46: 4c08                      bge     h'006b50
6b48: 7902 0001                 mov.w   #h'0001, r2
6b4c: 5800 020e                 bt      h'006d5e
6b50: 7916 fff9                 add.w   #h'fff9, r6
6b54: 6fd6 0030                 mov.w   r6, @(h'30, er5)
6b58: 0ff2                      mov.l   sp, er2
6b5a: 7a12 0000 0022            add.l   #h'00000022, er2
6b60: 7903 ffff                 mov.w   #h'ffff, r3
6b64: 69a3                      mov.w   r3, @er2
6b66: 6f50 0030                 mov.w   @(h'30, er5), r0
6b6a: 17f0                      exts.l  er0
6b6c: 0100 6ff2 001c            mov.l   er2, @(h'1c, sp)
6b72: 0100 6f56 0034            mov.l   @(h'34, er5), er6
6b78: 6ff3 0016                 mov.w   r3, @(h'16, sp)
6b7c: 0f81                      mov.l   er0, er1
6b7e: 1b01                      subs.l  #1, er1
6b80: 0f80                      mov.l   er0, er0
6b82: 4740                      beq     h'006bc4
6b84: 6f74 0016                 mov.w   @(h'16, sp), r4
6b88: 6ff4 000e                 mov.w   r4, @(h'e, sp)
6b8c: 6f73 000e                 mov.w   @(h'e, sp), r3
6b90: 0c3b                      mov.b   r3h, r3l
6b92: 1833                      sub.b   r3h, r3h
6b94: 6ff3 000e                 mov.w   r3, @(h'e, sp)
6b98: 6c6a                      mov.b   @er6+, r2l
6b9a: f200                      mov.b   #h'00, r2h
6b9c: 6f73 0016                 mov.w   @(h'16, sp), r3
6ba0: 6523                      xor.w   r2, r3
6ba2: 0d32                      mov.w   r3, r2
6ba4: 1032                      shll.l  er2
6ba6: 7a62 0000 01fe            and.l   #h'000001fe, er2
6bac: 7820 6b22 0000 0930       mov.w   @(h'930, er2), r2
6bb4: 6f74 000e                 mov.w   @(h'e, sp), r4
6bb8: 6524                      xor.w   r2, r4
6bba: 6ff4 0016                 mov.w   r4, @(h'16, sp)
6bbe: 0f92                      mov.l   er1, er2
6bc0: 1b01                      subs.l  #1, er1
6bc2: 46c0                      bne     h'006b84
6bc4: 6f74 0016                 mov.w   @(h'16, sp), r4
6bc8: 0100 6f73 001c            mov.l   @(h'1c, sp), er3
6bce: 69b4                      mov.w   r4, @er3
6bd0: 6f52 0030                 mov.w   @(h'30, er5), r2
6bd4: 17f2                      exts.l  er2
6bd6: 0100 6f51 0034            mov.l   @(h'34, er5), er1
6bdc: 0aa1                      add.l   er2, er1
6bde: 0fd0                      mov.l   er5, er0
6be0: 5e00 6122                 jsr     h'006122
6be4: 1d04                      cmp.w   r0, r4
6be6: 5860 0170                 bne     h'006d5a
6bea: 7902 0002                 mov.w   #h'0002, r2
6bee: 5800 016c                 bt      h'006d5e
6bf2: 7922 0001                 cmp.w   #h'0001, r2
6bf6: 5860 0148                 bne     h'006d42
6bfa: 6f51 0030                 mov.w   @(h'30, er5), r1
6bfe: 17f1                      exts.l  er1
6c00: 0100 6f73 0014            mov.l   @(h'14, sp), er3
6c06: 7a13 0302 0000            add.l   #h'03020000, er3
6c0c: 0ab1                      add.l   er3, er1
6c0e: 7a13 fcfe 0000            add.l   #h'fcfe0000, er3
6c14: 0100 6ff3 0014            mov.l   er3, @(h'14, sp)
6c1a: 7a00 00ff f46c            mov.l   #h'00fff46c, er0
6c20: 5e00 7116                 jsr     h'007116
6c24: 6f52 0030                 mov.w   @(h'30, er5), r2
6c28: 0962                      add.w   r6, r2
6c2a: 6f54 002e                 mov.w   @(h'2e, er5), r4
6c2e: 1d42                      cmp.w   r4, r2
6c30: 58e0 0126                 bgt     h'006d5a
6c34: 6f52 0030                 mov.w   @(h'30, er5), r2
6c38: 17f2                      exts.l  er2
6c3a: 0100 6f50 0034            mov.l   @(h'34, er5), er0
6c40: 0aa0                      add.l   er2, er0
6c42: 7a01 00ff f42c            mov.l   #h'00fff42c, er1
6c48: 0100 6f72 0014            mov.l   @(h'14, sp), er2
6c4e: 5e00 120c                 jsr     h'00120c
6c52: 6f50 0030                 mov.w   @(h'30, er5), r0
6c56: 0960                      add.w   r6, r0
6c58: 6fd0 0030                 mov.w   r0, @(h'30, er5)
6c5c: 6f52 002e                 mov.w   @(h'2e, er5), r2
6c60: 1d20                      cmp.w   r2, r0
6c62: 5860 00fc                 bne     h'006d62
6c66: 1b80                      subs.l  #2, er0
6c68: 6fd0 0030                 mov.w   r0, @(h'30, er5)
6c6c: 0ff2                      mov.l   sp, er2
6c6e: 7a12 0000 0020            add.l   #h'00000020, er2
6c74: 7903 ffff                 mov.w   #h'ffff, r3
6c78: 69a3                      mov.w   r3, @er2
6c7a: 6f50 0030                 mov.w   @(h'30, er5), r0
6c7e: 17f0                      exts.l  er0
6c80: 0100 6ff2 0018            mov.l   er2, @(h'18, sp)
6c86: 0100 6f56 0034            mov.l   @(h'34, er5), er6
6c8c: 6ff3 0016                 mov.w   r3, @(h'16, sp)
6c90: 0f81                      mov.l   er0, er1
6c92: 1b01                      subs.l  #1, er1
6c94: 0f80                      mov.l   er0, er0
6c96: 4740                      beq     h'006cd8
6c98: 6f73 0016                 mov.w   @(h'16, sp), r3
6c9c: 6ff3 000e                 mov.w   r3, @(h'e, sp)
6ca0: 6f74 000e                 mov.w   @(h'e, sp), r4
6ca4: 0c4c                      mov.b   r4h, r4l
6ca6: 1844                      sub.b   r4h, r4h
6ca8: 6ff4 000e                 mov.w   r4, @(h'e, sp)
6cac: 6c6a                      mov.b   @er6+, r2l
6cae: f200                      mov.b   #h'00, r2h
6cb0: 6f74 0016                 mov.w   @(h'16, sp), r4
6cb4: 6524                      xor.w   r2, r4
6cb6: 0d42                      mov.w   r4, r2
6cb8: 1032                      shll.l  er2
6cba: 7a62 0000 01fe            and.l   #h'000001fe, er2
6cc0: 7820 6b22 0000 0930       mov.w   @(h'930, er2), r2
6cc8: 6f73 000e                 mov.w   @(h'e, sp), r3
6ccc: 6523                      xor.w   r2, r3
6cce: 6ff3 0016                 mov.w   r3, @(h'16, sp)
6cd2: 0f92                      mov.l   er1, er2
6cd4: 1b01                      subs.l  #1, er1
6cd6: 46c0                      bne     h'006c98
6cd8: 6f73 0016                 mov.w   @(h'16, sp), r3
6cdc: 0100 6f74 0018            mov.l   @(h'18, sp), er4
6ce2: 69c3                      mov.w   r3, @er4
6ce4: 0d31                      mov.w   r3, r1
6ce6: 1771                      extu.l  er1
6ce8: 7a41 0303 0000            or.l    #h'03030000, er1
6cee: 7a00 00ff f46c            mov.l   #h'00fff46c, er0
6cf4: 5e00 7116                 jsr     h'007116
6cf8: 6f52 0030                 mov.w   @(h'30, er5), r2
6cfc: 17f2                      exts.l  er2
6cfe: 0100 6f51 0034            mov.l   @(h'34, er5), er1
6d04: 0aa1                      add.l   er2, er1
6d06: 0fd0                      mov.l   er5, er0
6d08: 5e00 6122                 jsr     h'006122
6d0c: 0d01                      mov.w   r0, r1
6d0e: 1771                      extu.l  er1
6d10: 7a41 0304 0000            or.l    #h'03040000, er1
6d16: 7a00 00ff f46c            mov.l   #h'00fff46c, er0
6d1c: 5e00 7116                 jsr     h'007116
6d20: 6f52 0030                 mov.w   @(h'30, er5), r2
6d24: 17f2                      exts.l  er2
6d26: 0100 6f51 0034            mov.l   @(h'34, er5), er1
6d2c: 0aa1                      add.l   er2, er1
6d2e: 0fd0                      mov.l   er5, er0
6d30: 5e00 6122                 jsr     h'006122
6d34: 6f74 0016                 mov.w   @(h'16, sp), r4
6d38: 1d04                      cmp.w   r0, r4
6d3a: 461e                      bne     h'006d5a
6d3c: 7902 0002                 mov.w   #h'0002, r2
6d40: 401c                      bt      h'006d5e
6d42: 6a0a f42c                 mov.b   @h'fff42c, r2l
6d46: 6eda 001e                 mov.b   r2l, @(h'1e, er5)
6d4a: aa1e                      cmp.b   #h'1e, r2l
6d4c: 460c                      bne     h'006d5a
6d4e: 7926 0001                 cmp.w   #h'0001, r6
6d52: 4606                      bne     h'006d5a
6d54: 7902 0002                 mov.w   #h'0002, r2
6d58: 4004                      bt      h'006d5e
6d5a: 7902 0003                 mov.w   #h'0003, r2
6d5e: 6fd2 001c                 mov.w   r2, @(h'1c, er5)
6d62: f92f                      mov.b   #h'2f, r1l
6d64: f808                      mov.b   #h'08, r0l
6d66: 7a03 0020 0003            mov.l   #h'00200003, er3
6d6c: 68b9                      mov.b   r1l, @er3
6d6e: 0000                      nop
6d70: 0000                      nop
6d72: 0000                      nop
6d74: 0000                      nop
6d76: 7a02 0020 0000            mov.l   #h'00200000, er2
6d7c: 68a8                      mov.b   r0l, @er2
6d7e: f801                      mov.b   #h'01, r0l
6d80: 68b9                      mov.b   r1l, @er3
6d82: 0000                      nop
6d84: 0000                      nop
6d86: 0000                      nop
6d88: 0000                      nop
6d8a: 68a8                      mov.b   r0l, @er2
6d8c: 0120 6d76                 ldm.l   @sp+, er4-er6
6d90: 7a17 0000 0018            add.l   #h'00000018, sp
6d96: 5470                      rts
6d98: 0100 6df4                 mov.l   er4, @-sp
6d9c: 0f84                      mov.l   er0, er4
6d9e: fa2f                      mov.b   #h'2f, r2l
6da0: fb08                      mov.b   #h'08, r3l
6da2: 6aaa 0020 0003            mov.b   r2l, @h'200003
6da8: 0000                      nop
6daa: 0000                      nop
6dac: 0000                      nop
6dae: 0000                      nop
6db0: 6aab 0020 0000            mov.b   r3l, @h'200000
6db6: fa02                      mov.b   #h'02, r2l
6db8: 6eca 001a                 mov.b   r2l, @(h'1a, er4)
6dbc: 1899                      sub.b   r1l, r1l
6dbe: 5572                      bsr     h'006e32
6dc0: 1922                      sub.w   r2, r2
6dc2: 6fc2 001c                 mov.w   r2, @(h'1c, er4)
6dc6: 1aa2                      sub.l   er2, er2
6dc8: 0100 6fc2 0024            mov.l   er2, @(h'24, er4)
6dce: 6fc2 0030                 mov.w   r2, @(h'30, er4)
6dd2: 0100 6d74                 mov.l   @sp+, er4
6dd6: 5470                      rts
6dd8: 0120 6df4                 stm.l   er4-er6, @-sp
6ddc: 0f84                      mov.l   er0, er4
6dde: 1933                      sub.w   r3, r3
6de0: 6fc3 0018                 mov.w   r3, @(h'18, er4)
6de4: fa08                      mov.b   #h'08, r2l
6de6: 7a06 0020 0003            mov.l   #h'00200003, er6
6dec: fb2f                      mov.b   #h'2f, r3l
6dee: 68eb                      mov.b   r3l, @er6
6df0: 0000                      nop
6df2: 0000                      nop
6df4: 0000                      nop
6df6: 0000                      nop
6df8: 7a05 0020 0000            mov.l   #h'00200000, er5
6dfe: 68da                      mov.b   r2l, @er5
6e00: f901                      mov.b   #h'01, r1l
6e02: 552e                      bsr     h'006e32
6e04: 1899                      sub.b   r1l, r1l
6e06: 0fc0                      mov.l   er4, er0
6e08: 5556                      bsr     h'006e60
6e0a: fa01                      mov.b   #h'01, r2l
6e0c: fb2f                      mov.b   #h'2f, r3l
6e0e: 68eb                      mov.b   r3l, @er6
6e10: 0000                      nop
6e12: 0000                      nop
6e14: 0000                      nop
6e16: 0000                      nop
6e18: 68da                      mov.b   r2l, @er5
6e1a: 1933                      sub.w   r3, r3
6e1c: 6fc3 001c                 mov.w   r3, @(h'1c, er4)
6e20: 1aa2                      sub.l   er2, er2
6e22: 0100 6fc2 0024            mov.l   er2, @(h'24, er4)
6e28: 6fc2 0030                 mov.w   r2, @(h'30, er4)
6e2c: 0120 6d76                 ldm.l   @sp+, er4-er6
6e30: 5470                      rts
6e32: 6e0a 001a                 mov.b   @(h'1a, er0), r2l
6e36: 0c99                      mov.b   r1l, r1l
6e38: 4704                      beq     h'006e3e
6e3a: ca10                      or.b    #h'10, r2l
6e3c: 4002                      bt      h'006e40
6e3e: eaef                      and.b   #h'ef, r2l
6e40: 6e8a 001a                 mov.b   r2l, @(h'1a, er0)
6e44: fa2c                      mov.b   #h'2c, r2l
6e46: 6e0b 001a                 mov.b   @(h'1a, er0), r3l
6e4a: 6aaa 0020 0003            mov.b   r2l, @h'200003
6e50: 0000                      nop
6e52: 0000                      nop
6e54: 0000                      nop
6e56: 0000                      nop
6e58: 6aab 0020 0000            mov.b   r3l, @h'200000
6e5e: 5470                      rts
6e60: 6e0a 001a                 mov.b   @(h'1a, er0), r2l
6e64: 0c99                      mov.b   r1l, r1l
6e66: 4704                      beq     h'006e6c
6e68: ca80                      or.b    #h'80, r2l
6e6a: 4002                      bt      h'006e6e
6e6c: ea7f                      and.b   #h'7f, r2l
6e6e: 6e8a 001a                 mov.b   r2l, @(h'1a, er0)
6e72: fa2c                      mov.b   #h'2c, r2l
6e74: 6e0b 001a                 mov.b   @(h'1a, er0), r3l
6e78: 6aaa 0020 0003            mov.b   r2l, @h'200003
6e7e: 0000                      nop
6e80: 0000                      nop
6e82: 0000                      nop
6e84: 0000                      nop
6e86: 6aab 0020 0000            mov.b   r3l, @h'200000
6e8c: 5470                      rts
6e8e: 18bb                      sub.b   r3l, r3l
6e90: 6f02 001c                 mov.w   @(h'1c, er0), r2
6e94: 7922 0003                 cmp.w   #h'0003, r2
6e98: 4602                      bne     h'006e9c
6e9a: fb01                      mov.b   #h'01, r3l
6e9c: 0cb8                      mov.b   r3l, r0l
6e9e: 5470                      rts
6ea0: 1922                      sub.w   r2, r2
6ea2: 6f82 001c                 mov.w   r2, @(h'1c, er0)
6ea6: 5470                      rts
6ea8: 6f02 001c                 mov.w   @(h'1c, er0), r2
6eac: 7922 0002                 cmp.w   #h'0002, r2
6eb0: 4608                      bne     h'006eba
6eb2: 6e08 001e                 mov.b   @(h'1e, er0), r0l
6eb6: f000                      mov.b   #h'00, r0h
6eb8: 4004                      bt      h'006ebe
6eba: 7900 ffff                 mov.w   #h'ffff, r0
6ebe: 5470                      rts
6ec0: 6f02 001c                 mov.w   @(h'1c, er0), r2
6ec4: 7922 0002                 cmp.w   #h'0002, r2
6ec8: 4608                      bne     h'006ed2
6eca: 0100 6f02 0024            mov.l   @(h'24, er0), er2
6ed0: 4604                      bne     h'006ed6
6ed2: 1a80                      sub.l   er0, er0
6ed4: 4006                      bt      h'006edc
6ed6: 7a10 0000 0020            add.l   #h'00000020, er0
6edc: 5470                      rts
6ede: 6f02 001c                 mov.w   @(h'1c, er0), r2
6ee2: 7922 0002                 cmp.w   #h'0002, r2
6ee6: 4606                      bne     h'006eee
6ee8: 6f02 0030                 mov.w   @(h'30, er0), r2
6eec: 4604                      bne     h'006ef2
6eee: 1a80                      sub.l   er0, er0
6ef0: 4006                      bt      h'006ef8
6ef2: 7a10 0000 002c            add.l   #h'0000002c, er0
6ef8: 5470                      rts
6efa: 1922                      sub.w   r2, r2
6efc: 6f82 0030                 mov.w   r2, @(h'30, er0)
6f00: 0100 6f81 0034            mov.l   er1, @(h'34, er0)
6f06: 5470                      rts
6f08: 6e0a 003b                 mov.b   @(h'3b, er0), r2l
6f0c: 473e                      beq     h'006f4c
6f0e: 5470                      rts
6f10: 0100 6df4                 mov.l   er4, @-sp
6f14: 0f84                      mov.l   er0, er4
6f16: fa2a                      mov.b   #h'2a, r2l
6f18: 6aaa 0020 0003            mov.b   r2l, @h'200003
6f1e: 0000                      nop
6f20: 0000                      nop
6f22: 0000                      nop
6f24: 0000                      nop
6f26: 6a2a 0020 0000            mov.b   @h'200000, r2l
6f2c: ea60                      and.b   #h'60, r2l
6f2e: aa60                      cmp.b   #h'60, r2l
6f30: 4710                      beq     h'006f42
6f32: 7a00 00ff f46c            mov.l   #h'00fff46c, er0
6f38: 7a01 0401 0000            mov.l   #h'04010000, er1
6f3e: 5e00 7116                 jsr     h'007116
6f42: 0fc0                      mov.l   er4, er0
6f44: 5506                      bsr     h'006f4c
6f46: 0100 6d74                 mov.l   @sp+, er4
6f4a: 5470                      rts
6f4c: fa2b                      mov.b   #h'2b, r2l
6f4e: fb08                      mov.b   #h'08, r3l
6f50: 6aaa 0020 0003            mov.b   r2l, @h'200003
6f56: 0000                      nop
6f58: 0000                      nop
6f5a: 0000                      nop
6f5c: 0000                      nop
6f5e: 6aab 0020 0000            mov.b   r3l, @h'200000
6f64: 1911                      sub.w   r1, r1
6f66: 4024                      bt      h'006f8c
6f68: 0d13                      mov.w   r1, r3
6f6a: 17f3                      exts.l  er3
6f6c: 0f82                      mov.l   er0, er2
6f6e: 0ab2                      add.l   er3, er2
6f70: fb29                      mov.b   #h'29, r3l
6f72: 6e2a 003e                 mov.b   @(h'3e, er2), r2l
6f76: 6aab 0020 0003            mov.b   r3l, @h'200003
6f7c: 0000                      nop
6f7e: 0000                      nop
6f80: 0000                      nop
6f82: 0000                      nop
6f84: 6aaa 0020 0000            mov.b   r2l, @h'200000
6f8a: 0b01                      adds.l  #1, er1
6f8c: 6f02 003c                 mov.w   @(h'3c, er0), r2
6f90: 1d21                      cmp.w   r2, r1
6f92: 4dd4                      blt     h'006f68
6f94: 1911                      sub.w   r1, r1
6f96: 6f81 003c                 mov.w   r1, @(h'3c, er0)
6f9a: 6f02 0038                 mov.w   @(h'38, er0), r2
6f9e: 4622                      bne     h'006fc2
6fa0: fa2b                      mov.b   #h'2b, r2l
6fa2: fb03                      mov.b   #h'03, r3l
6fa4: 6aaa 0020 0003            mov.b   r2l, @h'200003
6faa: 0000                      nop
6fac: 0000                      nop
6fae: 0000                      nop
6fb0: 0000                      nop
6fb2: 6aab 0020 0000            mov.b   r3l, @h'200000
6fb8: 7902 0001                 mov.w   #h'0001, r2
6fbc: 6f82 0038                 mov.w   r2, @(h'38, er0)
6fc0: 401c                      bt      h'006fde
6fc2: fa2b                      mov.b   #h'2b, r2l
6fc4: fb07                      mov.b   #h'07, r3l
6fc6: 6aaa 0020 0003            mov.b   r2l, @h'200003
6fcc: 0000                      nop
6fce: 0000                      nop
6fd0: 0000                      nop
6fd2: 0000                      nop
6fd4: 6aab 0020 0000            mov.b   r3l, @h'200000
6fda: 6f81 0038                 mov.w   r1, @(h'38, er0)
6fde: fa01                      mov.b   #h'01, r2l
6fe0: 6e8a 003b                 mov.b   r2l, @(h'3b, er0)
6fe4: 5470                      rts
6fe6: 0110 6df4                 stm.l   er4-er5, @-sp
6fea: 0f84                      mov.l   er0, er4
6fec: 1955                      sub.w   r5, r5
6fee: 6fc5 003c                 mov.w   r5, @(h'3c, er4)
6ff2: fa2b                      mov.b   #h'2b, r2l
6ff4: fb08                      mov.b   #h'08, r3l
6ff6: 6aaa 0020 0003            mov.b   r2l, @h'200003
6ffc: 0000                      nop
6ffe: 0000                      nop
7000: 0000                      nop
7002: 0000                      nop
7004: 6aab 0020 0000            mov.b   r3l, @h'200000
700a: fa01                      mov.b   #h'01, r2l
700c: 6eca 003a                 mov.b   r2l, @(h'3a, er4)
7010: 1899                      sub.b   r1l, r1l
7012: 5546                      bsr     h'00705a
7014: 6ecd 003b                 mov.b   r5l, @(h'3b, er4)
7018: 0110 6d75                 ldm.l   @sp+, er4-er5
701c: 5470                      rts
701e: 0110 6df4                 stm.l   er4-er5, @-sp
7022: 0f84                      mov.l   er0, er4
7024: 1955                      sub.w   r5, r5
7026: 6fc5 003c                 mov.w   r5, @(h'3c, er4)
702a: 6fc5 0038                 mov.w   r5, @(h'38, er4)
702e: fa2b                      mov.b   #h'2b, r2l
7030: fb08                      mov.b   #h'08, r3l
7032: 6aaa 0020 0003            mov.b   r2l, @h'200003
7038: 0000                      nop
703a: 0000                      nop
703c: 0000                      nop
703e: 0000                      nop
7040: 6aab 0020 0000            mov.b   r3l, @h'200000
7046: f901                      mov.b   #h'01, r1l
7048: 5510                      bsr     h'00705a
704a: 1899                      sub.b   r1l, r1l
704c: 0fc0                      mov.l   er4, er0
704e: 5538                      bsr     h'007088
7050: 6ecd 003b                 mov.b   r5l, @(h'3b, er4)
7054: 0110 6d75                 ldm.l   @sp+, er4-er5
7058: 5470                      rts
705a: 6e0a 003a                 mov.b   @(h'3a, er0), r2l
705e: 0c99                      mov.b   r1l, r1l
7060: 4704                      beq     h'007066
7062: ca10                      or.b    #h'10, r2l
7064: 4002                      bt      h'007068
7066: eaef                      and.b   #h'ef, r2l
7068: 6e8a 003a                 mov.b   r2l, @(h'3a, er0)
706c: fa28                      mov.b   #h'28, r2l
706e: 6e0b 003a                 mov.b   @(h'3a, er0), r3l
7072: 6aaa 0020 0003            mov.b   r2l, @h'200003
7078: 0000                      nop
707a: 0000                      nop
707c: 0000                      nop
707e: 0000                      nop
7080: 6aab 0020 0000            mov.b   r3l, @h'200000
7086: 5470                      rts
7088: 6e0a 003a                 mov.b   @(h'3a, er0), r2l
708c: 0c99                      mov.b   r1l, r1l
708e: 4704                      beq     h'007094
7090: ca80                      or.b    #h'80, r2l
7092: 4002                      bt      h'007096
7094: ea7f                      and.b   #h'7f, r2l
7096: 6e8a 003a                 mov.b   r2l, @(h'3a, er0)
709a: fa28                      mov.b   #h'28, r2l
709c: 6e0b 003a                 mov.b   @(h'3a, er0), r3l
70a0: 6aaa 0020 0003            mov.b   r2l, @h'200003
70a6: 0000                      nop
70a8: 0000                      nop
70aa: 0000                      nop
70ac: 0000                      nop
70ae: 6aab 0020 0000            mov.b   r3l, @h'200000
70b4: 5470                      rts
70b6: 18bb                      sub.b   r3l, r3l
70b8: 6f02 003c                 mov.w   @(h'3c, er0), r2
70bc: 4602                      bne     h'0070c0
70be: fb01                      mov.b   #h'01, r3l
70c0: 0cb8                      mov.b   r3l, r0l
70c2: 5470                      rts
70c4: 1888                      sub.b   r0l, r0l
70c6: 5470                      rts
70c8: 0120 6df4                 stm.l   er4-er6, @-sp
70cc: 0f85                      mov.l   er0, er5
70ce: 0f96                      mov.l   er1, er6
70d0: 0d24                      mov.w   r2, r4
70d2: 55e2                      bsr     h'0070b6
70d4: 0c88                      mov.b   r0l, r0l
70d6: 4706                      beq     h'0070de
70d8: 7924 0040                 cmp.w   #h'0040, r4
70dc: 4f04                      ble     h'0070e2
70de: 1888                      sub.b   r0l, r0l
70e0: 4024                      bt      h'007106
70e2: 1911                      sub.w   r1, r1
70e4: 1d41                      cmp.w   r4, r1
70e6: 4c18                      bge     h'007100
70e8: 0d10                      mov.w   r1, r0
70ea: 17f0                      exts.l  er0
70ec: 0fd3                      mov.l   er5, er3
70ee: 0a83                      add.l   er0, er3
70f0: 0fe2                      mov.l   er6, er2
70f2: 0a82                      add.l   er0, er2
70f4: 682a                      mov.b   @er2, r2l
70f6: 6eba 003e                 mov.b   r2l, @(h'3e, er3)
70fa: 0b01                      adds.l  #1, er1
70fc: 1d41                      cmp.w   r4, r1
70fe: 4de8                      blt     h'0070e8
7100: 6fd4 003c                 mov.w   r4, @(h'3c, er5)
7104: f801                      mov.b   #h'01, r0l
7106: 0120 6d76                 ldm.l   @sp+, er4-er6
710a: 5470                      rts
710c: 1922                      sub.w   r2, r2
710e: 6982                      mov.w   r2, @er0
7110: 6f82 0002                 mov.w   r2, @(h'2, er0)
7114: 5470                      rts
7116: 6902                      mov.w   @er0, r2
7118: 7922 007f                 cmp.w   #h'007f, r2
711c: 4e14                      bgt     h'007132
711e: 17f2                      exts.l  er2
7120: 1072                      shll.l  #2, er2
7122: 0f83                      mov.l   er0, er3
7124: 0aa3                      add.l   er2, er3
7126: 0100 6fb1 0004            mov.l   er1, @(h'4, er3)
712c: 6902                      mov.w   @er0, r2
712e: 0b02                      adds.l  #1, er2
7130: 6982                      mov.w   r2, @er0
7132: 5470                      rts
7134: 0100 6df4                 mov.l   er4, @-sp
7138: 0f94                      mov.l   er1, er4
713a: 020a                      stc     ccr, r2l
713c: 0480                      orc     #h'80, ccr
713e: 0ca9                      mov.b   r2l, r1l
7140: f100                      mov.b   #h'00, r1h
7142: 6f03 0002                 mov.w   @(h'2, er0), r3
7146: 6902                      mov.w   @er0, r2
7148: 1d23                      cmp.w   r2, r3
714a: 4722                      beq     h'00716e
714c: 17f3                      exts.l  er3
714e: 1073                      shll.l  #2, er3
7150: 0f82                      mov.l   er0, er2
7152: 0ab2                      add.l   er3, er2
7154: 0100 6f22 0004            mov.l   @(h'4, er2), er2
715a: 0100 69c2                 mov.l   er2, @er4
715e: 6f02 0002                 mov.w   @(h'2, er0), r2
7162: 0b02                      adds.l  #1, er2
7164: 6f82 0002                 mov.w   r2, @(h'2, er0)
7168: 0309                      ldc     r1l, ccr
716a: f801                      mov.b   #h'01, r0l
716c: 4004                      bt      h'007172
716e: 0309                      ldc     r1l, ccr
7170: 1888                      sub.b   r0l, r0l
7172: 0100 6d74                 mov.l   @sp+, er4
7176: 5470                      rts
7178: 7a00 00ff f46c            mov.l   #h'00fff46c, er0
717e: 558c                      bsr     h'00710c
7180: 5470                      rts
7182: 6100                      bnot    r0h, r0h
7184: 0100 6df4                 mov.l   er4, @-sp
7188: 0f84                      mov.l   er0, er4
718a: 1aa2                      sub.l   er2, er2
718c: 1b02                      subs.l  #1, er2
718e: 0100 6fc2 0024            mov.l   er2, @(h'24, er4)
7194: 5508                      bsr     h'00719e
7196: 0fc0                      mov.l   er4, er0
7198: 0100 6d74                 mov.l   @sp+, er4
719c: 5470                      rts
719e: 1922                      sub.w   r2, r2
71a0: 6982                      mov.w   r2, @er0
71a2: 1aa2                      sub.l   er2, er2
71a4: 0100 6f82 0004            mov.l   er2, @(h'4, er0)
71aa: 0100 6f82 0008            mov.l   er2, @(h'8, er0)
71b0: 0100 6f82 000c            mov.l   er2, @(h'c, er0)
71b6: 6f82 001c                 mov.w   r2, @(h'1c, er0)
71ba: 0100 6f82 0020            mov.l   er2, @(h'20, er0)
71c0: 1aa2                      sub.l   er2, er2
71c2: 1b02                      subs.l  #1, er2
71c4: 0100 6f82 0024            mov.l   er2, @(h'24, er0)
71ca: 5470                      rts
71cc: 18bb                      sub.b   r3l, r3l
71ce: 6902                      mov.w   @er0, r2
71d0: 4702                      beq     h'0071d4
71d2: fb01                      mov.b   #h'01, r3l
71d4: 0cb8                      mov.b   r3l, r0l
71d6: 5470                      rts
71d8: 7a37 0000 000c            sub.l   #h'0000000c, sp
71de: 0120 6df4                 stm.l   er4-er6, @-sp
71e2: 0f85                      mov.l   er0, er5
71e4: 0f96                      mov.l   er1, er6
71e6: 0fe0                      mov.l   er6, er0
71e8: 5e00 6e8e                 jsr     h'006e8e
71ec: 0c88                      mov.b   r0l, r0l
71ee: 4738                      beq     h'007228
71f0: 6952                      mov.w   @er5, r2
71f2: 7922 0002                 cmp.w   #h'0002, r2
71f6: 5860 0412                 bne     h'00760c
71fa: fa4b                      mov.b   #h'4b, r2l
71fc: 6eda 0028                 mov.b   r2l, @(h'28, er5)
7200: 6f50 001c                 mov.w   @(h'1c, er5), r0
7204: 0d02                      mov.w   r0, r2
7206: 0d00                      mov.w   r0, r0
7208: 4c04                      bge     h'00720e
720a: 7912 00ff                 add.w   #h'00ff, r2
720e: 0c2a                      mov.b   r2h, r2l
7210: 17d2                      exts.w  r2
7212: 6ed8 0029                 mov.b   r0l, @(h'29, er5)
7216: 6eda 002a                 mov.b   r2l, @(h'2a, er5)
721a: 7a15 0000 0028            add.l   #h'00000028, er5
7220: 7902 0003                 mov.w   #h'0003, r2
7224: 5800 03fa                 bt      h'007622
7228: 0fe0                      mov.l   er6, er0
722a: 5e00 6ea8                 jsr     h'006ea8
722e: 7920 ffff                 cmp.w   #h'ffff, r0
7232: 5870 040a                 beq     h'007640
7236: 1899                      sub.b   r1l, r1l
7238: 7920 001e                 cmp.w   #h'001e, r0
723c: 4626                      bne     h'007264
723e: 0fd0                      mov.l   er5, er0
7240: 5e00 719e                 jsr     h'00719e
7244: 7a01 0000 4960            mov.l   #h'00004960, er1
724a: 7902 000c                 mov.w   #h'000c, r2
724e: 0fe0                      mov.l   er6, er0
7250: 5e00 70c8                 jsr     h'0070c8
7254: 0c88                      mov.b   r0l, r0l
7256: 5870 03d4                 beq     h'00762e
725a: 7902 0001                 mov.w   #h'0001, r2
725e: 69d2                      mov.w   r2, @er5
7260: 5800 03d6                 bt      h'00763a
7264: 6952                      mov.w   @er5, r2
7266: 7922 0001                 cmp.w   #h'0001, r2
726a: 5860 00bc                 bne     h'00732a
726e: 7920 003c                 cmp.w   #h'003c, r0
7272: 5860 0392                 bne     h'007608
7276: 0fe0                      mov.l   er6, er0
7278: 5e00 6ec0                 jsr     h'006ec0
727c: 0fd4                      mov.l   er5, er4
727e: 0b94                      adds.l  #4, er4
7280: 1aa2                      sub.l   er2, er2
7282: 8a0c                      add.b   #h'0c, r2l
7284: 0f81                      mov.l   er0, er1
7286: 0fc0                      mov.l   er4, er0
7288: 5e00 120c                 jsr     h'00120c
728c: 1922                      sub.w   r2, r2
728e: 6fd2 001c                 mov.w   r2, @(h'1c, er5)
7292: 1aa2                      sub.l   er2, er2
7294: 0100 6fd2 0020            mov.l   er2, @(h'20, er5)
729a: 0100 6941                 mov.l   @er4, er1
729e: 0fe0                      mov.l   er6, er0
72a0: 5e00 6efa                 jsr     h'006efa
72a4: 0100 6942                 mov.l   @er4, er2
72a8: 0100 6df2                 mov.l   er2, @-sp
72ac: 7a02 0000 4846            mov.l   #h'00004846, er2
72b2: 0100 6df2                 mov.l   er2, @-sp
72b6: 5e00 5a20                 jsr     h'005a20
72ba: 0100 6f52 000c            mov.l   @(h'c, er5), er2
72c0: 0100 6df2                 mov.l   er2, @-sp
72c4: 0100 6f52 0008            mov.l   @(h'8, er5), er2
72ca: 0100 6df2                 mov.l   er2, @-sp
72ce: 7a02 0000 485f            mov.l   #h'0000485f, er2
72d4: 0100 6df2                 mov.l   er2, @-sp
72d8: 5e00 5a20                 jsr     h'005a20
72dc: fa4b                      mov.b   #h'4b, r2l
72de: 6eda 0028                 mov.b   r2l, @(h'28, er5)
72e2: 6f50 001c                 mov.w   @(h'1c, er5), r0
72e6: 0d02                      mov.w   r0, r2
72e8: 0d00                      mov.w   r0, r0
72ea: 4c04                      bge     h'0072f0
72ec: 7912 00ff                 add.w   #h'00ff, r2
72f0: 0c2a                      mov.b   r2h, r2l
72f2: 17d2                      exts.w  r2
72f4: 6ed8 0029                 mov.b   r0l, @(h'29, er5)
72f8: 6eda 002a                 mov.b   r2l, @(h'2a, er5)
72fc: 7a15 0000 0028            add.l   #h'00000028, er5
7302: 7902 0003                 mov.w   #h'0003, r2
7306: 0fd1                      mov.l   er5, er1
7308: 7a15 ffff ffd8            add.l   #h'ffffffd8, er5
730e: 0fe0                      mov.l   er6, er0
7310: 5e00 70c8                 jsr     h'0070c8
7314: 7a17 0000 0014            add.l   #h'00000014, sp
731a: 0c88                      mov.b   r0l, r0l
731c: 5870 030e                 beq     h'00762e
7320: 7902 0002                 mov.w   #h'0002, r2
7324: 69d2                      mov.w   r2, @er5
7326: 5800 0310                 bt      h'00763a
732a: 7922 0002                 cmp.w   #h'0002, r2
732e: 5860 02d6                 bne     h'007608
7332: 7920 005a                 cmp.w   #h'005a, r0
7336: 5860 02ce                 bne     h'007608
733a: 18bb                      sub.b   r3l, r3l
733c: 6efb 0017                 mov.b   r3l, @(h'17, sp)
7340: 0fe0                      mov.l   er6, er0
7342: 5e00 6ede                 jsr     h'006ede
7346: 0100 6ff5 0010            mov.l   er5, @(h'10, sp)
734c: 0fd4                      mov.l   er5, er4
734e: 7a14 0000 0010            add.l   #h'00000010, er4
7354: 0100 6ff4 0010            mov.l   er4, @(h'10, sp)
735a: 1aa2                      sub.l   er2, er2
735c: 8a0c                      add.b   #h'0c, r2l
735e: 0f81                      mov.l   er0, er1
7360: 0100 6f70 0010            mov.l   @(h'10, sp), er0
7366: 5e00 120c                 jsr     h'00120c
736a: 6940                      mov.w   @er4, r0
736c: 6f52 001c                 mov.w   @(h'1c, er5), r2
7370: 1d20                      cmp.w   r2, r0
7372: 5860 022c                 bne     h'0075a2
7376: 6f53 0014                 mov.w   @(h'14, er5), r3
737a: 17f3                      exts.l  er3
737c: 0100 6ff3 000c            mov.l   er3, @(h'c, sp)
7382: 0100 6ff5 0010            mov.l   er5, @(h'10, sp)
7388: 0fd4                      mov.l   er5, er4
738a: 7a14 0000 0024            add.l   #h'00000024, er4
7390: 0100 6ff4 0010            mov.l   er4, @(h'10, sp)
7396: 0100 6f51 0004            mov.l   @(h'4, er5), er1
739c: 0100 6f52 0020            mov.l   @(h'20, er5), er2
73a2: 0aa1                      add.l   er2, er1
73a4: 0100 6f70 000c            mov.l   @(h'c, sp), er0
73aa: 1b00                      subs.l  #1, er0
73ac: 0fb3                      mov.l   er3, er3
73ae: 4748                      beq     h'0073f8
73b0: 6c1a                      mov.b   @er1+, r2l
73b2: f200                      mov.b   #h'00, r2h
73b4: 0100 6f73 0010            mov.l   @(h'10, sp), er3
73ba: 6f33 0002                 mov.w   @(h'2, er3), r3
73be: 6532                      xor.w   r3, r2
73c0: 1072                      shll.l  #2, er2
73c2: 7a62 0000 03fc            and.l   #h'000003fc, er2
73c8: 0100 6f74 0010            mov.l   @(h'10, sp), er4
73ce: 0100 6944                 mov.l   @er4, er4
73d2: 1174                      shlr.l  #2, er4
73d4: 1174                      shlr.l  #2, er4
73d6: 1174                      shlr.l  #2, er4
73d8: 1174                      shlr.l  #2, er4
73da: 0100 7820 6b22 0000 04e0  mov.l   @(h'4e0, er2), er2
73e4: 01f0 6542                 xor.l   er4, er2
73e8: 0100 6f74 0010            mov.l   @(h'10, sp), er4
73ee: 0100 69c2                 mov.l   er2, @er4
73f2: 0f82                      mov.l   er0, er2
73f4: 1b00                      subs.l  #1, er0
73f6: 46b8                      bne     h'0073b0
73f8: 6f53 0014                 mov.w   @(h'14, er5), r3
73fc: 17f3                      exts.l  er3
73fe: 0100 6f52 0020            mov.l   @(h'20, er5), er2
7404: 0ab2                      add.l   er3, er2
7406: 0100 6fd2 0020            mov.l   er2, @(h'20, er5)
740c: 0100 6f53 0008            mov.l   @(h'8, er5), er3
7412: 0100 6df3                 mov.l   er3, @-sp
7416: 0100 6df2                 mov.l   er2, @-sp
741a: 7a02 0000 4882            mov.l   #h'00004882, er2
7420: 0100 6df2                 mov.l   er2, @-sp
7424: 5e00 5a20                 jsr     h'005a20
7428: 0100 6f52 0020            mov.l   @(h'20, er5), er2
742e: 0100 6f50 0008            mov.l   @(h'8, er5), er0
7434: 7a17 0000 000c            add.l   #h'0000000c, sp
743a: 1f82                      cmp.l   er0, er2
743c: 5860 00d6                 bne     h'007516
7440: 0100 6f73 0010            mov.l   @(h'10, sp), er3
7446: 0100 6930                 mov.l   @er3, er0
744a: 1730                      not.l   er0
744c: 0100 6f52 000c            mov.l   @(h'c, er5), er2
7452: 1f82                      cmp.l   er0, er2
7454: 470e                      beq     h'007464
7456: 0100 6df0                 mov.l   er0, @-sp
745a: 7a02 0000 48a1            mov.l   #h'000048a1, er2
7460: 5800 012a                 bt      h'00758e
7464: fa69                      mov.b   #h'69, r2l
7466: 6eda 0028                 mov.b   r2l, @(h'28, er5)
746a: 7a15 0000 0028            add.l   #h'00000028, er5
7470: 7902 0001                 mov.w   #h'0001, r2
7474: 0fd1                      mov.l   er5, er1
7476: 7a15 ffff ffd8            add.l   #h'ffffffd8, er5
747c: 0fe0                      mov.l   er6, er0
747e: 5e00 70c8                 jsr     h'0070c8
7482: 0c88                      mov.b   r0l, r0l
7484: 460c                      bne     h'007492
7486: 7a00 0000 482e            mov.l   #h'0000482e, er0
748c: 1a91                      sub.l   er1, er1
748e: 5e00 59e0                 jsr     h'0059e0
7492: 0100 6f52 000c            mov.l   @(h'c, er5), er2
7498: 0100 6df2                 mov.l   er2, @-sp
749c: 0100 6f52 0008            mov.l   @(h'8, er5), er2
74a2: 0100 6df2                 mov.l   er2, @-sp
74a6: 7a02 0000 48b7            mov.l   #h'000048b7, er2
74ac: 0100 6df2                 mov.l   er2, @-sp
74b0: 5e00 5a20                 jsr     h'005a20
74b4: 0100 6f52 0004            mov.l   @(h'4, er5), er2
74ba: 0100 6922                 mov.l   @er2, er2
74be: 7a17 0000 000c            add.l   #h'0000000c, sp
74c4: 7a22 ffc0 ffab            cmp.l   #h'ffc0ffab, er2
74ca: 4630                      bne     h'0074fc
74cc: 0fe0                      mov.l   er6, er0
74ce: 5e00 6302                 jsr     h'006302
74d2: 0100 6f52 0004            mov.l   @(h'4, er5), er2
74d8: 0100 6df2                 mov.l   er2, @-sp
74dc: 7a02 0000 48e3            mov.l   #h'000048e3, er2
74e2: 0100 6df2                 mov.l   er2, @-sp
74e6: 5e00 5a20                 jsr     h'005a20
74ea: 0100 6f50 0004            mov.l   @(h'4, er5), er0
74f0: f901                      mov.b   #h'01, r1l
74f2: 5e00 4c54                 jsr     h'004c54
74f6: 0b97                      adds.l  #4, sp
74f8: 0b97                      adds.l  #4, sp
74fa: 4010                      bt      h'00750c
74fc: 7a02 0000 48f5            mov.l   #h'000048f5, er2
7502: 0100 6df2                 mov.l   er2, @-sp
7506: 5e00 5a20                 jsr     h'005a20
750a: 0b97                      adds.l  #4, sp
750c: 0fd0                      mov.l   er5, er0
750e: 5e00 719e                 jsr     h'00719e
7512: 5800 00ae                 bt      h'0075c4
7516: 1f82                      cmp.l   er0, er2
7518: 446a                      bcc     h'007584
751a: 0100 6f51 0004            mov.l   @(h'4, er5), er1
7520: 0aa1                      add.l   er2, er1
7522: 0fe0                      mov.l   er6, er0
7524: 5e00 6efa                 jsr     h'006efa
7528: 6f50 001c                 mov.w   @(h'1c, er5), r0
752c: 0d01                      mov.w   r0, r1
752e: 0b01                      adds.l  #1, er1
7530: 6fd1 001c                 mov.w   r1, @(h'1c, er5)
7534: fa4b                      mov.b   #h'4b, r2l
7536: 6eda 0028                 mov.b   r2l, @(h'28, er5)
753a: 0d12                      mov.w   r1, r2
753c: 0d11                      mov.w   r1, r1
753e: 4c06                      bge     h'007546
7540: 0d02                      mov.w   r0, r2
7542: 7912 0100                 add.w   #h'0100, r2
7546: 0c2a                      mov.b   r2h, r2l
7548: 17d2                      exts.w  r2
754a: 6ed9 0029                 mov.b   r1l, @(h'29, er5)
754e: 6eda 002a                 mov.b   r2l, @(h'2a, er5)
7552: 7a15 0000 0028            add.l   #h'00000028, er5
7558: 7902 0003                 mov.w   #h'0003, r2
755c: 0fd1                      mov.l   er5, er1
755e: 7a15 ffff ffd8            add.l   #h'ffffffd8, er5
7564: 0fe0                      mov.l   er6, er0
7566: 5e00 70c8                 jsr     h'0070c8
756a: 0c88                      mov.b   r0l, r0l
756c: 460e                      bne     h'00757c
756e: 7a00 0000 482e            mov.l   #h'0000482e, er0
7574: 1a91                      sub.l   er1, er1
7576: 5e00 59e0                 jsr     h'0059e0
757a: 4048                      bt      h'0075c4
757c: 7902 0002                 mov.w   #h'0002, r2
7580: 69d2                      mov.w   r2, @er5
7582: 4040                      bt      h'0075c4
7584: 0100 6df2                 mov.l   er2, @-sp
7588: 7a02 0000 4909            mov.l   #h'00004909, er2
758e: 0100 6df2                 mov.l   er2, @-sp
7592: 5e00 5a20                 jsr     h'005a20
7596: fc01                      mov.b   #h'01, r4l
7598: 6efc 001f                 mov.b   r4l, @(h'1f, sp)
759c: 0b97                      adds.l  #4, sp
759e: 0b97                      adds.l  #4, sp
75a0: 4022                      bt      h'0075c4
75a2: 0100 6df2                 mov.l   er2, @-sp
75a6: 0100 6df0                 mov.l   er0, @-sp
75aa: 7a02 0000 4920            mov.l   #h'00004920, er2
75b0: 0100 6df2                 mov.l   er2, @-sp
75b4: 5e00 5a20                 jsr     h'005a20
75b8: fb01                      mov.b   #h'01, r3l
75ba: 6efb 0023                 mov.b   r3l, @(h'23, sp)
75be: 7a17 0000 000c            add.l   #h'0000000c, sp
75c4: 6e7c 0017                 mov.b   @(h'17, sp), r4l
75c8: 473c                      beq     h'007606
75ca: 0fd0                      mov.l   er5, er0
75cc: 5e00 719e                 jsr     h'00719e
75d0: fa1e                      mov.b   #h'1e, r2l
75d2: 6eda 0028                 mov.b   r2l, @(h'28, er5)
75d6: 7a15 0000 0028            add.l   #h'00000028, er5
75dc: 7902 0001                 mov.w   #h'0001, r2
75e0: 0fd1                      mov.l   er5, er1
75e2: 7a15 ffff ffd8            add.l   #h'ffffffd8, er5
75e8: 0fe0                      mov.l   er6, er0
75ea: 5e00 70c8                 jsr     h'0070c8
75ee: 0c88                      mov.b   r0l, r0l
75f0: 4608                      bne     h'0075fa
75f2: 7a00 0000 482e            mov.l   #h'0000482e, er0
75f8: 4006                      bt      h'007600
75fa: 7a00 0000 4942            mov.l   #h'00004942, er0
7600: 1a91                      sub.l   er1, er1
7602: 5e00 59e0                 jsr     h'0059e0
7606: f901                      mov.b   #h'01, r1l
7608: 0c99                      mov.b   r1l, r1l
760a: 462e                      bne     h'00763a
760c: 0fd0                      mov.l   er5, er0
760e: 5e00 719e                 jsr     h'00719e
7612: fa1e                      mov.b   #h'1e, r2l
7614: 6eda 0028                 mov.b   r2l, @(h'28, er5)
7618: 7a15 0000 0028            add.l   #h'00000028, er5
761e: 7902 0001                 mov.w   #h'0001, r2
7622: 0fd1                      mov.l   er5, er1
7624: 0fe0                      mov.l   er6, er0
7626: 5e00 70c8                 jsr     h'0070c8
762a: 0c88                      mov.b   r0l, r0l
762c: 460c                      bne     h'00763a
762e: 7a00 0000 482e            mov.l   #h'0000482e, er0
7634: 1a91                      sub.l   er1, er1
7636: 5e00 59e0                 jsr     h'0059e0
763a: 0fe0                      mov.l   er6, er0
763c: 5e00 6ea0                 jsr     h'006ea0
7640: 0120 6d76                 ldm.l   @sp+, er4-er6
7644: 7a17 0000 000c            add.l   #h'0000000c, sp
764a: 5470                      rts
764c: 1b97                      subs.l  #4, sp
764e: 0120 6df4                 stm.l   er4-er6, @-sp
7652: 0f85                      mov.l   er0, er5
7654: 0100 6ff1 000c            mov.l   er1, @(h'c, sp)
765a: 0fa6                      mov.l   er2, er6
765c: 7a02 1649 b442            mov.l   #h'1649b442, er2
7662: 0100 6b82 edee            mov.l   er2, @h'ffedee
7668: 1ac4                      sub.l   er4, er4
766a: 1fe4                      cmp.l   er6, er4
766c: 4438                      bcc     h'0076a6
766e: 0100 6b00 edee            mov.l   @h'ffedee, er0
7674: 7a01 0003 43fd            mov.l   #h'000343fd, er1
767a: 5534                      bsr     h'0076b0
767c: 7a10 0026 9ec3            add.l   #h'00269ec3, er0
7682: 0100 6b80 edee            mov.l   er0, @h'ffedee
7688: 0d80                      mov.w   e0, r0
768a: 1988                      sub.w   e0, e0
768c: 0100 6f73 000c            mov.l   @(h'c, sp), er3
7692: 6c3a                      mov.b   @er3+, r2l
7694: 0100 6ff3 000c            mov.l   er3, @(h'c, sp)
769a: 158a                      xor.b   r0l, r2l
769c: 68da                      mov.b   r2l, @er5
769e: 0b05                      adds.l  #1, er5
76a0: 0b04                      adds.l  #1, er4
76a2: 1fe4                      cmp.l   er6, er4
76a4: 45c8                      bcs     h'00766e
76a6: 0fe0                      mov.l   er6, er0
76a8: 0120 6d76                 ldm.l   @sp+, er4-er6
76ac: 0b97                      adds.l  #4, sp
76ae: 5470                      rts
76b0: 1aa2                      sub.l   er2, er2
76b2: 0f80                      mov.l   er0, er0
76b4: 470c                      beq     h'0076c2
76b6: 7708                      bld     #0, r0l
76b8: 4402                      bcc     h'0076bc
76ba: 0a92                      add.l   er1, er2
76bc: 1130                      shlr.l  er0
76be: 1031                      shll.l  er1
76c0: 40f0                      bt      h'0076b2
76c2: 0fa0                      mov.l   er2, er0
76c4: 5470                      rts
76c6: fe00                      mov.b   #h'00, r6l
76c8: 0f80                      mov.l   er0, er0
76ca: 4c04                      bge     h'0076d0
76cc: 17b0                      neg.l   er0
76ce: fe01                      mov.b   #h'01, r6l
76d0: 0f91                      mov.l   er1, er1
76d2: 4c04                      bge     h'0076d8
76d4: 17b1                      neg.l   er1
76d6: de01                      xor.b   #h'01, r6l
76d8: 5470                      rts
76da: fe00                      mov.b   #h'00, r6l
76dc: 0f80                      mov.l   er0, er0
76de: 4c04                      bge     h'0076e4
76e0: 17b0                      neg.l   er0
76e2: fe01                      mov.b   #h'01, r6l
76e4: 0f91                      mov.l   er1, er1
76e6: 4c02                      bge     h'0076ea
76e8: 17b1                      neg.l   er1
76ea: 5470                      rts
76ec: 0100 6df6                 mov.l   er6, @-sp
76f0: 0100 6df4                 mov.l   er4, @-sp
76f4: 0100 6df5                 mov.l   er5, @-sp
76f8: 55e0                      bsr     h'0076da
76fa: 554e                      bsr     h'00774a
76fc: 0fc0                      mov.l   er4, er0
76fe: 4036                      bt      h'007736
7700: 0100 6df6                 mov.l   er6, @-sp
7704: 0100 6df4                 mov.l   er4, @-sp
7708: 0100 6df5                 mov.l   er5, @-sp
770c: fe00                      mov.b   #h'00, r6l
770e: 553a                      bsr     h'00774a
7710: 4024                      bt      h'007736
7712: 0100 6df6                 mov.l   er6, @-sp
7716: 0100 6df4                 mov.l   er4, @-sp
771a: 0100 6df5                 mov.l   er5, @-sp
771e: fe00                      mov.b   #h'00, r6l
7720: 5528                      bsr     h'00774a
7722: 0fc0                      mov.l   er4, er0
7724: 4010                      bt      h'007736
7726: 0100 6df6                 mov.l   er6, @-sp
772a: 0100 6df4                 mov.l   er4, @-sp
772e: 0100 6df5                 mov.l   er5, @-sp
7732: 5592                      bsr     h'0076c6
7734: 5514                      bsr     h'00774a
7736: 0100 6d75                 mov.l   @sp+, er5
773a: 0100 6d74                 mov.l   @sp+, er4
773e: 14ee                      or.b    r6l, r6l
7740: 4702                      beq     h'007744
7742: 17b0                      neg.l   er0
7744: 0100 6d76                 mov.l   @sp+, er6
7748: 5470                      rts
774a: 1ac4                      sub.l   er4, er4
774c: 0d99                      mov.w   e1, e1
774e: 4612                      bne     h'007762
7750: 0d82                      mov.w   e0, r2
7752: 1772                      extu.l  er2
7754: 5312                      divxu.w r1, er2
7756: 0da8                      mov.w   e2, e0
7758: 5310                      divxu.w r1, er0
775a: 0d84                      mov.w   e0, r4
775c: 0d28                      mov.w   r2, e0
775e: 1774                      extu.l  er4
7760: 5470                      rts
7762: 0d82                      mov.w   e0, r2
7764: 0c2c                      mov.b   r2h, r4l
7766: 0ca2                      mov.b   r2l, r2h
7768: 0c0a                      mov.b   r0h, r2l
776a: 0d28                      mov.w   r2, e0
776c: 0c80                      mov.b   r0l, r0h
776e: f800                      mov.b   #h'00, r0l
7770: f618                      mov.b   #h'18, r6h
7772: 1030                      shll.l  er0
7774: 1234                      rotxl.l er4
7776: 1a94                      sub.l   er1, er4
7778: 4408                      bcc     h'007782
777a: 0a94                      add.l   er1, er4
777c: 1a06                      dec.b   #1, r6h
777e: 46f2                      bne     h'007772
7780: 5470                      rts
7782: 0a08                      inc.b   #1, r0l
7784: 1a06                      dec.b   #1, r6h
7786: 46ea                      bne     h'007772
7788: 5470                      rts
778a: 0000                      nop
778c: 52ca                      .word
778e: 0000                      nop
7790: 7178                      bnot    #7, r0l
7792: 0000                      nop
7794: 0000                      nop
7796: 0000                      nop
7798: 0b3c                      .word
779a: 0000                      nop
779c: 0b3c                      .word
779e: 0000                      nop
77a0: 0b3c                      .word
77a2: 0000                      nop
77a4: 0b3c                      .word
77a6: 0000                      nop
77a8: 0b3c                      .word
77aa: 0000                      nop
77ac: 0b3c                      .word
77ae: 0000                      nop
77b0: 0b3c                      .word
77b2: 0000                      nop
77b4: 0b3c                      .word
77b6: 0000                      nop
77b8: 0b3c                      .word
77ba: 0000                      nop
77bc: 0b3c                      .word
77be: 0000                      nop
77c0: 0b3c                      .word
77c2: 0000                      nop
77c4: 0b3c                      .word
77c6: 0000                      nop
77c8: 0b3c                      .word
77ca: 0000                      nop
77cc: 0b3c                      .word
77ce: 0000                      nop
77d0: 0b3c                      .word
77d2: 0000                      nop
77d4: 0b3c                      .word
77d6: 0000                      nop
77d8: 0b3c                      .word
77da: 0000                      nop
77dc: 0b3c                      .word
77de: 0000                      nop
77e0: 0b3c                      .word
77e2: 0000                      nop
77e4: 0b3c                      .word
77e6: 0000                      nop
77e8: 0b3c                      .word
77ea: 0000                      nop
77ec: 0b3c                      .word
77ee: 0000                      nop
77f0: 0b3c                      .word
77f2: 0000                      nop
77f4: 0b3c                      .word
77f6: 0000                      nop
77f8: 0b3c                      .word
77fa: 0000                      nop
77fc: 0b3c                      .word
77fe: 0000                      nop
7800: 0b3c                      .word
7802: 0000                      nop
7804: 0b3c                      .word
7806: 0000                      nop
7808: 0b3c                      .word
780a: 0000                      nop
780c: 0b3c                      .word
780e: 0000                      nop
7810: 0b3c                      .word
7812: 0000                      nop
7814: 0b3c                      .word
7816: 0000                      nop
7818: 0b3c                      .word
781a: 0000                      nop
781c: 0b3c                      .word
781e: 0000                      nop
7820: 0b3c                      .word
7822: 0000                      nop
7824: 0b3c                      .word
7826: 0000                      nop
7828: 0b3c                      .word
782a: 0000                      nop
782c: 0b3c                      .word
782e: 0000                      nop
7830: 0b3c                      .word
7832: 0000                      nop
7834: 0b3c                      .word
7836: 0000                      nop
7838: 0b3c                      .word
783a: 0000                      nop
783c: 0b3c                      .word
783e: 0000                      nop
7840: 0b3c                      .word
7842: 0000                      nop
7844: 0b3c                      .word
7846: 0000                      nop
7848: 0b3c                      .word
784a: 0000                      nop
784c: 0b3c                      .word
784e: 0000                      nop
7850: 0b3c                      .word
7852: 0000                      nop
7854: 0b3c                      .word
7856: 0000                      nop
7858: 0b3c                      .word
785a: 0000                      nop
785c: 0b3c                      .word
785e: 0000                      nop
7860: 0b3c                      .word
7862: 0000                      nop
7864: 0b3c                      .word
7866: 0000                      nop
7868: 0b3c                      .word
786a: 0000                      nop
786c: 0b3c                      .word
786e: 0000                      nop
7870: 0b3c                      .word
7872: 0000                      nop
7874: 0b3c                      .word
7876: 0000                      nop
7878: 0b3c                      .word
787a: 0000                      nop
787c: 0b3c                      .word
787e: 0000                      nop
7880: 0b3c                      .word
7882: 0000                      nop
7884: 0b3c                      .word
7886: 0000                      nop
7888: 0b3c                      .word
788a: 0000                      nop
788c: 04b6                      orc     #h'b6, ccr
788e: 053c                      xorc    #h'3c, ccr
7890: 6454                      or.w    r5, r4
7892: c030                      or.b    #h'30, r0h
7894: 0c03                      mov.b   r0h, r3h
7896: ff3f                      mov.b   #h'3f, r7l
7898: 0f03                      daa.b   r3h
789a: c0f0                      or.b    #h'f0, r0h
789c: fcff                      mov.b   #h'ff, r4l
789e: 0055                      .word
78a0: aaff                      cmp.b   #h'ff, r2l
78a2: 0000                      nop
78a4: 0000                      nop
78a6: 4010                      bt      h'0078b8
78a8: 0401                      orc     #h'01, ccr
78aa: 8020                      add.b   #h'20, r0h
78ac: 0802                      add.b   r0h, r2h
78ae: c030                      or.b    #h'30, r0h
78b0: 0c03                      mov.b   r0h, r3h
78b2: 0000                      nop
78b4: 0000                      nop
78b6: 0000                      nop
78b8: 0000                      nop
78ba: 0000                      nop
78bc: 0000                      nop
78be: 0000                      nop
78c0: 0000                      nop
78c2: 0000                      nop
78c4: 0000                      nop
78c6: 0000                      nop
78c8: 0000                      nop
78ca: 0000                      nop
78cc: 0000                      nop
78ce: 0000                      nop
78d0: 0000                      nop
78d2: 0000                      nop
78d4: 0000                      nop
78d6: 0000                      nop
78d8: 0000                      nop
78da: 0000                      nop
78dc: 0000                      nop
78de: 0000                      nop
78e0: 0000                      nop
78e2: 0000                      nop
78e4: 0000                      nop
78e6: 0000                      nop
78e8: 0000                      nop
78ea: 0000                      nop
78ec: 0000                      nop
78ee: 0000                      nop
78f0: 0000                      nop
78f2: 0000                      nop
78f4: 0000                      nop
78f6: 0000                      nop
78f8: 0000                      nop
78fa: 0000                      nop
78fc: 0000                      nop
78fe: 0000                      nop
7900: 0000                      nop
7902: 0000                      nop
7904: 0000                      nop
7906: 0000                      nop
7908: 0000                      nop
790a: 0000                      nop
790c: 0000                      nop
790e: 0000                      nop
7910: 0000                      nop
7912: 0000                      nop
7914: 0000                      nop
7916: 0000                      nop
7918: 0000                      nop
791a: 0000                      nop
791c: 0000                      nop
791e: 0000                      nop
7920: 0000                      nop
7922: 0000                      nop
7924: 0000                      nop
7926: 0000                      nop
7928: 0000                      nop
792a: 0000                      nop
792c: 0000                      nop
792e: 0000                      nop
7930: 0000                      nop
7932: 0000                      nop
7934: 0000                      nop
7936: 0000                      nop
7938: 0000                      nop
793a: 0000                      nop
793c: 0000                      nop
793e: 0000                      nop
7940: 0000                      nop
7942: 0000                      nop
7944: 0000                      nop
7946: 0000                      nop
7948: 0000                      nop
794a: 0000                      nop
794c: 0000                      nop
794e: 0000                      nop
7950: 0000                      nop
7952: 0000                      nop
7954: 0000                      nop
7956: 0000                      nop
7958: 0000                      nop
795a: 0000                      nop
795c: 0000                      nop
795e: 0000                      nop
7960: 0000                      nop
7962: 0000                      nop
7964: 0000                      nop
7966: 0000                      nop
7968: 0000                      nop
796a: 0000                      nop
796c: 0000                      nop
796e: 0000                      nop
7970: 0000                      nop
7972: 0000                      nop
7974: 0000                      nop
7976: 0000                      nop
7978: 0000                      nop
797a: 0000                      nop
797c: 0000                      nop
797e: 0000                      nop
7980: 1649                      and.b   r4h, r1l
7982: b442                      subx.b  #h'42, r4h
7984: ffff                      mov.b   #h'ff, r7l
7986: ffff                      mov.b   #h'ff, r7l
7988: ffff                      mov.b   #h'ff, r7l
798a: ffff                      mov.b   #h'ff, r7l
798c: ffff                      mov.b   #h'ff, r7l
798e: ffff                      mov.b   #h'ff, r7l
7990: ffff                      mov.b   #h'ff, r7l
7992: ffff                      mov.b   #h'ff, r7l
7994: ffff                      mov.b   #h'ff, r7l
7996: ffff                      mov.b   #h'ff, r7l
7998: ffff                      mov.b   #h'ff, r7l
799a: ffff                      mov.b   #h'ff, r7l
799c: ffff                      mov.b   #h'ff, r7l
799e: ffff                      mov.b   #h'ff, r7l
79a0: ffff                      mov.b   #h'ff, r7l
79a2: ffff                      mov.b   #h'ff, r7l
79a4: ffff                      mov.b   #h'ff, r7l
79a6: ffff                      mov.b   #h'ff, r7l
79a8: ffff                      mov.b   #h'ff, r7l
79aa: ffff                      mov.b   #h'ff, r7l
79ac: ffff                      mov.b   #h'ff, r7l
79ae: ffff                      mov.b   #h'ff, r7l
79b0: ffff                      mov.b   #h'ff, r7l
79b2: ffff                      mov.b   #h'ff, r7l
79b4: ffff                      mov.b   #h'ff, r7l
79b6: ffff                      mov.b   #h'ff, r7l
79b8: ffff                      mov.b   #h'ff, r7l
79ba: ffff                      mov.b   #h'ff, r7l
79bc: ffff                      mov.b   #h'ff, r7l
79be: ffff                      mov.b   #h'ff, r7l
79c0: ffff                      mov.b   #h'ff, r7l
79c2: ffff                      mov.b   #h'ff, r7l
79c4: ffff                      mov.b   #h'ff, r7l
79c6: ffff                      mov.b   #h'ff, r7l
79c8: ffff                      mov.b   #h'ff, r7l
79ca: ffff                      mov.b   #h'ff, r7l
79cc: ffff                      mov.b   #h'ff, r7l
79ce: ffff                      mov.b   #h'ff, r7l
79d0: ffff                      mov.b   #h'ff, r7l
79d2: ffff                      mov.b   #h'ff, r7l
79d4: ffff                      mov.b   #h'ff, r7l
79d6: ffff                      mov.b   #h'ff, r7l
79d8: ffff                      mov.b   #h'ff, r7l
79da: ffff                      mov.b   #h'ff, r7l
79dc: ffff                      mov.b   #h'ff, r7l
79de: ffff                      mov.b   #h'ff, r7l
79e0: ffff                      mov.b   #h'ff, r7l
79e2: ffff                      mov.b   #h'ff, r7l
79e4: ffff                      mov.b   #h'ff, r7l
79e6: ffff                      mov.b   #h'ff, r7l
79e8: ffff                      mov.b   #h'ff, r7l
79ea: ffff                      mov.b   #h'ff, r7l
79ec: ffff                      mov.b   #h'ff, r7l
79ee: ffff                      mov.b   #h'ff, r7l
79f0: ffff                      mov.b   #h'ff, r7l
79f2: ffff                      mov.b   #h'ff, r7l
79f4: ffff                      mov.b   #h'ff, r7l
79f6: ffff                      mov.b   #h'ff, r7l
79f8: ffff                      mov.b   #h'ff, r7l
79fa: ffff                      mov.b   #h'ff, r7l
79fc: ffff                      mov.b   #h'ff, r7l
79fe: ffff                      mov.b   #h'ff, r7l
7a00: ffff                      mov.b   #h'ff, r7l
7a02: ffff                      mov.b   #h'ff, r7l
7a04: ffff                      mov.b   #h'ff, r7l
7a06: ffff                      mov.b   #h'ff, r7l
7a08: ffff                      mov.b   #h'ff, r7l
7a0a: ffff                      mov.b   #h'ff, r7l
7a0c: ffff                      mov.b   #h'ff, r7l
7a0e: ffff                      mov.b   #h'ff, r7l
7a10: ffff                      mov.b   #h'ff, r7l
7a12: ffff                      mov.b   #h'ff, r7l
7a14: ffff                      mov.b   #h'ff, r7l
7a16: ffff                      mov.b   #h'ff, r7l
7a18: ffff                      mov.b   #h'ff, r7l
7a1a: ffff                      mov.b   #h'ff, r7l
7a1c: ffff                      mov.b   #h'ff, r7l
7a1e: ffff                      mov.b   #h'ff, r7l
7a20: ffff                      mov.b   #h'ff, r7l
7a22: ffff                      mov.b   #h'ff, r7l
7a24: ffff                      mov.b   #h'ff, r7l
7a26: ffff                      mov.b   #h'ff, r7l
7a28: ffff                      mov.b   #h'ff, r7l
7a2a: ffff                      mov.b   #h'ff, r7l
7a2c: ffff                      mov.b   #h'ff, r7l
7a2e: ffff                      mov.b   #h'ff, r7l
7a30: ffff                      mov.b   #h'ff, r7l
7a32: ffff                      mov.b   #h'ff, r7l
7a34: ffff                      mov.b   #h'ff, r7l
7a36: ffff                      mov.b   #h'ff, r7l
7a38: ffff                      mov.b   #h'ff, r7l
7a3a: ffff                      mov.b   #h'ff, r7l
7a3c: ffff                      mov.b   #h'ff, r7l
7a3e: ffff                      mov.b   #h'ff, r7l
7a40: ffff                      mov.b   #h'ff, r7l
7a42: ffff                      mov.b   #h'ff, r7l
7a44: ffff                      mov.b   #h'ff, r7l
7a46: ffff                      mov.b   #h'ff, r7l
7a48: ffff                      mov.b   #h'ff, r7l
7a4a: ffff                      mov.b   #h'ff, r7l
7a4c: ffff                      mov.b   #h'ff, r7l
7a4e: ffff                      mov.b   #h'ff, r7l
7a50: ffff                      mov.b   #h'ff, r7l
7a52: ffff                      mov.b   #h'ff, r7l
7a54: ffff                      mov.b   #h'ff, r7l
7a56: ffff                      mov.b   #h'ff, r7l
7a58: ffff                      mov.b   #h'ff, r7l
7a5a: ffff                      mov.b   #h'ff, r7l
7a5c: ffff                      mov.b   #h'ff, r7l
7a5e: ffff                      mov.b   #h'ff, r7l
7a60: ffff                      mov.b   #h'ff, r7l
7a62: ffff                      mov.b   #h'ff, r7l
7a64: ffff                      mov.b   #h'ff, r7l
7a66: ffff                      mov.b   #h'ff, r7l
7a68: ffff                      mov.b   #h'ff, r7l
7a6a: ffff                      mov.b   #h'ff, r7l
7a6c: ffff                      mov.b   #h'ff, r7l
7a6e: ffff                      mov.b   #h'ff, r7l
7a70: ffff                      mov.b   #h'ff, r7l
7a72: ffff                      mov.b   #h'ff, r7l
7a74: ffff                      mov.b   #h'ff, r7l
7a76: ffff                      mov.b   #h'ff, r7l
7a78: ffff                      mov.b   #h'ff, r7l
7a7a: ffff                      mov.b   #h'ff, r7l
7a7c: ffff                      mov.b   #h'ff, r7l
7a7e: ffff                      mov.b   #h'ff, r7l
7a80: ffff                      mov.b   #h'ff, r7l
7a82: ffff                      mov.b   #h'ff, r7l
7a84: ffff                      mov.b   #h'ff, r7l
7a86: ffff                      mov.b   #h'ff, r7l
7a88: ffff                      mov.b   #h'ff, r7l
7a8a: ffff                      mov.b   #h'ff, r7l
7a8c: ffff                      mov.b   #h'ff, r7l
7a8e: ffff                      mov.b   #h'ff, r7l
7a90: ffff                      mov.b   #h'ff, r7l
7a92: ffff                      mov.b   #h'ff, r7l
7a94: ffff                      mov.b   #h'ff, r7l
7a96: ffff                      mov.b   #h'ff, r7l
7a98: ffff                      mov.b   #h'ff, r7l
7a9a: ffff                      mov.b   #h'ff, r7l
7a9c: ffff                      mov.b   #h'ff, r7l
7a9e: ffff                      mov.b   #h'ff, r7l
7aa0: ffff                      mov.b   #h'ff, r7l
7aa2: ffff                      mov.b   #h'ff, r7l
7aa4: ffff                      mov.b   #h'ff, r7l
7aa6: ffff                      mov.b   #h'ff, r7l
7aa8: ffff                      mov.b   #h'ff, r7l
7aaa: ffff                      mov.b   #h'ff, r7l
7aac: ffff                      mov.b   #h'ff, r7l
7aae: ffff                      mov.b   #h'ff, r7l
7ab0: ffff                      mov.b   #h'ff, r7l
7ab2: ffff                      mov.b   #h'ff, r7l
7ab4: ffff                      mov.b   #h'ff, r7l
7ab6: ffff                      mov.b   #h'ff, r7l
7ab8: ffff                      mov.b   #h'ff, r7l
7aba: ffff                      mov.b   #h'ff, r7l
7abc: ffff                      mov.b   #h'ff, r7l
7abe: ffff                      mov.b   #h'ff, r7l
7ac0: ffff                      mov.b   #h'ff, r7l
7ac2: ffff                      mov.b   #h'ff, r7l
7ac4: ffff                      mov.b   #h'ff, r7l
7ac6: ffff                      mov.b   #h'ff, r7l
7ac8: ffff                      mov.b   #h'ff, r7l
7aca: ffff                      mov.b   #h'ff, r7l
7acc: ffff                      mov.b   #h'ff, r7l
7ace: ffff                      mov.b   #h'ff, r7l
7ad0: ffff                      mov.b   #h'ff, r7l
7ad2: ffff                      mov.b   #h'ff, r7l
7ad4: ffff                      mov.b   #h'ff, r7l
7ad6: ffff                      mov.b   #h'ff, r7l
7ad8: ffff                      mov.b   #h'ff, r7l
7ada: ffff                      mov.b   #h'ff, r7l
7adc: ffff                      mov.b   #h'ff, r7l
7ade: ffff                      mov.b   #h'ff, r7l
7ae0: ffff                      mov.b   #h'ff, r7l
7ae2: ffff                      mov.b   #h'ff, r7l
7ae4: ffff                      mov.b   #h'ff, r7l
7ae6: ffff                      mov.b   #h'ff, r7l
7ae8: ffff                      mov.b   #h'ff, r7l
7aea: ffff                      mov.b   #h'ff, r7l
7aec: ffff                      mov.b   #h'ff, r7l
7aee: ffff                      mov.b   #h'ff, r7l
7af0: ffff                      mov.b   #h'ff, r7l
7af2: ffff                      mov.b   #h'ff, r7l
7af4: ffff                      mov.b   #h'ff, r7l
7af6: ffff                      mov.b   #h'ff, r7l
7af8: ffff                      mov.b   #h'ff, r7l
7afa: ffff                      mov.b   #h'ff, r7l
7afc: ffff                      mov.b   #h'ff, r7l
7afe: ffff                      mov.b   #h'ff, r7l
7b00: ffff                      mov.b   #h'ff, r7l
7b02: ffff                      mov.b   #h'ff, r7l
7b04: ffff                      mov.b   #h'ff, r7l
7b06: ffff                      mov.b   #h'ff, r7l
7b08: ffff                      mov.b   #h'ff, r7l
7b0a: ffff                      mov.b   #h'ff, r7l
7b0c: ffff                      mov.b   #h'ff, r7l
7b0e: ffff                      mov.b   #h'ff, r7l
7b10: ffff                      mov.b   #h'ff, r7l
7b12: ffff                      mov.b   #h'ff, r7l
7b14: ffff                      mov.b   #h'ff, r7l
7b16: ffff                      mov.b   #h'ff, r7l
7b18: ffff                      mov.b   #h'ff, r7l
7b1a: ffff                      mov.b   #h'ff, r7l
7b1c: ffff                      mov.b   #h'ff, r7l
7b1e: ffff                      mov.b   #h'ff, r7l
7b20: ffff                      mov.b   #h'ff, r7l
7b22: ffff                      mov.b   #h'ff, r7l
7b24: ffff                      mov.b   #h'ff, r7l
7b26: ffff                      mov.b   #h'ff, r7l
7b28: ffff                      mov.b   #h'ff, r7l
7b2a: ffff                      mov.b   #h'ff, r7l
7b2c: ffff                      mov.b   #h'ff, r7l
7b2e: ffff                      mov.b   #h'ff, r7l
7b30: ffff                      mov.b   #h'ff, r7l
7b32: ffff                      mov.b   #h'ff, r7l
7b34: ffff                      mov.b   #h'ff, r7l
7b36: ffff                      mov.b   #h'ff, r7l
7b38: ffff                      mov.b   #h'ff, r7l
7b3a: ffff                      mov.b   #h'ff, r7l
7b3c: ffff                      mov.b   #h'ff, r7l
7b3e: ffff                      mov.b   #h'ff, r7l
7b40: ffff                      mov.b   #h'ff, r7l
7b42: ffff                      mov.b   #h'ff, r7l
7b44: ffff                      mov.b   #h'ff, r7l
7b46: ffff                      mov.b   #h'ff, r7l
7b48: ffff                      mov.b   #h'ff, r7l
7b4a: ffff                      mov.b   #h'ff, r7l
7b4c: ffff                      mov.b   #h'ff, r7l
7b4e: ffff                      mov.b   #h'ff, r7l
7b50: ffff                      mov.b   #h'ff, r7l
7b52: ffff                      mov.b   #h'ff, r7l
7b54: ffff                      mov.b   #h'ff, r7l
7b56: ffff                      mov.b   #h'ff, r7l
7b58: ffff                      mov.b   #h'ff, r7l
7b5a: ffff                      mov.b   #h'ff, r7l
7b5c: ffff                      mov.b   #h'ff, r7l
7b5e: ffff                      mov.b   #h'ff, r7l
7b60: ffff                      mov.b   #h'ff, r7l
7b62: ffff                      mov.b   #h'ff, r7l
7b64: ffff                      mov.b   #h'ff, r7l
7b66: ffff                      mov.b   #h'ff, r7l
7b68: ffff                      mov.b   #h'ff, r7l
7b6a: ffff                      mov.b   #h'ff, r7l
7b6c: ffff                      mov.b   #h'ff, r7l
7b6e: ffff                      mov.b   #h'ff, r7l
7b70: ffff                      mov.b   #h'ff, r7l
7b72: ffff                      mov.b   #h'ff, r7l
7b74: ffff                      mov.b   #h'ff, r7l
7b76: ffff                      mov.b   #h'ff, r7l
7b78: ffff                      mov.b   #h'ff, r7l
7b7a: ffff                      mov.b   #h'ff, r7l
7b7c: ffff                      mov.b   #h'ff, r7l
7b7e: ffff                      mov.b   #h'ff, r7l
7b80: ffff                      mov.b   #h'ff, r7l
7b82: ffff                      mov.b   #h'ff, r7l
7b84: ffff                      mov.b   #h'ff, r7l
7b86: ffff                      mov.b   #h'ff, r7l
7b88: ffff                      mov.b   #h'ff, r7l
7b8a: ffff                      mov.b   #h'ff, r7l
7b8c: ffff                      mov.b   #h'ff, r7l
7b8e: ffff                      mov.b   #h'ff, r7l
7b90: ffff                      mov.b   #h'ff, r7l
7b92: ffff                      mov.b   #h'ff, r7l
7b94: ffff                      mov.b   #h'ff, r7l
7b96: ffff                      mov.b   #h'ff, r7l
7b98: ffff                      mov.b   #h'ff, r7l
7b9a: ffff                      mov.b   #h'ff, r7l
7b9c: ffff                      mov.b   #h'ff, r7l
7b9e: ffff                      mov.b   #h'ff, r7l
7ba0: ffff                      mov.b   #h'ff, r7l
7ba2: ffff                      mov.b   #h'ff, r7l
7ba4: ffff                      mov.b   #h'ff, r7l
7ba6: ffff                      mov.b   #h'ff, r7l
7ba8: ffff                      mov.b   #h'ff, r7l
7baa: ffff                      mov.b   #h'ff, r7l
7bac: ffff                      mov.b   #h'ff, r7l
7bae: ffff                      mov.b   #h'ff, r7l
7bb0: ffff                      mov.b   #h'ff, r7l
7bb2: ffff                      mov.b   #h'ff, r7l
7bb4: ffff                      mov.b   #h'ff, r7l
7bb6: ffff                      mov.b   #h'ff, r7l
7bb8: ffff                      mov.b   #h'ff, r7l
7bba: ffff                      mov.b   #h'ff, r7l
7bbc: ffff                      mov.b   #h'ff, r7l
7bbe: ffff                      mov.b   #h'ff, r7l
7bc0: ffff                      mov.b   #h'ff, r7l
7bc2: ffff                      mov.b   #h'ff, r7l
7bc4: ffff                      mov.b   #h'ff, r7l
7bc6: ffff                      mov.b   #h'ff, r7l
7bc8: ffff                      mov.b   #h'ff, r7l
7bca: ffff                      mov.b   #h'ff, r7l
7bcc: ffff                      mov.b   #h'ff, r7l
7bce: ffff                      mov.b   #h'ff, r7l
7bd0: ffff                      mov.b   #h'ff, r7l
7bd2: ffff                      mov.b   #h'ff, r7l
7bd4: ffff                      mov.b   #h'ff, r7l
7bd6: ffff                      mov.b   #h'ff, r7l
7bd8: ffff                      mov.b   #h'ff, r7l
7bda: ffff                      mov.b   #h'ff, r7l
7bdc: ffff                      mov.b   #h'ff, r7l
7bde: ffff                      mov.b   #h'ff, r7l
7be0: ffff                      mov.b   #h'ff, r7l
7be2: ffff                      mov.b   #h'ff, r7l
7be4: ffff                      mov.b   #h'ff, r7l
7be6: ffff                      mov.b   #h'ff, r7l
7be8: ffff                      mov.b   #h'ff, r7l
7bea: ffff                      mov.b   #h'ff, r7l
7bec: ffff                      mov.b   #h'ff, r7l
7bee: ffff                      mov.b   #h'ff, r7l
7bf0: ffff                      mov.b   #h'ff, r7l
7bf2: ffff                      mov.b   #h'ff, r7l
7bf4: ffff                      mov.b   #h'ff, r7l
7bf6: ffff                      mov.b   #h'ff, r7l
7bf8: ffff                      mov.b   #h'ff, r7l
7bfa: ffff                      mov.b   #h'ff, r7l
7bfc: ffff                      mov.b   #h'ff, r7l
7bfe: ffff                      mov.b   #h'ff, r7l
7c00: ffff                      mov.b   #h'ff, r7l
7c02: ffff                      mov.b   #h'ff, r7l
7c04: ffff                      mov.b   #h'ff, r7l
7c06: ffff                      mov.b   #h'ff, r7l
7c08: ffff                      mov.b   #h'ff, r7l
7c0a: ffff                      mov.b   #h'ff, r7l
7c0c: ffff                      mov.b   #h'ff, r7l
7c0e: ffff                      mov.b   #h'ff, r7l
7c10: ffff                      mov.b   #h'ff, r7l
7c12: ffff                      mov.b   #h'ff, r7l
7c14: ffff                      mov.b   #h'ff, r7l
7c16: ffff                      mov.b   #h'ff, r7l
7c18: ffff                      mov.b   #h'ff, r7l
7c1a: ffff                      mov.b   #h'ff, r7l
7c1c: ffff                      mov.b   #h'ff, r7l
7c1e: ffff                      mov.b   #h'ff, r7l
7c20: ffff                      mov.b   #h'ff, r7l
7c22: ffff                      mov.b   #h'ff, r7l
7c24: ffff                      mov.b   #h'ff, r7l
7c26: ffff                      mov.b   #h'ff, r7l
7c28: ffff                      mov.b   #h'ff, r7l
7c2a: ffff                      mov.b   #h'ff, r7l
7c2c: ffff                      mov.b   #h'ff, r7l
7c2e: ffff                      mov.b   #h'ff, r7l
7c30: ffff                      mov.b   #h'ff, r7l
7c32: ffff                      mov.b   #h'ff, r7l
7c34: ffff                      mov.b   #h'ff, r7l
7c36: ffff                      mov.b   #h'ff, r7l
7c38: ffff                      mov.b   #h'ff, r7l
7c3a: ffff                      mov.b   #h'ff, r7l
7c3c: ffff                      mov.b   #h'ff, r7l
7c3e: ffff                      mov.b   #h'ff, r7l
7c40: ffff                      mov.b   #h'ff, r7l
7c42: ffff                      mov.b   #h'ff, r7l
7c44: ffff                      mov.b   #h'ff, r7l
7c46: ffff                      mov.b   #h'ff, r7l
7c48: ffff                      mov.b   #h'ff, r7l
7c4a: ffff                      mov.b   #h'ff, r7l
7c4c: ffff                      mov.b   #h'ff, r7l
7c4e: ffff                      mov.b   #h'ff, r7l
7c50: ffff                      mov.b   #h'ff, r7l
7c52: ffff                      mov.b   #h'ff, r7l
7c54: ffff                      mov.b   #h'ff, r7l
7c56: ffff                      mov.b   #h'ff, r7l
7c58: ffff                      mov.b   #h'ff, r7l
7c5a: ffff                      mov.b   #h'ff, r7l
7c5c: ffff                      mov.b   #h'ff, r7l
7c5e: ffff                      mov.b   #h'ff, r7l
7c60: ffff                      mov.b   #h'ff, r7l
7c62: ffff                      mov.b   #h'ff, r7l
7c64: ffff                      mov.b   #h'ff, r7l
7c66: ffff                      mov.b   #h'ff, r7l
7c68: ffff                      mov.b   #h'ff, r7l
7c6a: ffff                      mov.b   #h'ff, r7l
7c6c: ffff                      mov.b   #h'ff, r7l
7c6e: ffff                      mov.b   #h'ff, r7l
7c70: ffff                      mov.b   #h'ff, r7l
7c72: ffff                      mov.b   #h'ff, r7l
7c74: ffff                      mov.b   #h'ff, r7l
7c76: ffff                      mov.b   #h'ff, r7l
7c78: ffff                      mov.b   #h'ff, r7l
7c7a: ffff                      mov.b   #h'ff, r7l
7c7c: ffff                      mov.b   #h'ff, r7l
7c7e: ffff                      mov.b   #h'ff, r7l
7c80: ffff                      mov.b   #h'ff, r7l
7c82: ffff                      mov.b   #h'ff, r7l
7c84: ffff                      mov.b   #h'ff, r7l
7c86: ffff                      mov.b   #h'ff, r7l
7c88: ffff                      mov.b   #h'ff, r7l
7c8a: ffff                      mov.b   #h'ff, r7l
7c8c: ffff                      mov.b   #h'ff, r7l
7c8e: ffff                      mov.b   #h'ff, r7l
7c90: ffff                      mov.b   #h'ff, r7l
7c92: ffff                      mov.b   #h'ff, r7l
7c94: ffff                      mov.b   #h'ff, r7l
7c96: ffff                      mov.b   #h'ff, r7l
7c98: ffff                      mov.b   #h'ff, r7l
7c9a: ffff                      mov.b   #h'ff, r7l
7c9c: ffff                      mov.b   #h'ff, r7l
7c9e: ffff                      mov.b   #h'ff, r7l
7ca0: ffff                      mov.b   #h'ff, r7l
7ca2: ffff                      mov.b   #h'ff, r7l
7ca4: ffff                      mov.b   #h'ff, r7l
7ca6: ffff                      mov.b   #h'ff, r7l
7ca8: ffff                      mov.b   #h'ff, r7l
7caa: ffff                      mov.b   #h'ff, r7l
7cac: ffff                      mov.b   #h'ff, r7l
7cae: ffff                      mov.b   #h'ff, r7l
7cb0: ffff                      mov.b   #h'ff, r7l
7cb2: ffff                      mov.b   #h'ff, r7l
7cb4: ffff                      mov.b   #h'ff, r7l
7cb6: ffff                      mov.b   #h'ff, r7l
7cb8: ffff                      mov.b   #h'ff, r7l
7cba: ffff                      mov.b   #h'ff, r7l
7cbc: ffff                      mov.b   #h'ff, r7l
7cbe: ffff                      mov.b   #h'ff, r7l
7cc0: ffff                      mov.b   #h'ff, r7l
7cc2: ffff                      mov.b   #h'ff, r7l
7cc4: ffff                      mov.b   #h'ff, r7l
7cc6: ffff                      mov.b   #h'ff, r7l
7cc8: ffff                      mov.b   #h'ff, r7l
7cca: ffff                      mov.b   #h'ff, r7l
7ccc: ffff                      mov.b   #h'ff, r7l
7cce: ffff                      mov.b   #h'ff, r7l
7cd0: ffff                      mov.b   #h'ff, r7l
7cd2: ffff                      mov.b   #h'ff, r7l
7cd4: ffff                      mov.b   #h'ff, r7l
7cd6: ffff                      mov.b   #h'ff, r7l
7cd8: ffff                      mov.b   #h'ff, r7l
7cda: ffff                      mov.b   #h'ff, r7l
7cdc: ffff                      mov.b   #h'ff, r7l
7cde: ffff                      mov.b   #h'ff, r7l
7ce0: ffff                      mov.b   #h'ff, r7l
7ce2: ffff                      mov.b   #h'ff, r7l
7ce4: ffff                      mov.b   #h'ff, r7l
7ce6: ffff                      mov.b   #h'ff, r7l
7ce8: ffff                      mov.b   #h'ff, r7l
7cea: ffff                      mov.b   #h'ff, r7l
7cec: ffff                      mov.b   #h'ff, r7l
7cee: ffff                      mov.b   #h'ff, r7l
7cf0: ffff                      mov.b   #h'ff, r7l
7cf2: ffff                      mov.b   #h'ff, r7l
7cf4: ffff                      mov.b   #h'ff, r7l
7cf6: ffff                      mov.b   #h'ff, r7l
7cf8: ffff                      mov.b   #h'ff, r7l
7cfa: ffff                      mov.b   #h'ff, r7l
7cfc: ffff                      mov.b   #h'ff, r7l
7cfe: ffff                      mov.b   #h'ff, r7l
7d00: ffff                      mov.b   #h'ff, r7l
7d02: ffff                      mov.b   #h'ff, r7l
7d04: ffff                      mov.b   #h'ff, r7l
7d06: ffff                      mov.b   #h'ff, r7l
7d08: ffff                      mov.b   #h'ff, r7l
7d0a: ffff                      mov.b   #h'ff, r7l
7d0c: ffff                      mov.b   #h'ff, r7l
7d0e: ffff                      mov.b   #h'ff, r7l
7d10: ffff                      mov.b   #h'ff, r7l
7d12: ffff                      mov.b   #h'ff, r7l
7d14: ffff                      mov.b   #h'ff, r7l
7d16: ffff                      mov.b   #h'ff, r7l
7d18: ffff                      mov.b   #h'ff, r7l
7d1a: ffff                      mov.b   #h'ff, r7l
7d1c: ffff                      mov.b   #h'ff, r7l
7d1e: ffff                      mov.b   #h'ff, r7l
7d20: ffff                      mov.b   #h'ff, r7l
7d22: ffff                      mov.b   #h'ff, r7l
7d24: ffff                      mov.b   #h'ff, r7l
7d26: ffff                      mov.b   #h'ff, r7l
7d28: ffff                      mov.b   #h'ff, r7l
7d2a: ffff                      mov.b   #h'ff, r7l
7d2c: ffff                      mov.b   #h'ff, r7l
7d2e: ffff                      mov.b   #h'ff, r7l
7d30: ffff                      mov.b   #h'ff, r7l
7d32: ffff                      mov.b   #h'ff, r7l
7d34: ffff                      mov.b   #h'ff, r7l
7d36: ffff                      mov.b   #h'ff, r7l
7d38: ffff                      mov.b   #h'ff, r7l
7d3a: ffff                      mov.b   #h'ff, r7l
7d3c: ffff                      mov.b   #h'ff, r7l
7d3e: ffff                      mov.b   #h'ff, r7l
7d40: ffff                      mov.b   #h'ff, r7l
7d42: ffff                      mov.b   #h'ff, r7l
7d44: ffff                      mov.b   #h'ff, r7l
7d46: ffff                      mov.b   #h'ff, r7l
7d48: ffff                      mov.b   #h'ff, r7l
7d4a: ffff                      mov.b   #h'ff, r7l
7d4c: ffff                      mov.b   #h'ff, r7l
7d4e: ffff                      mov.b   #h'ff, r7l
7d50: ffff                      mov.b   #h'ff, r7l
7d52: ffff                      mov.b   #h'ff, r7l
7d54: ffff                      mov.b   #h'ff, r7l
7d56: ffff                      mov.b   #h'ff, r7l
7d58: ffff                      mov.b   #h'ff, r7l
7d5a: ffff                      mov.b   #h'ff, r7l
7d5c: ffff                      mov.b   #h'ff, r7l
7d5e: ffff                      mov.b   #h'ff, r7l
7d60: ffff                      mov.b   #h'ff, r7l
7d62: ffff                      mov.b   #h'ff, r7l
7d64: ffff                      mov.b   #h'ff, r7l
7d66: ffff                      mov.b   #h'ff, r7l
7d68: ffff                      mov.b   #h'ff, r7l
7d6a: ffff                      mov.b   #h'ff, r7l
7d6c: ffff                      mov.b   #h'ff, r7l
7d6e: ffff                      mov.b   #h'ff, r7l
7d70: ffff                      mov.b   #h'ff, r7l
7d72: ffff                      mov.b   #h'ff, r7l
7d74: ffff                      mov.b   #h'ff, r7l
7d76: ffff                      mov.b   #h'ff, r7l
7d78: ffff                      mov.b   #h'ff, r7l
7d7a: ffff                      mov.b   #h'ff, r7l
7d7c: ffff                      mov.b   #h'ff, r7l
7d7e: ffff                      mov.b   #h'ff, r7l
7d80: ffff                      mov.b   #h'ff, r7l
7d82: ffff                      mov.b   #h'ff, r7l
7d84: ffff                      mov.b   #h'ff, r7l
7d86: ffff                      mov.b   #h'ff, r7l
7d88: ffff                      mov.b   #h'ff, r7l
7d8a: ffff                      mov.b   #h'ff, r7l
7d8c: ffff                      mov.b   #h'ff, r7l
7d8e: ffff                      mov.b   #h'ff, r7l
7d90: ffff                      mov.b   #h'ff, r7l
7d92: ffff                      mov.b   #h'ff, r7l
7d94: ffff                      mov.b   #h'ff, r7l
7d96: ffff                      mov.b   #h'ff, r7l
7d98: ffff                      mov.b   #h'ff, r7l
7d9a: ffff                      mov.b   #h'ff, r7l
7d9c: ffff                      mov.b   #h'ff, r7l
7d9e: ffff                      mov.b   #h'ff, r7l
7da0: ffff                      mov.b   #h'ff, r7l
7da2: ffff                      mov.b   #h'ff, r7l
7da4: ffff                      mov.b   #h'ff, r7l
7da6: ffff                      mov.b   #h'ff, r7l
7da8: ffff                      mov.b   #h'ff, r7l
7daa: ffff                      mov.b   #h'ff, r7l
7dac: ffff                      mov.b   #h'ff, r7l
7dae: ffff                      mov.b   #h'ff, r7l
7db0: ffff                      mov.b   #h'ff, r7l
7db2: ffff                      mov.b   #h'ff, r7l
7db4: ffff                      mov.b   #h'ff, r7l
7db6: ffff                      mov.b   #h'ff, r7l
7db8: ffff                      mov.b   #h'ff, r7l
7dba: ffff                      mov.b   #h'ff, r7l
7dbc: ffff                      mov.b   #h'ff, r7l
7dbe: ffff                      mov.b   #h'ff, r7l
7dc0: ffff                      mov.b   #h'ff, r7l
7dc2: ffff                      mov.b   #h'ff, r7l
7dc4: ffff                      mov.b   #h'ff, r7l
7dc6: ffff                      mov.b   #h'ff, r7l
7dc8: ffff                      mov.b   #h'ff, r7l
7dca: ffff                      mov.b   #h'ff, r7l
7dcc: ffff                      mov.b   #h'ff, r7l
7dce: ffff                      mov.b   #h'ff, r7l
7dd0: ffff                      mov.b   #h'ff, r7l
7dd2: ffff                      mov.b   #h'ff, r7l
7dd4: ffff                      mov.b   #h'ff, r7l
7dd6: ffff                      mov.b   #h'ff, r7l
7dd8: ffff                      mov.b   #h'ff, r7l
7dda: ffff                      mov.b   #h'ff, r7l
7ddc: ffff                      mov.b   #h'ff, r7l
7dde: ffff                      mov.b   #h'ff, r7l
7de0: ffff                      mov.b   #h'ff, r7l
7de2: ffff                      mov.b   #h'ff, r7l
7de4: ffff                      mov.b   #h'ff, r7l
7de6: ffff                      mov.b   #h'ff, r7l
7de8: ffff                      mov.b   #h'ff, r7l
7dea: ffff                      mov.b   #h'ff, r7l
7dec: ffff                      mov.b   #h'ff, r7l
7dee: ffff                      mov.b   #h'ff, r7l
7df0: ffff                      mov.b   #h'ff, r7l
7df2: ffff                      mov.b   #h'ff, r7l
7df4: ffff                      mov.b   #h'ff, r7l
7df6: ffff                      mov.b   #h'ff, r7l
7df8: ffff                      mov.b   #h'ff, r7l
7dfa: ffff                      mov.b   #h'ff, r7l
7dfc: ffff                      mov.b   #h'ff, r7l
7dfe: ffff                      mov.b   #h'ff, r7l
7e00: ffff                      mov.b   #h'ff, r7l
7e02: ffff                      mov.b   #h'ff, r7l
7e04: ffff                      mov.b   #h'ff, r7l
7e06: ffff                      mov.b   #h'ff, r7l
7e08: ffff                      mov.b   #h'ff, r7l
7e0a: ffff                      mov.b   #h'ff, r7l
7e0c: ffff                      mov.b   #h'ff, r7l
7e0e: ffff                      mov.b   #h'ff, r7l
7e10: ffff                      mov.b   #h'ff, r7l
7e12: ffff                      mov.b   #h'ff, r7l
7e14: ffff                      mov.b   #h'ff, r7l
7e16: ffff                      mov.b   #h'ff, r7l
7e18: ffff                      mov.b   #h'ff, r7l
7e1a: ffff                      mov.b   #h'ff, r7l
7e1c: ffff                      mov.b   #h'ff, r7l
7e1e: ffff                      mov.b   #h'ff, r7l
7e20: ffff                      mov.b   #h'ff, r7l
7e22: ffff                      mov.b   #h'ff, r7l
7e24: ffff                      mov.b   #h'ff, r7l
7e26: ffff                      mov.b   #h'ff, r7l
7e28: ffff                      mov.b   #h'ff, r7l
7e2a: ffff                      mov.b   #h'ff, r7l
7e2c: ffff                      mov.b   #h'ff, r7l
7e2e: ffff                      mov.b   #h'ff, r7l
7e30: ffff                      mov.b   #h'ff, r7l
7e32: ffff                      mov.b   #h'ff, r7l
7e34: ffff                      mov.b   #h'ff, r7l
7e36: ffff                      mov.b   #h'ff, r7l
7e38: ffff                      mov.b   #h'ff, r7l
7e3a: ffff                      mov.b   #h'ff, r7l
7e3c: ffff                      mov.b   #h'ff, r7l
7e3e: ffff                      mov.b   #h'ff, r7l
7e40: ffff                      mov.b   #h'ff, r7l
7e42: ffff                      mov.b   #h'ff, r7l
7e44: ffff                      mov.b   #h'ff, r7l
7e46: ffff                      mov.b   #h'ff, r7l
7e48: ffff                      mov.b   #h'ff, r7l
7e4a: ffff                      mov.b   #h'ff, r7l
7e4c: ffff                      mov.b   #h'ff, r7l
7e4e: ffff                      mov.b   #h'ff, r7l
7e50: ffff                      mov.b   #h'ff, r7l
7e52: ffff                      mov.b   #h'ff, r7l
7e54: ffff                      mov.b   #h'ff, r7l
7e56: ffff                      mov.b   #h'ff, r7l
7e58: ffff                      mov.b   #h'ff, r7l
7e5a: ffff                      mov.b   #h'ff, r7l
7e5c: ffff                      mov.b   #h'ff, r7l
7e5e: ffff                      mov.b   #h'ff, r7l
7e60: ffff                      mov.b   #h'ff, r7l
7e62: ffff                      mov.b   #h'ff, r7l
7e64: ffff                      mov.b   #h'ff, r7l
7e66: ffff                      mov.b   #h'ff, r7l
7e68: ffff                      mov.b   #h'ff, r7l
7e6a: ffff                      mov.b   #h'ff, r7l
7e6c: ffff                      mov.b   #h'ff, r7l
7e6e: ffff                      mov.b   #h'ff, r7l
7e70: ffff                      mov.b   #h'ff, r7l
7e72: ffff                      mov.b   #h'ff, r7l
7e74: ffff                      mov.b   #h'ff, r7l
7e76: ffff                      mov.b   #h'ff, r7l
7e78: ffff                      mov.b   #h'ff, r7l
7e7a: ffff                      mov.b   #h'ff, r7l
7e7c: ffff                      mov.b   #h'ff, r7l
7e7e: ffff                      mov.b   #h'ff, r7l
7e80: ffff                      mov.b   #h'ff, r7l
7e82: ffff                      mov.b   #h'ff, r7l
7e84: ffff                      mov.b   #h'ff, r7l
7e86: ffff                      mov.b   #h'ff, r7l
7e88: ffff                      mov.b   #h'ff, r7l
7e8a: ffff                      mov.b   #h'ff, r7l
7e8c: ffff                      mov.b   #h'ff, r7l
7e8e: ffff                      mov.b   #h'ff, r7l
7e90: ffff                      mov.b   #h'ff, r7l
7e92: ffff                      mov.b   #h'ff, r7l
7e94: ffff                      mov.b   #h'ff, r7l
7e96: ffff                      mov.b   #h'ff, r7l
7e98: ffff                      mov.b   #h'ff, r7l
7e9a: ffff                      mov.b   #h'ff, r7l
7e9c: ffff                      mov.b   #h'ff, r7l
7e9e: ffff                      mov.b   #h'ff, r7l
7ea0: ffff                      mov.b   #h'ff, r7l
7ea2: ffff                      mov.b   #h'ff, r7l
7ea4: ffff                      mov.b   #h'ff, r7l
7ea6: ffff                      mov.b   #h'ff, r7l
7ea8: ffff                      mov.b   #h'ff, r7l
7eaa: ffff                      mov.b   #h'ff, r7l
7eac: ffff                      mov.b   #h'ff, r7l
7eae: ffff                      mov.b   #h'ff, r7l
7eb0: ffff                      mov.b   #h'ff, r7l
7eb2: ffff                      mov.b   #h'ff, r7l
7eb4: ffff                      mov.b   #h'ff, r7l
7eb6: ffff                      mov.b   #h'ff, r7l
7eb8: ffff                      mov.b   #h'ff, r7l
7eba: ffff                      mov.b   #h'ff, r7l
7ebc: ffff                      mov.b   #h'ff, r7l
7ebe: ffff                      mov.b   #h'ff, r7l
7ec0: ffff                      mov.b   #h'ff, r7l
7ec2: ffff                      mov.b   #h'ff, r7l
7ec4: ffff                      mov.b   #h'ff, r7l
7ec6: ffff                      mov.b   #h'ff, r7l
7ec8: ffff                      mov.b   #h'ff, r7l
7eca: ffff                      mov.b   #h'ff, r7l
7ecc: ffff                      mov.b   #h'ff, r7l
7ece: ffff                      mov.b   #h'ff, r7l
7ed0: ffff                      mov.b   #h'ff, r7l
7ed2: ffff                      mov.b   #h'ff, r7l
7ed4: ffff                      mov.b   #h'ff, r7l
7ed6: ffff                      mov.b   #h'ff, r7l
7ed8: ffff                      mov.b   #h'ff, r7l
7eda: ffff                      mov.b   #h'ff, r7l
7edc: ffff                      mov.b   #h'ff, r7l
7ede: ffff                      mov.b   #h'ff, r7l
7ee0: ffff                      mov.b   #h'ff, r7l
7ee2: ffff                      mov.b   #h'ff, r7l
7ee4: ffff                      mov.b   #h'ff, r7l
7ee6: ffff                      mov.b   #h'ff, r7l
7ee8: ffff                      mov.b   #h'ff, r7l
7eea: ffff                      mov.b   #h'ff, r7l
7eec: ffff                      mov.b   #h'ff, r7l
7eee: ffff                      mov.b   #h'ff, r7l
7ef0: ffff                      mov.b   #h'ff, r7l
7ef2: ffff                      mov.b   #h'ff, r7l
7ef4: ffff                      mov.b   #h'ff, r7l
7ef6: ffff                      mov.b   #h'ff, r7l
7ef8: ffff                      mov.b   #h'ff, r7l
7efa: ffff                      mov.b   #h'ff, r7l
7efc: ffff                      mov.b   #h'ff, r7l
7efe: ffff                      mov.b   #h'ff, r7l
7f00: ffff                      mov.b   #h'ff, r7l
7f02: ffff                      mov.b   #h'ff, r7l
7f04: ffff                      mov.b   #h'ff, r7l
7f06: ffff                      mov.b   #h'ff, r7l
7f08: ffff                      mov.b   #h'ff, r7l
7f0a: ffff                      mov.b   #h'ff, r7l
7f0c: ffff                      mov.b   #h'ff, r7l
7f0e: ffff                      mov.b   #h'ff, r7l
7f10: ffff                      mov.b   #h'ff, r7l
7f12: ffff                      mov.b   #h'ff, r7l
7f14: ffff                      mov.b   #h'ff, r7l
7f16: ffff                      mov.b   #h'ff, r7l
7f18: ffff                      mov.b   #h'ff, r7l
7f1a: ffff                      mov.b   #h'ff, r7l
7f1c: ffff                      mov.b   #h'ff, r7l
7f1e: ffff                      mov.b   #h'ff, r7l
7f20: ffff                      mov.b   #h'ff, r7l
7f22: ffff                      mov.b   #h'ff, r7l
7f24: ffff                      mov.b   #h'ff, r7l
7f26: ffff                      mov.b   #h'ff, r7l
7f28: ffff                      mov.b   #h'ff, r7l
7f2a: ffff                      mov.b   #h'ff, r7l
7f2c: ffff                      mov.b   #h'ff, r7l
7f2e: ffff                      mov.b   #h'ff, r7l
7f30: ffff                      mov.b   #h'ff, r7l
7f32: ffff                      mov.b   #h'ff, r7l
7f34: ffff                      mov.b   #h'ff, r7l
7f36: ffff                      mov.b   #h'ff, r7l
7f38: ffff                      mov.b   #h'ff, r7l
7f3a: ffff                      mov.b   #h'ff, r7l
7f3c: ffff                      mov.b   #h'ff, r7l
7f3e: ffff                      mov.b   #h'ff, r7l
7f40: ffff                      mov.b   #h'ff, r7l
7f42: ffff                      mov.b   #h'ff, r7l
7f44: ffff                      mov.b   #h'ff, r7l
7f46: ffff                      mov.b   #h'ff, r7l
7f48: ffff                      mov.b   #h'ff, r7l
7f4a: ffff                      mov.b   #h'ff, r7l
7f4c: ffff                      mov.b   #h'ff, r7l
7f4e: ffff                      mov.b   #h'ff, r7l
7f50: ffff                      mov.b   #h'ff, r7l
7f52: ffff                      mov.b   #h'ff, r7l
7f54: ffff                      mov.b   #h'ff, r7l
7f56: ffff                      mov.b   #h'ff, r7l
7f58: ffff                      mov.b   #h'ff, r7l
7f5a: ffff                      mov.b   #h'ff, r7l
7f5c: ffff                      mov.b   #h'ff, r7l
7f5e: ffff                      mov.b   #h'ff, r7l
7f60: ffff                      mov.b   #h'ff, r7l
7f62: ffff                      mov.b   #h'ff, r7l
7f64: ffff                      mov.b   #h'ff, r7l
7f66: ffff                      mov.b   #h'ff, r7l
7f68: ffff                      mov.b   #h'ff, r7l
7f6a: ffff                      mov.b   #h'ff, r7l
7f6c: ffff                      mov.b   #h'ff, r7l
7f6e: ffff                      mov.b   #h'ff, r7l
7f70: ffff                      mov.b   #h'ff, r7l
7f72: ffff                      mov.b   #h'ff, r7l
7f74: ffff                      mov.b   #h'ff, r7l
7f76: ffff                      mov.b   #h'ff, r7l
7f78: ffff                      mov.b   #h'ff, r7l
7f7a: ffff                      mov.b   #h'ff, r7l
7f7c: ffff                      mov.b   #h'ff, r7l
7f7e: ffff                      mov.b   #h'ff, r7l
7f80: ffff                      mov.b   #h'ff, r7l
7f82: ffff                      mov.b   #h'ff, r7l
7f84: ffff                      mov.b   #h'ff, r7l
7f86: ffff                      mov.b   #h'ff, r7l
7f88: ffff                      mov.b   #h'ff, r7l
7f8a: ffff                      mov.b   #h'ff, r7l
7f8c: ffff                      mov.b   #h'ff, r7l
7f8e: ffff                      mov.b   #h'ff, r7l
7f90: ffff                      mov.b   #h'ff, r7l
7f92: ffff                      mov.b   #h'ff, r7l
7f94: ffff                      mov.b   #h'ff, r7l
7f96: ffff                      mov.b   #h'ff, r7l
7f98: ffff                      mov.b   #h'ff, r7l
7f9a: ffff                      mov.b   #h'ff, r7l
7f9c: ffff                      mov.b   #h'ff, r7l
7f9e: ffff                      mov.b   #h'ff, r7l
7fa0: ffff                      mov.b   #h'ff, r7l
7fa2: ffff                      mov.b   #h'ff, r7l
7fa4: ffff                      mov.b   #h'ff, r7l
7fa6: ffff                      mov.b   #h'ff, r7l
7fa8: ffff                      mov.b   #h'ff, r7l
7faa: ffff                      mov.b   #h'ff, r7l
7fac: ffff                      mov.b   #h'ff, r7l
7fae: ffff                      mov.b   #h'ff, r7l
7fb0: ffff                      mov.b   #h'ff, r7l
7fb2: ffff                      mov.b   #h'ff, r7l
7fb4: ffff                      mov.b   #h'ff, r7l
7fb6: ffff                      mov.b   #h'ff, r7l
7fb8: ffff                      mov.b   #h'ff, r7l
7fba: ffff                      mov.b   #h'ff, r7l
7fbc: ffff                      mov.b   #h'ff, r7l
7fbe: ffff                      mov.b   #h'ff, r7l
7fc0: ffff                      mov.b   #h'ff, r7l
7fc2: ffff                      mov.b   #h'ff, r7l
7fc4: ffff                      mov.b   #h'ff, r7l
7fc6: ffff                      mov.b   #h'ff, r7l
7fc8: ffff                      mov.b   #h'ff, r7l
7fca: ffff                      mov.b   #h'ff, r7l
7fcc: ffff                      mov.b   #h'ff, r7l
7fce: ffff                      mov.b   #h'ff, r7l
7fd0: ffff                      mov.b   #h'ff, r7l
7fd2: ffff                      mov.b   #h'ff, r7l
7fd4: ffff                      mov.b   #h'ff, r7l
7fd6: ffff                      mov.b   #h'ff, r7l
7fd8: ffff                      mov.b   #h'ff, r7l
7fda: ffff                      mov.b   #h'ff, r7l
7fdc: ffff                      mov.b   #h'ff, r7l
7fde: ffff                      mov.b   #h'ff, r7l
7fe0: ffff                      mov.b   #h'ff, r7l
7fe2: ffff                      mov.b   #h'ff, r7l
7fe4: ffff                      mov.b   #h'ff, r7l
7fe6: ffff                      mov.b   #h'ff, r7l
7fe8: ffff                      mov.b   #h'ff, r7l
7fea: ffff                      mov.b   #h'ff, r7l
7fec: ffff                      mov.b   #h'ff, r7l
7fee: ffff                      mov.b   #h'ff, r7l
7ff0: ffff                      mov.b   #h'ff, r7l
7ff2: ffff                      mov.b   #h'ff, r7l
7ff4: ffff                      mov.b   #h'ff, r7l
7ff6: ffff                      mov.b   #h'ff, r7l
7ff8: ffff                      mov.b   #h'ff, r7l
7ffa: ffff                      mov.b   #h'ff, r7l
7ffc: ffff                      mov.b   #h'ff, r7l
7ffe: ffff                      mov.b   #h'ff, r7l
